
ciciro.elf:     file format elf32-littlearm

Sections:
Idx Name          Size      VMA       LMA       File off  Algn
  0 .isr_vector   000001ac  08000000  08000000  00010000  2**0
                  CONTENTS, ALLOC, LOAD, READONLY, DATA
  1 .text         00007784  080001b0  080001b0  000101b0  2**4
                  CONTENTS, ALLOC, LOAD, READONLY, CODE
  2 .rodata       00000200  08007934  08007934  00017934  2**2
                  CONTENTS, ALLOC, LOAD, READONLY, DATA
  3 .ARM.extab    00000000  08007b34  08007b34  000201f0  2**0
                  CONTENTS
  4 .ARM          00000000  08007b34  08007b34  000201f0  2**0
                  CONTENTS
  5 .preinit_array 00000000  08007b34  08007b34  000201f0  2**0
                  CONTENTS, ALLOC, LOAD, DATA
  6 .init_array   00000004  08007b34  08007b34  00017b34  2**2
                  CONTENTS, ALLOC, LOAD, DATA
  7 .fini_array   00000004  08007b38  08007b38  00017b38  2**2
                  CONTENTS, ALLOC, LOAD, DATA
  8 .data         000001f0  20000000  08007b3c  00020000  2**2
                  CONTENTS, ALLOC, LOAD, DATA
  9 .bss          000068d8  200001f0  08007d2c  000201f0  2**2
                  ALLOC
 10 ._user_heap_stack 00000600  20006ac8  08007d2c  00026ac8  2**0
                  ALLOC
 11 .ARM.attributes 00000030  00000000  00000000  000201f0  2**0
                  CONTENTS, READONLY
 12 .comment      00000050  00000000  00000000  00020220  2**0
                  CONTENTS, READONLY
 13 .debug_frame  00000380  00000000  00000000  00020270  2**2
                  CONTENTS, READONLY, DEBUGGING, OCTETS

Disassembly of section .text:

080001b0 <__do_global_dtors_aux>:
 80001b0:	b510      	push	{r4, lr}
 80001b2:	4c05      	ldr	r4, [pc, #20]	; (80001c8 <__do_global_dtors_aux+0x18>)
 80001b4:	7823      	ldrb	r3, [r4, #0]
 80001b6:	b933      	cbnz	r3, 80001c6 <__do_global_dtors_aux+0x16>
 80001b8:	4b04      	ldr	r3, [pc, #16]	; (80001cc <__do_global_dtors_aux+0x1c>)
 80001ba:	b113      	cbz	r3, 80001c2 <__do_global_dtors_aux+0x12>
 80001bc:	4804      	ldr	r0, [pc, #16]	; (80001d0 <__do_global_dtors_aux+0x20>)
 80001be:	f3af 8000 	nop.w
 80001c2:	2301      	movs	r3, #1
 80001c4:	7023      	strb	r3, [r4, #0]
 80001c6:	bd10      	pop	{r4, pc}
 80001c8:	200001f0 	.word	0x200001f0
 80001cc:	00000000 	.word	0x00000000
 80001d0:	0800791c 	.word	0x0800791c

080001d4 <frame_dummy>:
 80001d4:	b508      	push	{r3, lr}
 80001d6:	4b03      	ldr	r3, [pc, #12]	; (80001e4 <frame_dummy+0x10>)
 80001d8:	b11b      	cbz	r3, 80001e2 <frame_dummy+0xe>
 80001da:	4903      	ldr	r1, [pc, #12]	; (80001e8 <frame_dummy+0x14>)
 80001dc:	4803      	ldr	r0, [pc, #12]	; (80001ec <frame_dummy+0x18>)
 80001de:	f3af 8000 	nop.w
 80001e2:	bd08      	pop	{r3, pc}
 80001e4:	00000000 	.word	0x00000000
 80001e8:	200001f4 	.word	0x200001f4
 80001ec:	0800791c 	.word	0x0800791c

080001f0 <strlen>:
 80001f0:	4603      	mov	r3, r0
 80001f2:	f813 2b01 	ldrb.w	r2, [r3], #1
 80001f6:	2a00      	cmp	r2, #0
 80001f8:	d1fb      	bne.n	80001f2 <strlen+0x2>
 80001fa:	1a18      	subs	r0, r3, r0
 80001fc:	3801      	subs	r0, #1
 80001fe:	4770      	bx	lr

08000200 <HAL_Init>:
 8000200:	b510      	push	{r4, lr}
 8000202:	2003      	movs	r0, #3
 8000204:	f000 fc2a 	bl	8000a5c <HAL_NVIC_SetPriorityGrouping>
 8000208:	2000      	movs	r0, #0
 800020a:	f006 fed1 	bl	8006fb0 <HAL_InitTick>
 800020e:	4604      	mov	r4, r0
 8000210:	b918      	cbnz	r0, 800021a <HAL_Init+0x1a>
 8000212:	f006 fcfd 	bl	8006c10 <HAL_MspInit>
 8000216:	4620      	mov	r0, r4
 8000218:	bd10      	pop	{r4, pc}
 800021a:	2401      	movs	r4, #1
 800021c:	e7fb      	b.n	8000216 <HAL_Init+0x16>
	...

08000220 <HAL_IncTick>:
 8000220:	4a03      	ldr	r2, [pc, #12]	; (8000230 <HAL_IncTick+0x10>)
 8000222:	4b04      	ldr	r3, [pc, #16]	; (8000234 <HAL_IncTick+0x14>)
 8000224:	6811      	ldr	r1, [r2, #0]
 8000226:	781b      	ldrb	r3, [r3, #0]
 8000228:	440b      	add	r3, r1
 800022a:	6013      	str	r3, [r2, #0]
 800022c:	4770      	bx	lr
 800022e:	bf00      	nop
 8000230:	2000020c 	.word	0x2000020c
 8000234:	20000000 	.word	0x20000000

08000238 <HAL_GetTick>:
 8000238:	4b01      	ldr	r3, [pc, #4]	; (8000240 <HAL_GetTick+0x8>)
 800023a:	6818      	ldr	r0, [r3, #0]
 800023c:	4770      	bx	lr
 800023e:	bf00      	nop
 8000240:	2000020c 	.word	0x2000020c

08000244 <HAL_Delay>:
 8000244:	b538      	push	{r3, r4, r5, lr}
 8000246:	4604      	mov	r4, r0
 8000248:	f7ff fff6 	bl	8000238 <HAL_GetTick>
 800024c:	1c63      	adds	r3, r4, #1
 800024e:	bf1c      	itt	ne
 8000250:	4b05      	ldrne	r3, [pc, #20]	; (8000268 <HAL_Delay+0x24>)
 8000252:	781b      	ldrbne	r3, [r3, #0]
 8000254:	4605      	mov	r5, r0
 8000256:	bf18      	it	ne
 8000258:	18e4      	addne	r4, r4, r3
 800025a:	f7ff ffed 	bl	8000238 <HAL_GetTick>
 800025e:	1b43      	subs	r3, r0, r5
 8000260:	42a3      	cmp	r3, r4
 8000262:	d3fa      	bcc.n	800025a <HAL_Delay+0x16>
 8000264:	bd38      	pop	{r3, r4, r5, pc}
 8000266:	bf00      	nop
 8000268:	20000000 	.word	0x20000000

0800026c <HAL_SYSCFG_VREFBUF_VoltageScalingConfig>:
 800026c:	4a03      	ldr	r2, [pc, #12]	; (800027c <HAL_SYSCFG_VREFBUF_VoltageScalingConfig+0x10>)
 800026e:	6b13      	ldr	r3, [r2, #48]	; 0x30
 8000270:	f023 0304 	bic.w	r3, r3, #4
 8000274:	4318      	orrs	r0, r3
 8000276:	6310      	str	r0, [r2, #48]	; 0x30
 8000278:	4770      	bx	lr
 800027a:	bf00      	nop
 800027c:	40010000 	.word	0x40010000

08000280 <HAL_SYSCFG_VREFBUF_HighImpedanceConfig>:
 8000280:	4a03      	ldr	r2, [pc, #12]	; (8000290 <HAL_SYSCFG_VREFBUF_HighImpedanceConfig+0x10>)
 8000282:	6b13      	ldr	r3, [r2, #48]	; 0x30
 8000284:	f023 0302 	bic.w	r3, r3, #2
 8000288:	4318      	orrs	r0, r3
 800028a:	6310      	str	r0, [r2, #48]	; 0x30
 800028c:	4770      	bx	lr
 800028e:	bf00      	nop
 8000290:	40010000 	.word	0x40010000

08000294 <HAL_SYSCFG_EnableVREFBUF>:
 8000294:	b538      	push	{r3, r4, r5, lr}
 8000296:	4c0a      	ldr	r4, [pc, #40]	; (80002c0 <HAL_SYSCFG_EnableVREFBUF+0x2c>)
 8000298:	6b23      	ldr	r3, [r4, #48]	; 0x30
 800029a:	f043 0301 	orr.w	r3, r3, #1
 800029e:	6323      	str	r3, [r4, #48]	; 0x30
 80002a0:	f7ff ffca 	bl	8000238 <HAL_GetTick>
 80002a4:	4605      	mov	r5, r0
 80002a6:	6b23      	ldr	r3, [r4, #48]	; 0x30
 80002a8:	071b      	lsls	r3, r3, #28
 80002aa:	d501      	bpl.n	80002b0 <HAL_SYSCFG_EnableVREFBUF+0x1c>
 80002ac:	2000      	movs	r0, #0
 80002ae:	bd38      	pop	{r3, r4, r5, pc}
 80002b0:	f7ff ffc2 	bl	8000238 <HAL_GetTick>
 80002b4:	1b40      	subs	r0, r0, r5
 80002b6:	280a      	cmp	r0, #10
 80002b8:	d9f5      	bls.n	80002a6 <HAL_SYSCFG_EnableVREFBUF+0x12>
 80002ba:	2003      	movs	r0, #3
 80002bc:	e7f7      	b.n	80002ae <HAL_SYSCFG_EnableVREFBUF+0x1a>
 80002be:	bf00      	nop
 80002c0:	40010000 	.word	0x40010000

080002c4 <LL_ADC_SetChannelSamplingTime>:
 80002c4:	b530      	push	{r4, r5, lr}
 80002c6:	0dcc      	lsrs	r4, r1, #23
 80002c8:	f004 0404 	and.w	r4, r4, #4
 80002cc:	3014      	adds	r0, #20
 80002ce:	f3c1 5104 	ubfx	r1, r1, #20, #5
 80002d2:	5823      	ldr	r3, [r4, r0]
 80002d4:	2507      	movs	r5, #7
 80002d6:	408d      	lsls	r5, r1
 80002d8:	ea23 0305 	bic.w	r3, r3, r5
 80002dc:	fa02 f101 	lsl.w	r1, r2, r1
 80002e0:	430b      	orrs	r3, r1
 80002e2:	5023      	str	r3, [r4, r0]
 80002e4:	bd30      	pop	{r4, r5, pc}

080002e6 <LL_ADC_REG_IsConversionOngoing>:
 80002e6:	6880      	ldr	r0, [r0, #8]
 80002e8:	f3c0 0080 	ubfx	r0, r0, #2, #1
 80002ec:	4770      	bx	lr
	...

080002f0 <HAL_ADC_Init>:
 80002f0:	b537      	push	{r0, r1, r2, r4, r5, lr}
 80002f2:	2300      	movs	r3, #0
 80002f4:	9301      	str	r3, [sp, #4]
 80002f6:	4604      	mov	r4, r0
 80002f8:	2800      	cmp	r0, #0
 80002fa:	f000 80c8 	beq.w	800048e <HAL_ADC_Init+0x19e>
 80002fe:	6d85      	ldr	r5, [r0, #88]	; 0x58
 8000300:	b925      	cbnz	r5, 800030c <HAL_ADC_Init+0x1c>
 8000302:	f006 fcad 	bl	8006c60 <HAL_ADC_MspInit>
 8000306:	65e5      	str	r5, [r4, #92]	; 0x5c
 8000308:	f884 5054 	strb.w	r5, [r4, #84]	; 0x54
 800030c:	6820      	ldr	r0, [r4, #0]
 800030e:	6883      	ldr	r3, [r0, #8]
 8000310:	009b      	lsls	r3, r3, #2
 8000312:	bf41      	itttt	mi
 8000314:	6883      	ldrmi	r3, [r0, #8]
 8000316:	f023 4320 	bicmi.w	r3, r3, #2684354560	; 0xa0000000
 800031a:	f023 033f 	bicmi.w	r3, r3, #63	; 0x3f
 800031e:	6083      	strmi	r3, [r0, #8]
 8000320:	6883      	ldr	r3, [r0, #8]
 8000322:	00dd      	lsls	r5, r3, #3
 8000324:	f140 8093 	bpl.w	800044e <HAL_ADC_Init+0x15e>
 8000328:	6883      	ldr	r3, [r0, #8]
 800032a:	00d9      	lsls	r1, r3, #3
 800032c:	f100 80a6 	bmi.w	800047c <HAL_ADC_Init+0x18c>
 8000330:	6da3      	ldr	r3, [r4, #88]	; 0x58
 8000332:	f043 0310 	orr.w	r3, r3, #16
 8000336:	65a3      	str	r3, [r4, #88]	; 0x58
 8000338:	6de3      	ldr	r3, [r4, #92]	; 0x5c
 800033a:	f043 0301 	orr.w	r3, r3, #1
 800033e:	65e3      	str	r3, [r4, #92]	; 0x5c
 8000340:	2101      	movs	r1, #1
 8000342:	f7ff ffd0 	bl	80002e6 <LL_ADC_REG_IsConversionOngoing>
 8000346:	6da3      	ldr	r3, [r4, #88]	; 0x58
 8000348:	f003 0310 	and.w	r3, r3, #16
 800034c:	4303      	orrs	r3, r0
 800034e:	6da3      	ldr	r3, [r4, #88]	; 0x58
 8000350:	f040 809a 	bne.w	8000488 <HAL_ADC_Init+0x198>
 8000354:	f423 7381 	bic.w	r3, r3, #258	; 0x102
 8000358:	f043 0302 	orr.w	r3, r3, #2
 800035c:	6820      	ldr	r0, [r4, #0]
 800035e:	65a3      	str	r3, [r4, #88]	; 0x58
 8000360:	6883      	ldr	r3, [r0, #8]
 8000362:	07da      	lsls	r2, r3, #31
 8000364:	d411      	bmi.n	800038a <HAL_ADC_Init+0x9a>
 8000366:	4b4b      	ldr	r3, [pc, #300]	; (8000494 <HAL_ADC_Init+0x1a4>)
 8000368:	4a4b      	ldr	r2, [pc, #300]	; (8000498 <HAL_ADC_Init+0x1a8>)
 800036a:	689d      	ldr	r5, [r3, #8]
 800036c:	f503 7380 	add.w	r3, r3, #256	; 0x100
 8000370:	689b      	ldr	r3, [r3, #8]
 8000372:	6892      	ldr	r2, [r2, #8]
 8000374:	432b      	orrs	r3, r5
 8000376:	4313      	orrs	r3, r2
 8000378:	07db      	lsls	r3, r3, #31
 800037a:	d406      	bmi.n	800038a <HAL_ADC_Init+0x9a>
 800037c:	4a47      	ldr	r2, [pc, #284]	; (800049c <HAL_ADC_Init+0x1ac>)
 800037e:	6865      	ldr	r5, [r4, #4]
 8000380:	6893      	ldr	r3, [r2, #8]
 8000382:	f423 137c 	bic.w	r3, r3, #4128768	; 0x3f0000
 8000386:	432b      	orrs	r3, r5
 8000388:	6093      	str	r3, [r2, #8]
 800038a:	68e5      	ldr	r5, [r4, #12]
 800038c:	6b63      	ldr	r3, [r4, #52]	; 0x34
 800038e:	f894 2020 	ldrb.w	r2, [r4, #32]
 8000392:	432b      	orrs	r3, r5
 8000394:	68a5      	ldr	r5, [r4, #8]
 8000396:	432b      	orrs	r3, r5
 8000398:	7e65      	ldrb	r5, [r4, #25]
 800039a:	2a01      	cmp	r2, #1
 800039c:	ea43 3345 	orr.w	r3, r3, r5, lsl #13
 80003a0:	ea43 4302 	orr.w	r3, r3, r2, lsl #16
 80003a4:	bf02      	ittt	eq
 80003a6:	6a62      	ldreq	r2, [r4, #36]	; 0x24
 80003a8:	f102 32ff 	addeq.w	r2, r2, #4294967295
 80003ac:	ea43 4342 	orreq.w	r3, r3, r2, lsl #17
 80003b0:	6aa2      	ldr	r2, [r4, #40]	; 0x28
 80003b2:	b122      	cbz	r2, 80003be <HAL_ADC_Init+0xce>
 80003b4:	6ae5      	ldr	r5, [r4, #44]	; 0x2c
 80003b6:	f402 7270 	and.w	r2, r2, #960	; 0x3c0
 80003ba:	432a      	orrs	r2, r5
 80003bc:	4313      	orrs	r3, r2
 80003be:	68c5      	ldr	r5, [r0, #12]
 80003c0:	4a37      	ldr	r2, [pc, #220]	; (80004a0 <HAL_ADC_Init+0x1b0>)
 80003c2:	402a      	ands	r2, r5
 80003c4:	4313      	orrs	r3, r2
 80003c6:	60c3      	str	r3, [r0, #12]
 80003c8:	f7ff ff8d 	bl	80002e6 <LL_ADC_REG_IsConversionOngoing>
 80003cc:	6823      	ldr	r3, [r4, #0]
 80003ce:	689a      	ldr	r2, [r3, #8]
 80003d0:	f002 0208 	and.w	r2, r2, #8
 80003d4:	4302      	orrs	r2, r0
 80003d6:	d122      	bne.n	800041e <HAL_ADC_Init+0x12e>
 80003d8:	f894 2030 	ldrb.w	r2, [r4, #48]	; 0x30
 80003dc:	7e25      	ldrb	r5, [r4, #24]
 80003de:	68d8      	ldr	r0, [r3, #12]
 80003e0:	0052      	lsls	r2, r2, #1
 80003e2:	ea42 3285 	orr.w	r2, r2, r5, lsl #14
 80003e6:	6ce5      	ldr	r5, [r4, #76]	; 0x4c
 80003e8:	f420 4080 	bic.w	r0, r0, #16384	; 0x4000
 80003ec:	432a      	orrs	r2, r5
 80003ee:	f020 0006 	bic.w	r0, r0, #6
 80003f2:	4302      	orrs	r2, r0
 80003f4:	60da      	str	r2, [r3, #12]
 80003f6:	f894 2038 	ldrb.w	r2, [r4, #56]	; 0x38
 80003fa:	2a01      	cmp	r2, #1
 80003fc:	d140      	bne.n	8000480 <HAL_ADC_Init+0x190>
 80003fe:	e9d4 250f 	ldrd	r2, r5, [r4, #60]	; 0x3c
 8000402:	6918      	ldr	r0, [r3, #16]
 8000404:	f420 60ff 	bic.w	r0, r0, #2040	; 0x7f8
 8000408:	f020 0004 	bic.w	r0, r0, #4
 800040c:	432a      	orrs	r2, r5
 800040e:	4302      	orrs	r2, r0
 8000410:	6c60      	ldr	r0, [r4, #68]	; 0x44
 8000412:	4302      	orrs	r2, r0
 8000414:	6ca0      	ldr	r0, [r4, #72]	; 0x48
 8000416:	4302      	orrs	r2, r0
 8000418:	f042 0201 	orr.w	r2, r2, #1
 800041c:	611a      	str	r2, [r3, #16]
 800041e:	6922      	ldr	r2, [r4, #16]
 8000420:	2a01      	cmp	r2, #1
 8000422:	bf05      	ittet	eq
 8000424:	6b18      	ldreq	r0, [r3, #48]	; 0x30
 8000426:	69e2      	ldreq	r2, [r4, #28]
 8000428:	6b1a      	ldrne	r2, [r3, #48]	; 0x30
 800042a:	f102 32ff 	addeq.w	r2, r2, #4294967295
 800042e:	bf06      	itte	eq
 8000430:	f020 000f 	biceq.w	r0, r0, #15
 8000434:	4302      	orreq	r2, r0
 8000436:	f022 020f 	bicne.w	r2, r2, #15
 800043a:	631a      	str	r2, [r3, #48]	; 0x30
 800043c:	6da3      	ldr	r3, [r4, #88]	; 0x58
 800043e:	f023 0303 	bic.w	r3, r3, #3
 8000442:	f043 0301 	orr.w	r3, r3, #1
 8000446:	65a3      	str	r3, [r4, #88]	; 0x58
 8000448:	4608      	mov	r0, r1
 800044a:	b003      	add	sp, #12
 800044c:	bd30      	pop	{r4, r5, pc}
 800044e:	6883      	ldr	r3, [r0, #8]
 8000450:	4a14      	ldr	r2, [pc, #80]	; (80004a4 <HAL_ADC_Init+0x1b4>)
 8000452:	f023 4310 	bic.w	r3, r3, #2415919104	; 0x90000000
 8000456:	f023 033f 	bic.w	r3, r3, #63	; 0x3f
 800045a:	f043 5380 	orr.w	r3, r3, #268435456	; 0x10000000
 800045e:	6083      	str	r3, [r0, #8]
 8000460:	4b11      	ldr	r3, [pc, #68]	; (80004a8 <HAL_ADC_Init+0x1b8>)
 8000462:	681b      	ldr	r3, [r3, #0]
 8000464:	fbb3 f3f2 	udiv	r3, r3, r2
 8000468:	3301      	adds	r3, #1
 800046a:	005b      	lsls	r3, r3, #1
 800046c:	9301      	str	r3, [sp, #4]
 800046e:	9b01      	ldr	r3, [sp, #4]
 8000470:	2b00      	cmp	r3, #0
 8000472:	f43f af59 	beq.w	8000328 <HAL_ADC_Init+0x38>
 8000476:	9b01      	ldr	r3, [sp, #4]
 8000478:	3b01      	subs	r3, #1
 800047a:	e7f7      	b.n	800046c <HAL_ADC_Init+0x17c>
 800047c:	2100      	movs	r1, #0
 800047e:	e760      	b.n	8000342 <HAL_ADC_Init+0x52>
 8000480:	691a      	ldr	r2, [r3, #16]
 8000482:	f022 0201 	bic.w	r2, r2, #1
 8000486:	e7c9      	b.n	800041c <HAL_ADC_Init+0x12c>
 8000488:	f043 0310 	orr.w	r3, r3, #16
 800048c:	65a3      	str	r3, [r4, #88]	; 0x58
 800048e:	2101      	movs	r1, #1
 8000490:	e7da      	b.n	8000448 <HAL_ADC_Init+0x158>
 8000492:	bf00      	nop
 8000494:	50040000 	.word	0x50040000
 8000498:	50040200 	.word	0x50040200
 800049c:	50040300 	.word	0x50040300
 80004a0:	fff0c007 	.word	0xfff0c007
 80004a4:	00030d40 	.word	0x00030d40
 80004a8:	2000011c 	.word	0x2000011c

080004ac <HAL_ADC_ConfigChannel>:
 80004ac:	b5f7      	push	{r0, r1, r2, r4, r5, r6, r7, lr}
 80004ae:	2300      	movs	r3, #0
 80004b0:	9301      	str	r3, [sp, #4]
 80004b2:	f890 3054 	ldrb.w	r3, [r0, #84]	; 0x54
 80004b6:	2b01      	cmp	r3, #1
 80004b8:	4605      	mov	r5, r0
 80004ba:	460c      	mov	r4, r1
 80004bc:	f000 81ac 	beq.w	8000818 <HAL_ADC_ConfigChannel+0x36c>
 80004c0:	2301      	movs	r3, #1
 80004c2:	f880 3054 	strb.w	r3, [r0, #84]	; 0x54
 80004c6:	6800      	ldr	r0, [r0, #0]
 80004c8:	f7ff ff0d 	bl	80002e6 <LL_ADC_REG_IsConversionOngoing>
 80004cc:	2800      	cmp	r0, #0
 80004ce:	f040 819d 	bne.w	800080c <HAL_ADC_ConfigChannel+0x360>
 80004d2:	684b      	ldr	r3, [r1, #4]
 80004d4:	2b05      	cmp	r3, #5
 80004d6:	d809      	bhi.n	80004ec <HAL_ADC_ConfigChannel+0x40>
 80004d8:	3b02      	subs	r3, #2
 80004da:	2b03      	cmp	r3, #3
 80004dc:	f200 8094 	bhi.w	8000608 <HAL_ADC_ConfigChannel+0x15c>
 80004e0:	e8df f003 	tbb	[pc, r3]
 80004e4:	8f8d8b02 	.word	0x8f8d8b02
 80004e8:	230c      	movs	r3, #12
 80004ea:	6063      	str	r3, [r4, #4]
 80004ec:	6862      	ldr	r2, [r4, #4]
 80004ee:	6828      	ldr	r0, [r5, #0]
 80004f0:	6823      	ldr	r3, [r4, #0]
 80004f2:	0991      	lsrs	r1, r2, #6
 80004f4:	f001 010c 	and.w	r1, r1, #12
 80004f8:	f100 0730 	add.w	r7, r0, #48	; 0x30
 80004fc:	f002 021f 	and.w	r2, r2, #31
 8000500:	59ce      	ldr	r6, [r1, r7]
 8000502:	f04f 0c1f 	mov.w	ip, #31
 8000506:	f3c3 6384 	ubfx	r3, r3, #26, #5
 800050a:	4093      	lsls	r3, r2
 800050c:	fa0c f202 	lsl.w	r2, ip, r2
 8000510:	ea26 0202 	bic.w	r2, r6, r2
 8000514:	4313      	orrs	r3, r2
 8000516:	51cb      	str	r3, [r1, r7]
 8000518:	f7ff fee5 	bl	80002e6 <LL_ADC_REG_IsConversionOngoing>
 800051c:	4601      	mov	r1, r0
 800051e:	6828      	ldr	r0, [r5, #0]
 8000520:	6882      	ldr	r2, [r0, #8]
 8000522:	f002 0208 	and.w	r2, r2, #8
 8000526:	430a      	orrs	r2, r1
 8000528:	d124      	bne.n	8000574 <HAL_ADC_ConfigChannel+0xc8>
 800052a:	68a3      	ldr	r3, [r4, #8]
 800052c:	6821      	ldr	r1, [r4, #0]
 800052e:	f1b3 4f00 	cmp.w	r3, #2147483648	; 0x80000000
 8000532:	d16b      	bne.n	800060c <HAL_ADC_ConfigChannel+0x160>
 8000534:	f7ff fec6 	bl	80002c4 <LL_ADC_SetChannelSamplingTime>
 8000538:	682a      	ldr	r2, [r5, #0]
 800053a:	6953      	ldr	r3, [r2, #20]
 800053c:	f043 4300 	orr.w	r3, r3, #2147483648	; 0x80000000
 8000540:	6153      	str	r3, [r2, #20]
 8000542:	6926      	ldr	r6, [r4, #16]
 8000544:	6828      	ldr	r0, [r5, #0]
 8000546:	6822      	ldr	r2, [r4, #0]
 8000548:	68c1      	ldr	r1, [r0, #12]
 800054a:	2e04      	cmp	r6, #4
 800054c:	f100 0360 	add.w	r3, r0, #96	; 0x60
 8000550:	d064      	beq.n	800061c <HAL_ADC_ConfigChannel+0x170>
 8000552:	f3c1 01c1 	ubfx	r1, r1, #3, #2
 8000556:	0048      	lsls	r0, r1, #1
 8000558:	6961      	ldr	r1, [r4, #20]
 800055a:	f853 7026 	ldr.w	r7, [r3, r6, lsl #2]
 800055e:	4081      	lsls	r1, r0
 8000560:	48ae      	ldr	r0, [pc, #696]	; (800081c <HAL_ADC_ConfigChannel+0x370>)
 8000562:	f002 42f8 	and.w	r2, r2, #2080374784	; 0x7c000000
 8000566:	4038      	ands	r0, r7
 8000568:	4310      	orrs	r0, r2
 800056a:	4301      	orrs	r1, r0
 800056c:	f041 4100 	orr.w	r1, r1, #2147483648	; 0x80000000
 8000570:	f843 1026 	str.w	r1, [r3, r6, lsl #2]
 8000574:	6828      	ldr	r0, [r5, #0]
 8000576:	6883      	ldr	r3, [r0, #8]
 8000578:	07de      	lsls	r6, r3, #31
 800057a:	d433      	bmi.n	80005e4 <HAL_ADC_ConfigChannel+0x138>
 800057c:	68e7      	ldr	r7, [r4, #12]
 800057e:	6823      	ldr	r3, [r4, #0]
 8000580:	4aa7      	ldr	r2, [pc, #668]	; (8000820 <HAL_ADC_ConfigChannel+0x374>)
 8000582:	f8d0 10b0 	ldr.w	r1, [r0, #176]	; 0xb0
 8000586:	f007 0c18 	and.w	ip, r7, #24
 800058a:	f3c3 0612 	ubfx	r6, r3, #0, #19
 800058e:	fa22 f20c 	lsr.w	r2, r2, ip
 8000592:	401a      	ands	r2, r3
 8000594:	ea21 0106 	bic.w	r1, r1, r6
 8000598:	430a      	orrs	r2, r1
 800059a:	f8c0 20b0 	str.w	r2, [r0, #176]	; 0xb0
 800059e:	4aa1      	ldr	r2, [pc, #644]	; (8000824 <HAL_ADC_ConfigChannel+0x378>)
 80005a0:	4297      	cmp	r7, r2
 80005a2:	d11f      	bne.n	80005e4 <HAL_ADC_ConfigChannel+0x138>
 80005a4:	2e00      	cmp	r6, #0
 80005a6:	f040 808e 	bne.w	80006c6 <HAL_ADC_ConfigChannel+0x21a>
 80005aa:	0e9a      	lsrs	r2, r3, #26
 80005ac:	3201      	adds	r2, #1
 80005ae:	f002 071f 	and.w	r7, r2, #31
 80005b2:	2101      	movs	r1, #1
 80005b4:	0692      	lsls	r2, r2, #26
 80005b6:	2f09      	cmp	r7, #9
 80005b8:	f002 42f8 	and.w	r2, r2, #2080374784	; 0x7c000000
 80005bc:	fa01 f107 	lsl.w	r1, r1, r7
 80005c0:	f200 80b3 	bhi.w	800072a <HAL_ADC_ConfigChannel+0x27e>
 80005c4:	430a      	orrs	r2, r1
 80005c6:	2e00      	cmp	r6, #0
 80005c8:	f040 8099 	bne.w	80006fe <HAL_ADC_ConfigChannel+0x252>
 80005cc:	0e9b      	lsrs	r3, r3, #26
 80005ce:	3301      	adds	r3, #1
 80005d0:	f003 031f 	and.w	r3, r3, #31
 80005d4:	eb03 0343 	add.w	r3, r3, r3, lsl #1
 80005d8:	051b      	lsls	r3, r3, #20
 80005da:	ea42 0103 	orr.w	r1, r2, r3
 80005de:	68a2      	ldr	r2, [r4, #8]
 80005e0:	f7ff fe70 	bl	80002c4 <LL_ADC_SetChannelSamplingTime>
 80005e4:	6821      	ldr	r1, [r4, #0]
 80005e6:	4b90      	ldr	r3, [pc, #576]	; (8000828 <HAL_ADC_ConfigChannel+0x37c>)
 80005e8:	4219      	tst	r1, r3
 80005ea:	f040 80b9 	bne.w	8000760 <HAL_ADC_ConfigChannel+0x2b4>
 80005ee:	2000      	movs	r0, #0
 80005f0:	2300      	movs	r3, #0
 80005f2:	f885 3054 	strb.w	r3, [r5, #84]	; 0x54
 80005f6:	b003      	add	sp, #12
 80005f8:	bdf0      	pop	{r4, r5, r6, r7, pc}
 80005fa:	2312      	movs	r3, #18
 80005fc:	e775      	b.n	80004ea <HAL_ADC_ConfigChannel+0x3e>
 80005fe:	2318      	movs	r3, #24
 8000600:	e773      	b.n	80004ea <HAL_ADC_ConfigChannel+0x3e>
 8000602:	f44f 7380 	mov.w	r3, #256	; 0x100
 8000606:	e770      	b.n	80004ea <HAL_ADC_ConfigChannel+0x3e>
 8000608:	2306      	movs	r3, #6
 800060a:	e76e      	b.n	80004ea <HAL_ADC_ConfigChannel+0x3e>
 800060c:	461a      	mov	r2, r3
 800060e:	f7ff fe59 	bl	80002c4 <LL_ADC_SetChannelSamplingTime>
 8000612:	682a      	ldr	r2, [r5, #0]
 8000614:	6953      	ldr	r3, [r2, #20]
 8000616:	f023 4300 	bic.w	r3, r3, #2147483648	; 0x80000000
 800061a:	e791      	b.n	8000540 <HAL_ADC_ConfigChannel+0x94>
 800061c:	6e01      	ldr	r1, [r0, #96]	; 0x60
 800061e:	6e01      	ldr	r1, [r0, #96]	; 0x60
 8000620:	f3c2 0612 	ubfx	r6, r2, #0, #19
 8000624:	f3c1 6184 	ubfx	r1, r1, #26, #5
 8000628:	2e00      	cmp	r6, #0
 800062a:	d138      	bne.n	800069e <HAL_ADC_ConfigChannel+0x1f2>
 800062c:	f3c2 6284 	ubfx	r2, r2, #26, #5
 8000630:	4291      	cmp	r1, r2
 8000632:	bf02      	ittt	eq
 8000634:	6e02      	ldreq	r2, [r0, #96]	; 0x60
 8000636:	f022 4200 	biceq.w	r2, r2, #2147483648	; 0x80000000
 800063a:	6602      	streq	r2, [r0, #96]	; 0x60
 800063c:	685a      	ldr	r2, [r3, #4]
 800063e:	6822      	ldr	r2, [r4, #0]
 8000640:	6859      	ldr	r1, [r3, #4]
 8000642:	f3c2 0012 	ubfx	r0, r2, #0, #19
 8000646:	f3c1 6184 	ubfx	r1, r1, #26, #5
 800064a:	bb68      	cbnz	r0, 80006a8 <HAL_ADC_ConfigChannel+0x1fc>
 800064c:	f3c2 6284 	ubfx	r2, r2, #26, #5
 8000650:	4291      	cmp	r1, r2
 8000652:	bf02      	ittt	eq
 8000654:	685a      	ldreq	r2, [r3, #4]
 8000656:	f022 4200 	biceq.w	r2, r2, #2147483648	; 0x80000000
 800065a:	605a      	streq	r2, [r3, #4]
 800065c:	689a      	ldr	r2, [r3, #8]
 800065e:	6822      	ldr	r2, [r4, #0]
 8000660:	6899      	ldr	r1, [r3, #8]
 8000662:	f3c2 0012 	ubfx	r0, r2, #0, #19
 8000666:	f3c1 6184 	ubfx	r1, r1, #26, #5
 800066a:	bb10      	cbnz	r0, 80006b2 <HAL_ADC_ConfigChannel+0x206>
 800066c:	f3c2 6284 	ubfx	r2, r2, #26, #5
 8000670:	4291      	cmp	r1, r2
 8000672:	bf02      	ittt	eq
 8000674:	689a      	ldreq	r2, [r3, #8]
 8000676:	f022 4200 	biceq.w	r2, r2, #2147483648	; 0x80000000
 800067a:	609a      	streq	r2, [r3, #8]
 800067c:	68da      	ldr	r2, [r3, #12]
 800067e:	6822      	ldr	r2, [r4, #0]
 8000680:	68d9      	ldr	r1, [r3, #12]
 8000682:	f3c2 0012 	ubfx	r0, r2, #0, #19
 8000686:	f3c1 6184 	ubfx	r1, r1, #26, #5
 800068a:	b9b8      	cbnz	r0, 80006bc <HAL_ADC_ConfigChannel+0x210>
 800068c:	f3c2 6284 	ubfx	r2, r2, #26, #5
 8000690:	4291      	cmp	r1, r2
 8000692:	bf02      	ittt	eq
 8000694:	68da      	ldreq	r2, [r3, #12]
 8000696:	f022 4200 	biceq.w	r2, r2, #2147483648	; 0x80000000
 800069a:	60da      	streq	r2, [r3, #12]
 800069c:	e76a      	b.n	8000574 <HAL_ADC_ConfigChannel+0xc8>
 800069e:	fa92 f2a2 	rbit	r2, r2
 80006a2:	fab2 f282 	clz	r2, r2
 80006a6:	e7c3      	b.n	8000630 <HAL_ADC_ConfigChannel+0x184>
 80006a8:	fa92 f2a2 	rbit	r2, r2
 80006ac:	fab2 f282 	clz	r2, r2
 80006b0:	e7ce      	b.n	8000650 <HAL_ADC_ConfigChannel+0x1a4>
 80006b2:	fa92 f2a2 	rbit	r2, r2
 80006b6:	fab2 f282 	clz	r2, r2
 80006ba:	e7d9      	b.n	8000670 <HAL_ADC_ConfigChannel+0x1c4>
 80006bc:	fa92 f2a2 	rbit	r2, r2
 80006c0:	fab2 f282 	clz	r2, r2
 80006c4:	e7e4      	b.n	8000690 <HAL_ADC_ConfigChannel+0x1e4>
 80006c6:	fa93 f2a3 	rbit	r2, r3
 80006ca:	b132      	cbz	r2, 80006da <HAL_ADC_ConfigChannel+0x22e>
 80006cc:	fab2 f282 	clz	r2, r2
 80006d0:	3201      	adds	r2, #1
 80006d2:	f002 021f 	and.w	r2, r2, #31
 80006d6:	2a09      	cmp	r2, #9
 80006d8:	d816      	bhi.n	8000708 <HAL_ADC_ConfigChannel+0x25c>
 80006da:	fa93 f2a3 	rbit	r2, r3
 80006de:	fab2 f282 	clz	r2, r2
 80006e2:	3201      	adds	r2, #1
 80006e4:	0692      	lsls	r2, r2, #26
 80006e6:	f002 42f8 	and.w	r2, r2, #2080374784	; 0x7c000000
 80006ea:	fa93 f1a3 	rbit	r1, r3
 80006ee:	fab1 f181 	clz	r1, r1
 80006f2:	3101      	adds	r1, #1
 80006f4:	f001 071f 	and.w	r7, r1, #31
 80006f8:	2101      	movs	r1, #1
 80006fa:	40b9      	lsls	r1, r7
 80006fc:	e762      	b.n	80005c4 <HAL_ADC_ConfigChannel+0x118>
 80006fe:	fa93 f3a3 	rbit	r3, r3
 8000702:	fab3 f383 	clz	r3, r3
 8000706:	e762      	b.n	80005ce <HAL_ADC_ConfigChannel+0x122>
 8000708:	fa93 f2a3 	rbit	r2, r3
 800070c:	fab2 f282 	clz	r2, r2
 8000710:	3201      	adds	r2, #1
 8000712:	0692      	lsls	r2, r2, #26
 8000714:	f002 42f8 	and.w	r2, r2, #2080374784	; 0x7c000000
 8000718:	fa93 f1a3 	rbit	r1, r3
 800071c:	fab1 f181 	clz	r1, r1
 8000720:	3101      	adds	r1, #1
 8000722:	f001 071f 	and.w	r7, r1, #31
 8000726:	2101      	movs	r1, #1
 8000728:	40b9      	lsls	r1, r7
 800072a:	430a      	orrs	r2, r1
 800072c:	b95e      	cbnz	r6, 8000746 <HAL_ADC_ConfigChannel+0x29a>
 800072e:	0e9e      	lsrs	r6, r3, #26
 8000730:	3601      	adds	r6, #1
 8000732:	f006 061f 	and.w	r6, r6, #31
 8000736:	eb06 0146 	add.w	r1, r6, r6, lsl #1
 800073a:	391e      	subs	r1, #30
 800073c:	0509      	lsls	r1, r1, #20
 800073e:	f041 7100 	orr.w	r1, r1, #33554432	; 0x2000000
 8000742:	4311      	orrs	r1, r2
 8000744:	e74b      	b.n	80005de <HAL_ADC_ConfigChannel+0x132>
 8000746:	fa93 f1a3 	rbit	r1, r3
 800074a:	fab1 f181 	clz	r1, r1
 800074e:	3101      	adds	r1, #1
 8000750:	f001 031f 	and.w	r3, r1, #31
 8000754:	f06f 061d 	mvn.w	r6, #29
 8000758:	2103      	movs	r1, #3
 800075a:	fb11 6103 	smlabb	r1, r1, r3, r6
 800075e:	e7ed      	b.n	800073c <HAL_ADC_ConfigChannel+0x290>
 8000760:	4b32      	ldr	r3, [pc, #200]	; (800082c <HAL_ADC_ConfigChannel+0x380>)
 8000762:	4a33      	ldr	r2, [pc, #204]	; (8000830 <HAL_ADC_ConfigChannel+0x384>)
 8000764:	6898      	ldr	r0, [r3, #8]
 8000766:	4291      	cmp	r1, r2
 8000768:	f000 74e0 	and.w	r4, r0, #29360128	; 0x1c00000
 800076c:	d122      	bne.n	80007b4 <HAL_ADC_ConfigChannel+0x308>
 800076e:	0201      	lsls	r1, r0, #8
 8000770:	f53f af3d 	bmi.w	80005ee <HAL_ADC_ConfigChannel+0x142>
 8000774:	682a      	ldr	r2, [r5, #0]
 8000776:	492f      	ldr	r1, [pc, #188]	; (8000834 <HAL_ADC_ConfigChannel+0x388>)
 8000778:	428a      	cmp	r2, r1
 800077a:	d004      	beq.n	8000786 <HAL_ADC_ConfigChannel+0x2da>
 800077c:	f501 7100 	add.w	r1, r1, #512	; 0x200
 8000780:	428a      	cmp	r2, r1
 8000782:	f47f af34 	bne.w	80005ee <HAL_ADC_ConfigChannel+0x142>
 8000786:	689a      	ldr	r2, [r3, #8]
 8000788:	f022 72e0 	bic.w	r2, r2, #29360128	; 0x1c00000
 800078c:	4322      	orrs	r2, r4
 800078e:	f442 0200 	orr.w	r2, r2, #8388608	; 0x800000
 8000792:	609a      	str	r2, [r3, #8]
 8000794:	4b28      	ldr	r3, [pc, #160]	; (8000838 <HAL_ADC_ConfigChannel+0x38c>)
 8000796:	4a29      	ldr	r2, [pc, #164]	; (800083c <HAL_ADC_ConfigChannel+0x390>)
 8000798:	681b      	ldr	r3, [r3, #0]
 800079a:	fbb3 f2f2 	udiv	r2, r3, r2
 800079e:	230c      	movs	r3, #12
 80007a0:	fb02 3303 	mla	r3, r2, r3, r3
 80007a4:	9301      	str	r3, [sp, #4]
 80007a6:	9b01      	ldr	r3, [sp, #4]
 80007a8:	2b00      	cmp	r3, #0
 80007aa:	f43f af20 	beq.w	80005ee <HAL_ADC_ConfigChannel+0x142>
 80007ae:	9b01      	ldr	r3, [sp, #4]
 80007b0:	3b01      	subs	r3, #1
 80007b2:	e7f7      	b.n	80007a4 <HAL_ADC_ConfigChannel+0x2f8>
 80007b4:	4a22      	ldr	r2, [pc, #136]	; (8000840 <HAL_ADC_ConfigChannel+0x394>)
 80007b6:	4291      	cmp	r1, r2
 80007b8:	d113      	bne.n	80007e2 <HAL_ADC_ConfigChannel+0x336>
 80007ba:	01c2      	lsls	r2, r0, #7
 80007bc:	f53f af17 	bmi.w	80005ee <HAL_ADC_ConfigChannel+0x142>
 80007c0:	682a      	ldr	r2, [r5, #0]
 80007c2:	491c      	ldr	r1, [pc, #112]	; (8000834 <HAL_ADC_ConfigChannel+0x388>)
 80007c4:	428a      	cmp	r2, r1
 80007c6:	d004      	beq.n	80007d2 <HAL_ADC_ConfigChannel+0x326>
 80007c8:	f501 7100 	add.w	r1, r1, #512	; 0x200
 80007cc:	428a      	cmp	r2, r1
 80007ce:	f47f af0e 	bne.w	80005ee <HAL_ADC_ConfigChannel+0x142>
 80007d2:	689a      	ldr	r2, [r3, #8]
 80007d4:	f022 72e0 	bic.w	r2, r2, #29360128	; 0x1c00000
 80007d8:	4322      	orrs	r2, r4
 80007da:	f042 7280 	orr.w	r2, r2, #16777216	; 0x1000000
 80007de:	609a      	str	r2, [r3, #8]
 80007e0:	e705      	b.n	80005ee <HAL_ADC_ConfigChannel+0x142>
 80007e2:	4a18      	ldr	r2, [pc, #96]	; (8000844 <HAL_ADC_ConfigChannel+0x398>)
 80007e4:	4291      	cmp	r1, r2
 80007e6:	f47f af02 	bne.w	80005ee <HAL_ADC_ConfigChannel+0x142>
 80007ea:	f410 0080 	ands.w	r0, r0, #4194304	; 0x400000
 80007ee:	f47f aefe 	bne.w	80005ee <HAL_ADC_ConfigChannel+0x142>
 80007f2:	6829      	ldr	r1, [r5, #0]
 80007f4:	4a0f      	ldr	r2, [pc, #60]	; (8000834 <HAL_ADC_ConfigChannel+0x388>)
 80007f6:	4291      	cmp	r1, r2
 80007f8:	f47f aef9 	bne.w	80005ee <HAL_ADC_ConfigChannel+0x142>
 80007fc:	689a      	ldr	r2, [r3, #8]
 80007fe:	f022 72e0 	bic.w	r2, r2, #29360128	; 0x1c00000
 8000802:	4322      	orrs	r2, r4
 8000804:	f442 0280 	orr.w	r2, r2, #4194304	; 0x400000
 8000808:	609a      	str	r2, [r3, #8]
 800080a:	e6f1      	b.n	80005f0 <HAL_ADC_ConfigChannel+0x144>
 800080c:	6daa      	ldr	r2, [r5, #88]	; 0x58
 800080e:	f042 0220 	orr.w	r2, r2, #32
 8000812:	65aa      	str	r2, [r5, #88]	; 0x58
 8000814:	4618      	mov	r0, r3
 8000816:	e6eb      	b.n	80005f0 <HAL_ADC_ConfigChannel+0x144>
 8000818:	2002      	movs	r0, #2
 800081a:	e6ec      	b.n	80005f6 <HAL_ADC_ConfigChannel+0x14a>
 800081c:	03fff000 	.word	0x03fff000
 8000820:	0007ffff 	.word	0x0007ffff
 8000824:	407f0000 	.word	0x407f0000
 8000828:	80080000 	.word	0x80080000
 800082c:	50040300 	.word	0x50040300
 8000830:	c7520000 	.word	0xc7520000
 8000834:	50040000 	.word	0x50040000
 8000838:	2000011c 	.word	0x2000011c
 800083c:	00030d40 	.word	0x00030d40
 8000840:	cb840000 	.word	0xcb840000
 8000844:	80000001 	.word	0x80000001

08000848 <LL_ADC_REG_IsConversionOngoing>:
 8000848:	6880      	ldr	r0, [r0, #8]
 800084a:	f3c0 0080 	ubfx	r0, r0, #2, #1
 800084e:	4770      	bx	lr

08000850 <HAL_ADCEx_MultiModeConfigChannel>:
 8000850:	b5f0      	push	{r4, r5, r6, r7, lr}
 8000852:	f890 3054 	ldrb.w	r3, [r0, #84]	; 0x54
 8000856:	2b01      	cmp	r3, #1
 8000858:	b09b      	sub	sp, #108	; 0x6c
 800085a:	4602      	mov	r2, r0
 800085c:	d05a      	beq.n	8000914 <HAL_ADCEx_MultiModeConfigChannel+0xc4>
 800085e:	2301      	movs	r3, #1
 8000860:	f880 3054 	strb.w	r3, [r0, #84]	; 0x54
 8000864:	6817      	ldr	r7, [r2, #0]
 8000866:	4c2c      	ldr	r4, [pc, #176]	; (8000918 <HAL_ADCEx_MultiModeConfigChannel+0xc8>)
 8000868:	2000      	movs	r0, #0
 800086a:	42a7      	cmp	r7, r4
 800086c:	9016      	str	r0, [sp, #88]	; 0x58
 800086e:	9017      	str	r0, [sp, #92]	; 0x5c
 8000870:	d008      	beq.n	8000884 <HAL_ADCEx_MultiModeConfigChannel+0x34>
 8000872:	6d91      	ldr	r1, [r2, #88]	; 0x58
 8000874:	f882 0054 	strb.w	r0, [r2, #84]	; 0x54
 8000878:	f041 0120 	orr.w	r1, r1, #32
 800087c:	6591      	str	r1, [r2, #88]	; 0x58
 800087e:	4618      	mov	r0, r3
 8000880:	b01b      	add	sp, #108	; 0x6c
 8000882:	bdf0      	pop	{r4, r5, r6, r7, pc}
 8000884:	4e25      	ldr	r6, [pc, #148]	; (800091c <HAL_ADCEx_MultiModeConfigChannel+0xcc>)
 8000886:	4630      	mov	r0, r6
 8000888:	f7ff ffde 	bl	8000848 <LL_ADC_REG_IsConversionOngoing>
 800088c:	4604      	mov	r4, r0
 800088e:	6810      	ldr	r0, [r2, #0]
 8000890:	f7ff ffda 	bl	8000848 <LL_ADC_REG_IsConversionOngoing>
 8000894:	4320      	orrs	r0, r4
 8000896:	d138      	bne.n	800090a <HAL_ADCEx_MultiModeConfigChannel+0xba>
 8000898:	4c21      	ldr	r4, [pc, #132]	; (8000920 <HAL_ADCEx_MultiModeConfigChannel+0xd0>)
 800089a:	680d      	ldr	r5, [r1, #0]
 800089c:	68a3      	ldr	r3, [r4, #8]
 800089e:	f8df c084 	ldr.w	ip, [pc, #132]	; 8000924 <HAL_ADCEx_MultiModeConfigChannel+0xd4>
 80008a2:	f423 4360 	bic.w	r3, r3, #57344	; 0xe000
 80008a6:	b1fd      	cbz	r5, 80008e8 <HAL_ADCEx_MultiModeConfigChannel+0x98>
 80008a8:	6848      	ldr	r0, [r1, #4]
 80008aa:	4303      	orrs	r3, r0
 80008ac:	f892 0030 	ldrb.w	r0, [r2, #48]	; 0x30
 80008b0:	ea43 3340 	orr.w	r3, r3, r0, lsl #13
 80008b4:	60a3      	str	r3, [r4, #8]
 80008b6:	68bf      	ldr	r7, [r7, #8]
 80008b8:	68b3      	ldr	r3, [r6, #8]
 80008ba:	f8dc 0008 	ldr.w	r0, [ip, #8]
 80008be:	433b      	orrs	r3, r7
 80008c0:	4303      	orrs	r3, r0
 80008c2:	f013 0301 	ands.w	r3, r3, #1
 80008c6:	d004      	beq.n	80008d2 <HAL_ADCEx_MultiModeConfigChannel+0x82>
 80008c8:	2000      	movs	r0, #0
 80008ca:	2300      	movs	r3, #0
 80008cc:	f882 3054 	strb.w	r3, [r2, #84]	; 0x54
 80008d0:	e7d6      	b.n	8000880 <HAL_ADCEx_MultiModeConfigChannel+0x30>
 80008d2:	6889      	ldr	r1, [r1, #8]
 80008d4:	68a0      	ldr	r0, [r4, #8]
 80008d6:	430d      	orrs	r5, r1
 80008d8:	f420 6171 	bic.w	r1, r0, #3856	; 0xf10
 80008dc:	f021 010f 	bic.w	r1, r1, #15
 80008e0:	430d      	orrs	r5, r1
 80008e2:	60a5      	str	r5, [r4, #8]
 80008e4:	4618      	mov	r0, r3
 80008e6:	e7f0      	b.n	80008ca <HAL_ADCEx_MultiModeConfigChannel+0x7a>
 80008e8:	60a3      	str	r3, [r4, #8]
 80008ea:	68b9      	ldr	r1, [r7, #8]
 80008ec:	68b3      	ldr	r3, [r6, #8]
 80008ee:	f8dc 0008 	ldr.w	r0, [ip, #8]
 80008f2:	430b      	orrs	r3, r1
 80008f4:	4303      	orrs	r3, r0
 80008f6:	f013 0301 	ands.w	r3, r3, #1
 80008fa:	d1e5      	bne.n	80008c8 <HAL_ADCEx_MultiModeConfigChannel+0x78>
 80008fc:	68a1      	ldr	r1, [r4, #8]
 80008fe:	f421 6171 	bic.w	r1, r1, #3856	; 0xf10
 8000902:	f021 010f 	bic.w	r1, r1, #15
 8000906:	60a1      	str	r1, [r4, #8]
 8000908:	e7ec      	b.n	80008e4 <HAL_ADCEx_MultiModeConfigChannel+0x94>
 800090a:	6d91      	ldr	r1, [r2, #88]	; 0x58
 800090c:	f041 0120 	orr.w	r1, r1, #32
 8000910:	6591      	str	r1, [r2, #88]	; 0x58
 8000912:	e7e7      	b.n	80008e4 <HAL_ADCEx_MultiModeConfigChannel+0x94>
 8000914:	2002      	movs	r0, #2
 8000916:	e7b3      	b.n	8000880 <HAL_ADCEx_MultiModeConfigChannel+0x30>
 8000918:	50040000 	.word	0x50040000
 800091c:	50040100 	.word	0x50040100
 8000920:	50040300 	.word	0x50040300
 8000924:	50040200 	.word	0x50040200

08000928 <HAL_COMP_Init>:
 8000928:	b537      	push	{r0, r1, r2, r4, r5, lr}
 800092a:	2300      	movs	r3, #0
 800092c:	9300      	str	r3, [sp, #0]
 800092e:	4604      	mov	r4, r0
 8000930:	2800      	cmp	r0, #0
 8000932:	f000 8083 	beq.w	8000a3c <HAL_COMP_Init+0x114>
 8000936:	6803      	ldr	r3, [r0, #0]
 8000938:	681b      	ldr	r3, [r3, #0]
 800093a:	2b00      	cmp	r3, #0
 800093c:	db7e      	blt.n	8000a3c <HAL_COMP_Init+0x114>
 800093e:	f890 2025 	ldrb.w	r2, [r0, #37]	; 0x25
 8000942:	f002 03ff 	and.w	r3, r2, #255	; 0xff
 8000946:	b972      	cbnz	r2, 8000966 <HAL_COMP_Init+0x3e>
 8000948:	6283      	str	r3, [r0, #40]	; 0x28
 800094a:	f880 3024 	strb.w	r3, [r0, #36]	; 0x24
 800094e:	4b3d      	ldr	r3, [pc, #244]	; (8000a44 <HAL_COMP_Init+0x11c>)
 8000950:	6e1a      	ldr	r2, [r3, #96]	; 0x60
 8000952:	f042 0201 	orr.w	r2, r2, #1
 8000956:	661a      	str	r2, [r3, #96]	; 0x60
 8000958:	6e1b      	ldr	r3, [r3, #96]	; 0x60
 800095a:	f003 0301 	and.w	r3, r3, #1
 800095e:	9301      	str	r3, [sp, #4]
 8000960:	9b01      	ldr	r3, [sp, #4]
 8000962:	f006 f9df 	bl	8006d24 <HAL_COMP_MspInit>
 8000966:	e9d4 3103 	ldrd	r3, r1, [r4, #12]
 800096a:	430b      	orrs	r3, r1
 800096c:	69e1      	ldr	r1, [r4, #28]
 800096e:	6822      	ldr	r2, [r4, #0]
 8000970:	430b      	orrs	r3, r1
 8000972:	6961      	ldr	r1, [r4, #20]
 8000974:	6810      	ldr	r0, [r2, #0]
 8000976:	6815      	ldr	r5, [r2, #0]
 8000978:	430b      	orrs	r3, r1
 800097a:	69a1      	ldr	r1, [r4, #24]
 800097c:	430b      	orrs	r3, r1
 800097e:	68a1      	ldr	r1, [r4, #8]
 8000980:	430b      	orrs	r3, r1
 8000982:	4931      	ldr	r1, [pc, #196]	; (8000a48 <HAL_COMP_Init+0x120>)
 8000984:	4029      	ands	r1, r5
 8000986:	430b      	orrs	r3, r1
 8000988:	6013      	str	r3, [r2, #0]
 800098a:	6863      	ldr	r3, [r4, #4]
 800098c:	f5b3 7f00 	cmp.w	r3, #512	; 0x200
 8000990:	4b2e      	ldr	r3, [pc, #184]	; (8000a4c <HAL_COMP_Init+0x124>)
 8000992:	f8d3 1204 	ldr.w	r1, [r3, #516]	; 0x204
 8000996:	bf0c      	ite	eq
 8000998:	f441 7100 	orreq.w	r1, r1, #512	; 0x200
 800099c:	f421 7100 	bicne.w	r1, r1, #512	; 0x200
 80009a0:	f8c3 1204 	str.w	r1, [r3, #516]	; 0x204
 80009a4:	6813      	ldr	r3, [r2, #0]
 80009a6:	0219      	lsls	r1, r3, #8
 80009a8:	d414      	bmi.n	80009d4 <HAL_COMP_Init+0xac>
 80009aa:	4b29      	ldr	r3, [pc, #164]	; (8000a50 <HAL_COMP_Init+0x128>)
 80009ac:	6a21      	ldr	r1, [r4, #32]
 80009ae:	429a      	cmp	r2, r3
 80009b0:	bf0c      	ite	eq
 80009b2:	f44f 1200 	moveq.w	r2, #2097152	; 0x200000
 80009b6:	f44f 0280 	movne.w	r2, #4194304	; 0x400000
 80009ba:	f011 0f03 	tst.w	r1, #3
 80009be:	f503 7300 	add.w	r3, r3, #512	; 0x200
 80009c2:	d118      	bne.n	80009f6 <HAL_COMP_Init+0xce>
 80009c4:	6859      	ldr	r1, [r3, #4]
 80009c6:	ea21 0102 	bic.w	r1, r1, r2
 80009ca:	6059      	str	r1, [r3, #4]
 80009cc:	6819      	ldr	r1, [r3, #0]
 80009ce:	ea21 0202 	bic.w	r2, r1, r2
 80009d2:	e028      	b.n	8000a26 <HAL_COMP_Init+0xfe>
 80009d4:	0203      	lsls	r3, r0, #8
 80009d6:	d4e8      	bmi.n	80009aa <HAL_COMP_Init+0x82>
 80009d8:	4b1e      	ldr	r3, [pc, #120]	; (8000a54 <HAL_COMP_Init+0x12c>)
 80009da:	491f      	ldr	r1, [pc, #124]	; (8000a58 <HAL_COMP_Init+0x130>)
 80009dc:	681b      	ldr	r3, [r3, #0]
 80009de:	fbb3 f1f1 	udiv	r1, r3, r1
 80009e2:	2314      	movs	r3, #20
 80009e4:	fb01 3303 	mla	r3, r1, r3, r3
 80009e8:	9300      	str	r3, [sp, #0]
 80009ea:	9b00      	ldr	r3, [sp, #0]
 80009ec:	2b00      	cmp	r3, #0
 80009ee:	d0dc      	beq.n	80009aa <HAL_COMP_Init+0x82>
 80009f0:	9b00      	ldr	r3, [sp, #0]
 80009f2:	3b01      	subs	r3, #1
 80009f4:	e7f8      	b.n	80009e8 <HAL_COMP_Init+0xc0>
 80009f6:	6898      	ldr	r0, [r3, #8]
 80009f8:	06cd      	lsls	r5, r1, #27
 80009fa:	bf4c      	ite	mi
 80009fc:	4310      	orrmi	r0, r2
 80009fe:	4390      	bicpl	r0, r2
 8000a00:	6098      	str	r0, [r3, #8]
 8000a02:	68d8      	ldr	r0, [r3, #12]
 8000a04:	068d      	lsls	r5, r1, #26
 8000a06:	bf4c      	ite	mi
 8000a08:	4310      	orrmi	r0, r2
 8000a0a:	4390      	bicpl	r0, r2
 8000a0c:	60d8      	str	r0, [r3, #12]
 8000a0e:	615a      	str	r2, [r3, #20]
 8000a10:	6858      	ldr	r0, [r3, #4]
 8000a12:	078d      	lsls	r5, r1, #30
 8000a14:	bf4c      	ite	mi
 8000a16:	4310      	orrmi	r0, r2
 8000a18:	4390      	bicpl	r0, r2
 8000a1a:	6058      	str	r0, [r3, #4]
 8000a1c:	f011 0f01 	tst.w	r1, #1
 8000a20:	6819      	ldr	r1, [r3, #0]
 8000a22:	d0d4      	beq.n	80009ce <HAL_COMP_Init+0xa6>
 8000a24:	430a      	orrs	r2, r1
 8000a26:	601a      	str	r2, [r3, #0]
 8000a28:	f894 3025 	ldrb.w	r3, [r4, #37]	; 0x25
 8000a2c:	f003 00ff 	and.w	r0, r3, #255	; 0xff
 8000a30:	b933      	cbnz	r3, 8000a40 <HAL_COMP_Init+0x118>
 8000a32:	2301      	movs	r3, #1
 8000a34:	f884 3025 	strb.w	r3, [r4, #37]	; 0x25
 8000a38:	b003      	add	sp, #12
 8000a3a:	bd30      	pop	{r4, r5, pc}
 8000a3c:	2001      	movs	r0, #1
 8000a3e:	e7fb      	b.n	8000a38 <HAL_COMP_Init+0x110>
 8000a40:	2000      	movs	r0, #0
 8000a42:	e7f9      	b.n	8000a38 <HAL_COMP_Init+0x110>
 8000a44:	40021000 	.word	0x40021000
 8000a48:	ff207d03 	.word	0xff207d03
 8000a4c:	40010000 	.word	0x40010000
 8000a50:	40010200 	.word	0x40010200
 8000a54:	2000011c 	.word	0x2000011c
 8000a58:	00030d40 	.word	0x00030d40

08000a5c <HAL_NVIC_SetPriorityGrouping>:
 8000a5c:	4907      	ldr	r1, [pc, #28]	; (8000a7c <HAL_NVIC_SetPriorityGrouping+0x20>)
 8000a5e:	68ca      	ldr	r2, [r1, #12]
 8000a60:	f422 62e0 	bic.w	r2, r2, #1792	; 0x700
 8000a64:	0203      	lsls	r3, r0, #8
 8000a66:	0412      	lsls	r2, r2, #16
 8000a68:	f403 63e0 	and.w	r3, r3, #1792	; 0x700
 8000a6c:	0c12      	lsrs	r2, r2, #16
 8000a6e:	4313      	orrs	r3, r2
 8000a70:	f043 63bf 	orr.w	r3, r3, #100139008	; 0x5f80000
 8000a74:	f443 3300 	orr.w	r3, r3, #131072	; 0x20000
 8000a78:	60cb      	str	r3, [r1, #12]
 8000a7a:	4770      	bx	lr
 8000a7c:	e000ed00 	.word	0xe000ed00

08000a80 <HAL_NVIC_SetPriority>:
 8000a80:	4b16      	ldr	r3, [pc, #88]	; (8000adc <HAL_NVIC_SetPriority+0x5c>)
 8000a82:	b530      	push	{r4, r5, lr}
 8000a84:	68dc      	ldr	r4, [r3, #12]
 8000a86:	f3c4 2402 	ubfx	r4, r4, #8, #3
 8000a8a:	f1c4 0507 	rsb	r5, r4, #7
 8000a8e:	1d23      	adds	r3, r4, #4
 8000a90:	2d04      	cmp	r5, #4
 8000a92:	bf28      	it	cs
 8000a94:	2504      	movcs	r5, #4
 8000a96:	2b06      	cmp	r3, #6
 8000a98:	f04f 33ff 	mov.w	r3, #4294967295
 8000a9c:	bf8c      	ite	hi
 8000a9e:	3c03      	subhi	r4, #3
 8000aa0:	2400      	movls	r4, #0
 8000aa2:	fa03 f505 	lsl.w	r5, r3, r5
 8000aa6:	ea21 0105 	bic.w	r1, r1, r5
 8000aaa:	40a3      	lsls	r3, r4
 8000aac:	ea22 0203 	bic.w	r2, r2, r3
 8000ab0:	40a1      	lsls	r1, r4
 8000ab2:	2800      	cmp	r0, #0
 8000ab4:	ea41 0302 	orr.w	r3, r1, r2
 8000ab8:	bfac      	ite	ge
 8000aba:	f100 4060 	addge.w	r0, r0, #3758096384	; 0xe0000000
 8000abe:	4a08      	ldrlt	r2, [pc, #32]	; (8000ae0 <HAL_NVIC_SetPriority+0x60>)
 8000ac0:	ea4f 1303 	mov.w	r3, r3, lsl #4
 8000ac4:	bfb8      	it	lt
 8000ac6:	f000 000f 	andlt.w	r0, r0, #15
 8000aca:	b2db      	uxtb	r3, r3
 8000acc:	bfaa      	itet	ge
 8000ace:	f500 4061 	addge.w	r0, r0, #57600	; 0xe100
 8000ad2:	5413      	strblt	r3, [r2, r0]
 8000ad4:	f880 3300 	strbge.w	r3, [r0, #768]	; 0x300
 8000ad8:	bd30      	pop	{r4, r5, pc}
 8000ada:	bf00      	nop
 8000adc:	e000ed00 	.word	0xe000ed00
 8000ae0:	e000ed14 	.word	0xe000ed14

08000ae4 <HAL_NVIC_EnableIRQ>:
 8000ae4:	2800      	cmp	r0, #0
 8000ae6:	db08      	blt.n	8000afa <HAL_NVIC_EnableIRQ+0x16>
 8000ae8:	2301      	movs	r3, #1
 8000aea:	0942      	lsrs	r2, r0, #5
 8000aec:	f000 001f 	and.w	r0, r0, #31
 8000af0:	fa03 f000 	lsl.w	r0, r3, r0
 8000af4:	4b01      	ldr	r3, [pc, #4]	; (8000afc <HAL_NVIC_EnableIRQ+0x18>)
 8000af6:	f843 0022 	str.w	r0, [r3, r2, lsl #2]
 8000afa:	4770      	bx	lr
 8000afc:	e000e100 	.word	0xe000e100

08000b00 <HAL_DAC_Init>:
 8000b00:	b510      	push	{r4, lr}
 8000b02:	4604      	mov	r4, r0
 8000b04:	b168      	cbz	r0, 8000b22 <HAL_DAC_Init+0x22>
 8000b06:	7903      	ldrb	r3, [r0, #4]
 8000b08:	f003 02ff 	and.w	r2, r3, #255	; 0xff
 8000b0c:	b913      	cbnz	r3, 8000b14 <HAL_DAC_Init+0x14>
 8000b0e:	7142      	strb	r2, [r0, #5]
 8000b10:	f006 f92e 	bl	8006d70 <HAL_DAC_MspInit>
 8000b14:	2302      	movs	r3, #2
 8000b16:	7123      	strb	r3, [r4, #4]
 8000b18:	2000      	movs	r0, #0
 8000b1a:	2301      	movs	r3, #1
 8000b1c:	6120      	str	r0, [r4, #16]
 8000b1e:	7123      	strb	r3, [r4, #4]
 8000b20:	bd10      	pop	{r4, pc}
 8000b22:	2001      	movs	r0, #1
 8000b24:	e7fc      	b.n	8000b20 <HAL_DAC_Init+0x20>

08000b26 <HAL_DAC_ConfigChannel>:
 8000b26:	b5f8      	push	{r3, r4, r5, r6, r7, lr}
 8000b28:	4616      	mov	r6, r2
 8000b2a:	7942      	ldrb	r2, [r0, #5]
 8000b2c:	680b      	ldr	r3, [r1, #0]
 8000b2e:	2a01      	cmp	r2, #1
 8000b30:	4604      	mov	r4, r0
 8000b32:	460d      	mov	r5, r1
 8000b34:	f04f 0002 	mov.w	r0, #2
 8000b38:	d01e      	beq.n	8000b78 <HAL_DAC_ConfigChannel+0x52>
 8000b3a:	2201      	movs	r2, #1
 8000b3c:	2b04      	cmp	r3, #4
 8000b3e:	7162      	strb	r2, [r4, #5]
 8000b40:	7120      	strb	r0, [r4, #4]
 8000b42:	d13a      	bne.n	8000bba <HAL_DAC_ConfigChannel+0x94>
 8000b44:	f7ff fb78 	bl	8000238 <HAL_GetTick>
 8000b48:	4607      	mov	r7, r0
 8000b4a:	b1b6      	cbz	r6, 8000b7a <HAL_DAC_ConfigChannel+0x54>
 8000b4c:	6823      	ldr	r3, [r4, #0]
 8000b4e:	6b5b      	ldr	r3, [r3, #52]	; 0x34
 8000b50:	2b00      	cmp	r3, #0
 8000b52:	db6b      	blt.n	8000c2c <HAL_DAC_ConfigChannel+0x106>
 8000b54:	2001      	movs	r0, #1
 8000b56:	f7ff fb75 	bl	8000244 <HAL_Delay>
 8000b5a:	6823      	ldr	r3, [r4, #0]
 8000b5c:	69aa      	ldr	r2, [r5, #24]
 8000b5e:	645a      	str	r2, [r3, #68]	; 0x44
 8000b60:	e015      	b.n	8000b8e <HAL_DAC_ConfigChannel+0x68>
 8000b62:	f7ff fb69 	bl	8000238 <HAL_GetTick>
 8000b66:	1bc0      	subs	r0, r0, r7
 8000b68:	2801      	cmp	r0, #1
 8000b6a:	d906      	bls.n	8000b7a <HAL_DAC_ConfigChannel+0x54>
 8000b6c:	6923      	ldr	r3, [r4, #16]
 8000b6e:	2003      	movs	r0, #3
 8000b70:	f043 0308 	orr.w	r3, r3, #8
 8000b74:	6123      	str	r3, [r4, #16]
 8000b76:	7120      	strb	r0, [r4, #4]
 8000b78:	bdf8      	pop	{r3, r4, r5, r6, r7, pc}
 8000b7a:	6823      	ldr	r3, [r4, #0]
 8000b7c:	6b5b      	ldr	r3, [r3, #52]	; 0x34
 8000b7e:	041b      	lsls	r3, r3, #16
 8000b80:	d4ef      	bmi.n	8000b62 <HAL_DAC_ConfigChannel+0x3c>
 8000b82:	2001      	movs	r0, #1
 8000b84:	f7ff fb5e 	bl	8000244 <HAL_Delay>
 8000b88:	6823      	ldr	r3, [r4, #0]
 8000b8a:	69aa      	ldr	r2, [r5, #24]
 8000b8c:	641a      	str	r2, [r3, #64]	; 0x40
 8000b8e:	6821      	ldr	r1, [r4, #0]
 8000b90:	f006 0010 	and.w	r0, r6, #16
 8000b94:	6c8a      	ldr	r2, [r1, #72]	; 0x48
 8000b96:	f240 33ff 	movw	r3, #1023	; 0x3ff
 8000b9a:	4083      	lsls	r3, r0
 8000b9c:	ea22 0203 	bic.w	r2, r2, r3
 8000ba0:	69eb      	ldr	r3, [r5, #28]
 8000ba2:	4083      	lsls	r3, r0
 8000ba4:	431a      	orrs	r2, r3
 8000ba6:	648a      	str	r2, [r1, #72]	; 0x48
 8000ba8:	6ccb      	ldr	r3, [r1, #76]	; 0x4c
 8000baa:	22ff      	movs	r2, #255	; 0xff
 8000bac:	4082      	lsls	r2, r0
 8000bae:	ea23 0302 	bic.w	r3, r3, r2
 8000bb2:	6a2a      	ldr	r2, [r5, #32]
 8000bb4:	4082      	lsls	r2, r0
 8000bb6:	4313      	orrs	r3, r2
 8000bb8:	64cb      	str	r3, [r1, #76]	; 0x4c
 8000bba:	6929      	ldr	r1, [r5, #16]
 8000bbc:	6823      	ldr	r3, [r4, #0]
 8000bbe:	2901      	cmp	r1, #1
 8000bc0:	f006 0210 	and.w	r2, r6, #16
 8000bc4:	d108      	bne.n	8000bd8 <HAL_DAC_ConfigChannel+0xb2>
 8000bc6:	6b99      	ldr	r1, [r3, #56]	; 0x38
 8000bc8:	201f      	movs	r0, #31
 8000bca:	4090      	lsls	r0, r2
 8000bcc:	ea21 0000 	bic.w	r0, r1, r0
 8000bd0:	6969      	ldr	r1, [r5, #20]
 8000bd2:	4091      	lsls	r1, r2
 8000bd4:	4301      	orrs	r1, r0
 8000bd6:	6399      	str	r1, [r3, #56]	; 0x38
 8000bd8:	6bd9      	ldr	r1, [r3, #60]	; 0x3c
 8000bda:	68ae      	ldr	r6, [r5, #8]
 8000bdc:	2007      	movs	r0, #7
 8000bde:	4090      	lsls	r0, r2
 8000be0:	ea21 0000 	bic.w	r0, r1, r0
 8000be4:	6829      	ldr	r1, [r5, #0]
 8000be6:	4331      	orrs	r1, r6
 8000be8:	68ee      	ldr	r6, [r5, #12]
 8000bea:	4331      	orrs	r1, r6
 8000bec:	4091      	lsls	r1, r2
 8000bee:	4301      	orrs	r1, r0
 8000bf0:	63d9      	str	r1, [r3, #60]	; 0x3c
 8000bf2:	6819      	ldr	r1, [r3, #0]
 8000bf4:	f44f 4080 	mov.w	r0, #16384	; 0x4000
 8000bf8:	4090      	lsls	r0, r2
 8000bfa:	ea21 0100 	bic.w	r1, r1, r0
 8000bfe:	6019      	str	r1, [r3, #0]
 8000c00:	6819      	ldr	r1, [r3, #0]
 8000c02:	f640 70fc 	movw	r0, #4092	; 0xffc
 8000c06:	4090      	lsls	r0, r2
 8000c08:	ea21 0000 	bic.w	r0, r1, r0
 8000c0c:	6869      	ldr	r1, [r5, #4]
 8000c0e:	4091      	lsls	r1, r2
 8000c10:	4301      	orrs	r1, r0
 8000c12:	6019      	str	r1, [r3, #0]
 8000c14:	6819      	ldr	r1, [r3, #0]
 8000c16:	20c0      	movs	r0, #192	; 0xc0
 8000c18:	fa00 f202 	lsl.w	r2, r0, r2
 8000c1c:	ea21 0202 	bic.w	r2, r1, r2
 8000c20:	601a      	str	r2, [r3, #0]
 8000c22:	2000      	movs	r0, #0
 8000c24:	2301      	movs	r3, #1
 8000c26:	7123      	strb	r3, [r4, #4]
 8000c28:	7160      	strb	r0, [r4, #5]
 8000c2a:	e7a5      	b.n	8000b78 <HAL_DAC_ConfigChannel+0x52>
 8000c2c:	f7ff fb04 	bl	8000238 <HAL_GetTick>
 8000c30:	1bc0      	subs	r0, r0, r7
 8000c32:	2801      	cmp	r0, #1
 8000c34:	d98a      	bls.n	8000b4c <HAL_DAC_ConfigChannel+0x26>
 8000c36:	e799      	b.n	8000b6c <HAL_DAC_ConfigChannel+0x46>

08000c38 <HAL_GPIO_Init>:
 8000c38:	e92d 4ff7 	stmdb	sp!, {r0, r1, r2, r4, r5, r6, r7, r8, r9, sl, fp, lr}
 8000c3c:	f8df 91a8 	ldr.w	r9, [pc, #424]	; 8000de8 <HAL_GPIO_Init+0x1b0>
 8000c40:	4c67      	ldr	r4, [pc, #412]	; (8000de0 <HAL_GPIO_Init+0x1a8>)
 8000c42:	2300      	movs	r3, #0
 8000c44:	680a      	ldr	r2, [r1, #0]
 8000c46:	fa32 f503 	lsrs.w	r5, r2, r3
 8000c4a:	d102      	bne.n	8000c52 <HAL_GPIO_Init+0x1a>
 8000c4c:	b003      	add	sp, #12
 8000c4e:	e8bd 8ff0 	ldmia.w	sp!, {r4, r5, r6, r7, r8, r9, sl, fp, pc}
 8000c52:	f04f 0e01 	mov.w	lr, #1
 8000c56:	fa0e fe03 	lsl.w	lr, lr, r3
 8000c5a:	ea1e 0202 	ands.w	r2, lr, r2
 8000c5e:	f000 80ae 	beq.w	8000dbe <HAL_GPIO_Init+0x186>
 8000c62:	684e      	ldr	r6, [r1, #4]
 8000c64:	f006 0503 	and.w	r5, r6, #3
 8000c68:	ea4f 0843 	mov.w	r8, r3, lsl #1
 8000c6c:	f04f 0c03 	mov.w	ip, #3
 8000c70:	1e6f      	subs	r7, r5, #1
 8000c72:	fa0c fc08 	lsl.w	ip, ip, r8
 8000c76:	2f01      	cmp	r7, #1
 8000c78:	ea6f 0c0c 	mvn.w	ip, ip
 8000c7c:	d834      	bhi.n	8000ce8 <HAL_GPIO_Init+0xb0>
 8000c7e:	6887      	ldr	r7, [r0, #8]
 8000c80:	ea07 0a0c 	and.w	sl, r7, ip
 8000c84:	68cf      	ldr	r7, [r1, #12]
 8000c86:	fa07 f708 	lsl.w	r7, r7, r8
 8000c8a:	ea47 070a 	orr.w	r7, r7, sl
 8000c8e:	6087      	str	r7, [r0, #8]
 8000c90:	6847      	ldr	r7, [r0, #4]
 8000c92:	ea27 0e0e 	bic.w	lr, r7, lr
 8000c96:	f3c6 1700 	ubfx	r7, r6, #4, #1
 8000c9a:	409f      	lsls	r7, r3
 8000c9c:	ea47 070e 	orr.w	r7, r7, lr
 8000ca0:	6047      	str	r7, [r0, #4]
 8000ca2:	68c7      	ldr	r7, [r0, #12]
 8000ca4:	ea07 0e0c 	and.w	lr, r7, ip
 8000ca8:	688f      	ldr	r7, [r1, #8]
 8000caa:	fa07 f708 	lsl.w	r7, r7, r8
 8000cae:	ea47 070e 	orr.w	r7, r7, lr
 8000cb2:	2d02      	cmp	r5, #2
 8000cb4:	60c7      	str	r7, [r0, #12]
 8000cb6:	d119      	bne.n	8000cec <HAL_GPIO_Init+0xb4>
 8000cb8:	ea4f 0ad3 	mov.w	sl, r3, lsr #3
 8000cbc:	eb00 0a8a 	add.w	sl, r0, sl, lsl #2
 8000cc0:	f003 0b07 	and.w	fp, r3, #7
 8000cc4:	f8da 7020 	ldr.w	r7, [sl, #32]
 8000cc8:	ea4f 0b8b 	mov.w	fp, fp, lsl #2
 8000ccc:	f04f 0e0f 	mov.w	lr, #15
 8000cd0:	fa0e fe0b 	lsl.w	lr, lr, fp
 8000cd4:	ea27 0e0e 	bic.w	lr, r7, lr
 8000cd8:	690f      	ldr	r7, [r1, #16]
 8000cda:	fa07 f70b 	lsl.w	r7, r7, fp
 8000cde:	ea47 070e 	orr.w	r7, r7, lr
 8000ce2:	f8ca 7020 	str.w	r7, [sl, #32]
 8000ce6:	e001      	b.n	8000cec <HAL_GPIO_Init+0xb4>
 8000ce8:	2d03      	cmp	r5, #3
 8000cea:	d1da      	bne.n	8000ca2 <HAL_GPIO_Init+0x6a>
 8000cec:	6807      	ldr	r7, [r0, #0]
 8000cee:	fa05 f508 	lsl.w	r5, r5, r8
 8000cf2:	ea07 070c 	and.w	r7, r7, ip
 8000cf6:	432f      	orrs	r7, r5
 8000cf8:	f416 3f40 	tst.w	r6, #196608	; 0x30000
 8000cfc:	6007      	str	r7, [r0, #0]
 8000cfe:	d05e      	beq.n	8000dbe <HAL_GPIO_Init+0x186>
 8000d00:	f8d9 5060 	ldr.w	r5, [r9, #96]	; 0x60
 8000d04:	f045 0501 	orr.w	r5, r5, #1
 8000d08:	f8c9 5060 	str.w	r5, [r9, #96]	; 0x60
 8000d0c:	f8d9 5060 	ldr.w	r5, [r9, #96]	; 0x60
 8000d10:	f023 0703 	bic.w	r7, r3, #3
 8000d14:	f107 4780 	add.w	r7, r7, #1073741824	; 0x40000000
 8000d18:	f005 0501 	and.w	r5, r5, #1
 8000d1c:	f507 3780 	add.w	r7, r7, #65536	; 0x10000
 8000d20:	9501      	str	r5, [sp, #4]
 8000d22:	f003 0c03 	and.w	ip, r3, #3
 8000d26:	9d01      	ldr	r5, [sp, #4]
 8000d28:	f8d7 8008 	ldr.w	r8, [r7, #8]
 8000d2c:	f04f 0e0f 	mov.w	lr, #15
 8000d30:	ea4f 0c8c 	mov.w	ip, ip, lsl #2
 8000d34:	fa0e f50c 	lsl.w	r5, lr, ip
 8000d38:	f1b0 4f90 	cmp.w	r0, #1207959552	; 0x48000000
 8000d3c:	ea28 0e05 	bic.w	lr, r8, r5
 8000d40:	d03f      	beq.n	8000dc2 <HAL_GPIO_Init+0x18a>
 8000d42:	4d28      	ldr	r5, [pc, #160]	; (8000de4 <HAL_GPIO_Init+0x1ac>)
 8000d44:	42a8      	cmp	r0, r5
 8000d46:	d03e      	beq.n	8000dc6 <HAL_GPIO_Init+0x18e>
 8000d48:	f505 6580 	add.w	r5, r5, #1024	; 0x400
 8000d4c:	42a8      	cmp	r0, r5
 8000d4e:	d03c      	beq.n	8000dca <HAL_GPIO_Init+0x192>
 8000d50:	f505 6580 	add.w	r5, r5, #1024	; 0x400
 8000d54:	42a8      	cmp	r0, r5
 8000d56:	d03a      	beq.n	8000dce <HAL_GPIO_Init+0x196>
 8000d58:	f505 6580 	add.w	r5, r5, #1024	; 0x400
 8000d5c:	42a8      	cmp	r0, r5
 8000d5e:	d038      	beq.n	8000dd2 <HAL_GPIO_Init+0x19a>
 8000d60:	f505 6580 	add.w	r5, r5, #1024	; 0x400
 8000d64:	42a8      	cmp	r0, r5
 8000d66:	d036      	beq.n	8000dd6 <HAL_GPIO_Init+0x19e>
 8000d68:	f505 6580 	add.w	r5, r5, #1024	; 0x400
 8000d6c:	42a8      	cmp	r0, r5
 8000d6e:	d034      	beq.n	8000dda <HAL_GPIO_Init+0x1a2>
 8000d70:	f505 6580 	add.w	r5, r5, #1024	; 0x400
 8000d74:	42a8      	cmp	r0, r5
 8000d76:	bf0c      	ite	eq
 8000d78:	2507      	moveq	r5, #7
 8000d7a:	2508      	movne	r5, #8
 8000d7c:	fa05 f50c 	lsl.w	r5, r5, ip
 8000d80:	ea45 050e 	orr.w	r5, r5, lr
 8000d84:	60bd      	str	r5, [r7, #8]
 8000d86:	68a5      	ldr	r5, [r4, #8]
 8000d88:	43d7      	mvns	r7, r2
 8000d8a:	f416 1f80 	tst.w	r6, #1048576	; 0x100000
 8000d8e:	bf0c      	ite	eq
 8000d90:	403d      	andeq	r5, r7
 8000d92:	4315      	orrne	r5, r2
 8000d94:	60a5      	str	r5, [r4, #8]
 8000d96:	68e5      	ldr	r5, [r4, #12]
 8000d98:	f416 1f00 	tst.w	r6, #2097152	; 0x200000
 8000d9c:	bf0c      	ite	eq
 8000d9e:	403d      	andeq	r5, r7
 8000da0:	4315      	orrne	r5, r2
 8000da2:	60e5      	str	r5, [r4, #12]
 8000da4:	6865      	ldr	r5, [r4, #4]
 8000da6:	f416 3f00 	tst.w	r6, #131072	; 0x20000
 8000daa:	bf0c      	ite	eq
 8000dac:	403d      	andeq	r5, r7
 8000dae:	4315      	orrne	r5, r2
 8000db0:	6065      	str	r5, [r4, #4]
 8000db2:	6825      	ldr	r5, [r4, #0]
 8000db4:	03f6      	lsls	r6, r6, #15
 8000db6:	bf54      	ite	pl
 8000db8:	403d      	andpl	r5, r7
 8000dba:	4315      	orrmi	r5, r2
 8000dbc:	6025      	str	r5, [r4, #0]
 8000dbe:	3301      	adds	r3, #1
 8000dc0:	e740      	b.n	8000c44 <HAL_GPIO_Init+0xc>
 8000dc2:	2500      	movs	r5, #0
 8000dc4:	e7da      	b.n	8000d7c <HAL_GPIO_Init+0x144>
 8000dc6:	2501      	movs	r5, #1
 8000dc8:	e7d8      	b.n	8000d7c <HAL_GPIO_Init+0x144>
 8000dca:	2502      	movs	r5, #2
 8000dcc:	e7d6      	b.n	8000d7c <HAL_GPIO_Init+0x144>
 8000dce:	2503      	movs	r5, #3
 8000dd0:	e7d4      	b.n	8000d7c <HAL_GPIO_Init+0x144>
 8000dd2:	2504      	movs	r5, #4
 8000dd4:	e7d2      	b.n	8000d7c <HAL_GPIO_Init+0x144>
 8000dd6:	2505      	movs	r5, #5
 8000dd8:	e7d0      	b.n	8000d7c <HAL_GPIO_Init+0x144>
 8000dda:	2506      	movs	r5, #6
 8000ddc:	e7ce      	b.n	8000d7c <HAL_GPIO_Init+0x144>
 8000dde:	bf00      	nop
 8000de0:	40010400 	.word	0x40010400
 8000de4:	48000400 	.word	0x48000400
 8000de8:	40021000 	.word	0x40021000

08000dec <HAL_GPIO_WritePin>:
 8000dec:	b10a      	cbz	r2, 8000df2 <HAL_GPIO_WritePin+0x6>
 8000dee:	6181      	str	r1, [r0, #24]
 8000df0:	4770      	bx	lr
 8000df2:	6281      	str	r1, [r0, #40]	; 0x28
 8000df4:	4770      	bx	lr

08000df6 <LCD_WaitForSynchro>:
 8000df6:	b538      	push	{r3, r4, r5, lr}
 8000df8:	4604      	mov	r4, r0
 8000dfa:	f7ff fa1d 	bl	8000238 <HAL_GetTick>
 8000dfe:	4605      	mov	r5, r0
 8000e00:	6823      	ldr	r3, [r4, #0]
 8000e02:	689b      	ldr	r3, [r3, #8]
 8000e04:	069b      	lsls	r3, r3, #26
 8000e06:	d501      	bpl.n	8000e0c <LCD_WaitForSynchro+0x16>
 8000e08:	2000      	movs	r0, #0
 8000e0a:	e008      	b.n	8000e1e <LCD_WaitForSynchro+0x28>
 8000e0c:	f7ff fa14 	bl	8000238 <HAL_GetTick>
 8000e10:	1b40      	subs	r0, r0, r5
 8000e12:	f5b0 7f7a 	cmp.w	r0, #1000	; 0x3e8
 8000e16:	d9f3      	bls.n	8000e00 <LCD_WaitForSynchro+0xa>
 8000e18:	2301      	movs	r3, #1
 8000e1a:	63a3      	str	r3, [r4, #56]	; 0x38
 8000e1c:	2003      	movs	r0, #3
 8000e1e:	bd38      	pop	{r3, r4, r5, pc}

08000e20 <HAL_LCD_Init>:
 8000e20:	b570      	push	{r4, r5, r6, lr}
 8000e22:	4604      	mov	r4, r0
 8000e24:	2800      	cmp	r0, #0
 8000e26:	d074      	beq.n	8000f12 <HAL_LCD_Init+0xf2>
 8000e28:	f890 3035 	ldrb.w	r3, [r0, #53]	; 0x35
 8000e2c:	f003 02ff 	and.w	r2, r3, #255	; 0xff
 8000e30:	b91b      	cbnz	r3, 8000e3a <HAL_LCD_Init+0x1a>
 8000e32:	f880 2034 	strb.w	r2, [r0, #52]	; 0x34
 8000e36:	f005 ffc9 	bl	8006dcc <HAL_LCD_MspInit>
 8000e3a:	6822      	ldr	r2, [r4, #0]
 8000e3c:	2302      	movs	r3, #2
 8000e3e:	f884 3035 	strb.w	r3, [r4, #53]	; 0x35
 8000e42:	6813      	ldr	r3, [r2, #0]
 8000e44:	f023 0301 	bic.w	r3, r3, #1
 8000e48:	6013      	str	r3, [r2, #0]
 8000e4a:	2300      	movs	r3, #0
 8000e4c:	4618      	mov	r0, r3
 8000e4e:	1d19      	adds	r1, r3, #4
 8000e50:	eb02 0181 	add.w	r1, r2, r1, lsl #2
 8000e54:	3301      	adds	r3, #1
 8000e56:	2b10      	cmp	r3, #16
 8000e58:	6048      	str	r0, [r1, #4]
 8000e5a:	d1f8      	bne.n	8000e4e <HAL_LCD_Init+0x2e>
 8000e5c:	6893      	ldr	r3, [r2, #8]
 8000e5e:	f043 0304 	orr.w	r3, r3, #4
 8000e62:	6093      	str	r3, [r2, #8]
 8000e64:	e9d4 3001 	ldrd	r3, r0, [r4, #4]
 8000e68:	4303      	orrs	r3, r0
 8000e6a:	6aa0      	ldr	r0, [r4, #40]	; 0x28
 8000e6c:	6851      	ldr	r1, [r2, #4]
 8000e6e:	4303      	orrs	r3, r0
 8000e70:	6ae0      	ldr	r0, [r4, #44]	; 0x2c
 8000e72:	4303      	orrs	r3, r0
 8000e74:	69e0      	ldr	r0, [r4, #28]
 8000e76:	4303      	orrs	r3, r0
 8000e78:	6a20      	ldr	r0, [r4, #32]
 8000e7a:	4303      	orrs	r3, r0
 8000e7c:	69a0      	ldr	r0, [r4, #24]
 8000e7e:	f021 717f 	bic.w	r1, r1, #66846720	; 0x3fc0000
 8000e82:	4303      	orrs	r3, r0
 8000e84:	f421 317f 	bic.w	r1, r1, #261120	; 0x3fc00
 8000e88:	6a60      	ldr	r0, [r4, #36]	; 0x24
 8000e8a:	f421 717c 	bic.w	r1, r1, #1008	; 0x3f0
 8000e8e:	4303      	orrs	r3, r0
 8000e90:	f021 0101 	bic.w	r1, r1, #1
 8000e94:	430b      	orrs	r3, r1
 8000e96:	6053      	str	r3, [r2, #4]
 8000e98:	4620      	mov	r0, r4
 8000e9a:	f7ff ffac 	bl	8000df6 <LCD_WaitForSynchro>
 8000e9e:	4605      	mov	r5, r0
 8000ea0:	bb68      	cbnz	r0, 8000efe <HAL_LCD_Init+0xde>
 8000ea2:	e9d4 3003 	ldrd	r3, r0, [r4, #12]
 8000ea6:	6822      	ldr	r2, [r4, #0]
 8000ea8:	4303      	orrs	r3, r0
 8000eaa:	6960      	ldr	r0, [r4, #20]
 8000eac:	6811      	ldr	r1, [r2, #0]
 8000eae:	4303      	orrs	r3, r0
 8000eb0:	6b20      	ldr	r0, [r4, #48]	; 0x30
 8000eb2:	f021 01fe 	bic.w	r1, r1, #254	; 0xfe
 8000eb6:	4303      	orrs	r3, r0
 8000eb8:	430b      	orrs	r3, r1
 8000eba:	6013      	str	r3, [r2, #0]
 8000ebc:	6813      	ldr	r3, [r2, #0]
 8000ebe:	f043 0301 	orr.w	r3, r3, #1
 8000ec2:	6013      	str	r3, [r2, #0]
 8000ec4:	f7ff f9b8 	bl	8000238 <HAL_GetTick>
 8000ec8:	4606      	mov	r6, r0
 8000eca:	6823      	ldr	r3, [r4, #0]
 8000ecc:	689b      	ldr	r3, [r3, #8]
 8000ece:	07da      	lsls	r2, r3, #31
 8000ed0:	d50c      	bpl.n	8000eec <HAL_LCD_Init+0xcc>
 8000ed2:	f7ff f9b1 	bl	8000238 <HAL_GetTick>
 8000ed6:	4606      	mov	r6, r0
 8000ed8:	6823      	ldr	r3, [r4, #0]
 8000eda:	689b      	ldr	r3, [r3, #8]
 8000edc:	06db      	lsls	r3, r3, #27
 8000ede:	d510      	bpl.n	8000f02 <HAL_LCD_Init+0xe2>
 8000ee0:	2300      	movs	r3, #0
 8000ee2:	63a3      	str	r3, [r4, #56]	; 0x38
 8000ee4:	2301      	movs	r3, #1
 8000ee6:	f884 3035 	strb.w	r3, [r4, #53]	; 0x35
 8000eea:	e008      	b.n	8000efe <HAL_LCD_Init+0xde>
 8000eec:	f7ff f9a4 	bl	8000238 <HAL_GetTick>
 8000ef0:	1b80      	subs	r0, r0, r6
 8000ef2:	f5b0 7f7a 	cmp.w	r0, #1000	; 0x3e8
 8000ef6:	d9e8      	bls.n	8000eca <HAL_LCD_Init+0xaa>
 8000ef8:	2308      	movs	r3, #8
 8000efa:	63a3      	str	r3, [r4, #56]	; 0x38
 8000efc:	2503      	movs	r5, #3
 8000efe:	4628      	mov	r0, r5
 8000f00:	bd70      	pop	{r4, r5, r6, pc}
 8000f02:	f7ff f999 	bl	8000238 <HAL_GetTick>
 8000f06:	1b80      	subs	r0, r0, r6
 8000f08:	f5b0 7f7a 	cmp.w	r0, #1000	; 0x3e8
 8000f0c:	d9e4      	bls.n	8000ed8 <HAL_LCD_Init+0xb8>
 8000f0e:	2310      	movs	r3, #16
 8000f10:	e7f3      	b.n	8000efa <HAL_LCD_Init+0xda>
 8000f12:	2501      	movs	r5, #1
 8000f14:	e7f3      	b.n	8000efe <HAL_LCD_Init+0xde>
	...

08000f18 <HAL_OPAMP_Init>:
 8000f18:	b538      	push	{r3, r4, r5, lr}
 8000f1a:	4604      	mov	r4, r0
 8000f1c:	2800      	cmp	r0, #0
 8000f1e:	d071      	beq.n	8001004 <HAL_OPAMP_Init+0xec>
 8000f20:	f890 3032 	ldrb.w	r3, [r0, #50]	; 0x32
 8000f24:	2b05      	cmp	r3, #5
 8000f26:	d06d      	beq.n	8001004 <HAL_OPAMP_Init+0xec>
 8000f28:	f890 3032 	ldrb.w	r3, [r0, #50]	; 0x32
 8000f2c:	2b02      	cmp	r3, #2
 8000f2e:	d069      	beq.n	8001004 <HAL_OPAMP_Init+0xec>
 8000f30:	f890 3032 	ldrb.w	r3, [r0, #50]	; 0x32
 8000f34:	f003 02ff 	and.w	r2, r3, #255	; 0xff
 8000f38:	b90b      	cbnz	r3, 8000f3e <HAL_OPAMP_Init+0x26>
 8000f3a:	f880 2031 	strb.w	r2, [r0, #49]	; 0x31
 8000f3e:	4620      	mov	r0, r4
 8000f40:	f005 ffb6 	bl	8006eb0 <HAL_OPAMP_MspInit>
 8000f44:	6822      	ldr	r2, [r4, #0]
 8000f46:	69e1      	ldr	r1, [r4, #28]
 8000f48:	6813      	ldr	r3, [r2, #0]
 8000f4a:	f423 5380 	bic.w	r3, r3, #4096	; 0x1000
 8000f4e:	6013      	str	r3, [r2, #0]
 8000f50:	68e3      	ldr	r3, [r4, #12]
 8000f52:	2b08      	cmp	r3, #8
 8000f54:	d111      	bne.n	8000f7a <HAL_OPAMP_Init+0x62>
 8000f56:	6810      	ldr	r0, [r2, #0]
 8000f58:	68a3      	ldr	r3, [r4, #8]
 8000f5a:	69a5      	ldr	r5, [r4, #24]
 8000f5c:	f420 408e 	bic.w	r0, r0, #18176	; 0x4700
 8000f60:	f020 003e 	bic.w	r0, r0, #62	; 0x3e
 8000f64:	432b      	orrs	r3, r5
 8000f66:	4303      	orrs	r3, r0
 8000f68:	6920      	ldr	r0, [r4, #16]
 8000f6a:	4303      	orrs	r3, r0
 8000f6c:	6960      	ldr	r0, [r4, #20]
 8000f6e:	4303      	orrs	r3, r0
 8000f70:	430b      	orrs	r3, r1
 8000f72:	f043 0308 	orr.w	r3, r3, #8
 8000f76:	6013      	str	r3, [r2, #0]
 8000f78:	e002      	b.n	8000f80 <HAL_OPAMP_Init+0x68>
 8000f7a:	2b0c      	cmp	r3, #12
 8000f7c:	d01f      	beq.n	8000fbe <HAL_OPAMP_Init+0xa6>
 8000f7e:	b35b      	cbz	r3, 8000fd8 <HAL_OPAMP_Init+0xc0>
 8000f80:	f5b1 4f80 	cmp.w	r1, #16384	; 0x4000
 8000f84:	d10b      	bne.n	8000f9e <HAL_OPAMP_Init+0x86>
 8000f86:	68a3      	ldr	r3, [r4, #8]
 8000f88:	4820      	ldr	r0, [pc, #128]	; (800100c <HAL_OPAMP_Init+0xf4>)
 8000f8a:	2b02      	cmp	r3, #2
 8000f8c:	d031      	beq.n	8000ff2 <HAL_OPAMP_Init+0xda>
 8000f8e:	e9d4 5108 	ldrd	r5, r1, [r4, #32]
 8000f92:	6853      	ldr	r3, [r2, #4]
 8000f94:	ea41 2105 	orr.w	r1, r1, r5, lsl #8
 8000f98:	4003      	ands	r3, r0
 8000f9a:	4319      	orrs	r1, r3
 8000f9c:	6051      	str	r1, [r2, #4]
 8000f9e:	4a1c      	ldr	r2, [pc, #112]	; (8001010 <HAL_OPAMP_Init+0xf8>)
 8000fa0:	6861      	ldr	r1, [r4, #4]
 8000fa2:	6813      	ldr	r3, [r2, #0]
 8000fa4:	f023 4300 	bic.w	r3, r3, #2147483648	; 0x80000000
 8000fa8:	430b      	orrs	r3, r1
 8000faa:	6013      	str	r3, [r2, #0]
 8000fac:	f894 3032 	ldrb.w	r3, [r4, #50]	; 0x32
 8000fb0:	f003 00ff 	and.w	r0, r3, #255	; 0xff
 8000fb4:	bb43      	cbnz	r3, 8001008 <HAL_OPAMP_Init+0xf0>
 8000fb6:	2301      	movs	r3, #1
 8000fb8:	f884 3032 	strb.w	r3, [r4, #50]	; 0x32
 8000fbc:	bd38      	pop	{r3, r4, r5, pc}
 8000fbe:	6810      	ldr	r0, [r2, #0]
 8000fc0:	68a3      	ldr	r3, [r4, #8]
 8000fc2:	f420 4088 	bic.w	r0, r0, #17408	; 0x4400
 8000fc6:	f020 000e 	bic.w	r0, r0, #14
 8000fca:	430b      	orrs	r3, r1
 8000fcc:	4303      	orrs	r3, r0
 8000fce:	6960      	ldr	r0, [r4, #20]
 8000fd0:	4303      	orrs	r3, r0
 8000fd2:	f043 030c 	orr.w	r3, r3, #12
 8000fd6:	e7ce      	b.n	8000f76 <HAL_OPAMP_Init+0x5e>
 8000fd8:	68a3      	ldr	r3, [r4, #8]
 8000fda:	6925      	ldr	r5, [r4, #16]
 8000fdc:	6810      	ldr	r0, [r2, #0]
 8000fde:	430b      	orrs	r3, r1
 8000fe0:	432b      	orrs	r3, r5
 8000fe2:	6965      	ldr	r5, [r4, #20]
 8000fe4:	f420 408e 	bic.w	r0, r0, #18176	; 0x4700
 8000fe8:	432b      	orrs	r3, r5
 8000fea:	f020 000e 	bic.w	r0, r0, #14
 8000fee:	4303      	orrs	r3, r0
 8000ff0:	e7c1      	b.n	8000f76 <HAL_OPAMP_Init+0x5e>
 8000ff2:	e9d4 530a 	ldrd	r5, r3, [r4, #40]	; 0x28
 8000ff6:	6891      	ldr	r1, [r2, #8]
 8000ff8:	ea43 2305 	orr.w	r3, r3, r5, lsl #8
 8000ffc:	4001      	ands	r1, r0
 8000ffe:	430b      	orrs	r3, r1
 8001000:	6093      	str	r3, [r2, #8]
 8001002:	e7cc      	b.n	8000f9e <HAL_OPAMP_Init+0x86>
 8001004:	2001      	movs	r0, #1
 8001006:	e7d9      	b.n	8000fbc <HAL_OPAMP_Init+0xa4>
 8001008:	2000      	movs	r0, #0
 800100a:	e7d7      	b.n	8000fbc <HAL_OPAMP_Init+0xa4>
 800100c:	ffffe0e0 	.word	0xffffe0e0
 8001010:	40007800 	.word	0x40007800

08001014 <HAL_PCD_Init>:
 8001014:	b5f0      	push	{r4, r5, r6, r7, lr}
 8001016:	4604      	mov	r4, r0
 8001018:	b08b      	sub	sp, #44	; 0x2c
 800101a:	b360      	cbz	r0, 8001076 <HAL_PCD_Init+0x62>
 800101c:	f890 33bd 	ldrb.w	r3, [r0, #957]	; 0x3bd
 8001020:	6805      	ldr	r5, [r0, #0]
 8001022:	f003 02ff 	and.w	r2, r3, #255	; 0xff
 8001026:	b91b      	cbnz	r3, 8001030 <HAL_PCD_Init+0x1c>
 8001028:	f880 23bc 	strb.w	r2, [r0, #956]	; 0x3bc
 800102c:	f006 f8c2 	bl	80071b4 <HAL_PCD_MspInit>
 8001030:	2303      	movs	r3, #3
 8001032:	f884 33bd 	strb.w	r3, [r4, #957]	; 0x3bd
 8001036:	6beb      	ldr	r3, [r5, #60]	; 0x3c
 8001038:	4625      	mov	r5, r4
 800103a:	f413 7380 	ands.w	r3, r3, #256	; 0x100
 800103e:	f855 0b10 	ldr.w	r0, [r5], #16
 8001042:	bf08      	it	eq
 8001044:	6123      	streq	r3, [r4, #16]
 8001046:	f001 ff21 	bl	8002e8c <USB_DisableGlobalInt>
 800104a:	cd0f      	ldmia	r5!, {r0, r1, r2, r3}
 800104c:	466e      	mov	r6, sp
 800104e:	c60f      	stmia	r6!, {r0, r1, r2, r3}
 8001050:	cd0f      	ldmia	r5!, {r0, r1, r2, r3}
 8001052:	c60f      	stmia	r6!, {r0, r1, r2, r3}
 8001054:	e895 0003 	ldmia.w	r5, {r0, r1}
 8001058:	e886 0003 	stmia.w	r6, {r0, r1}
 800105c:	4625      	mov	r5, r4
 800105e:	1d27      	adds	r7, r4, #4
 8001060:	e897 000e 	ldmia.w	r7, {r1, r2, r3}
 8001064:	f855 0b10 	ldr.w	r0, [r5], #16
 8001068:	f001 fe62 	bl	8002d30 <USB_CoreInit>
 800106c:	4606      	mov	r6, r0
 800106e:	b120      	cbz	r0, 800107a <HAL_PCD_Init+0x66>
 8001070:	2302      	movs	r3, #2
 8001072:	f884 33bd 	strb.w	r3, [r4, #957]	; 0x3bd
 8001076:	2501      	movs	r5, #1
 8001078:	e054      	b.n	8001124 <HAL_PCD_Init+0x110>
 800107a:	4601      	mov	r1, r0
 800107c:	6820      	ldr	r0, [r4, #0]
 800107e:	f001 ff0b 	bl	8002e98 <USB_SetCurrentMode>
 8001082:	4630      	mov	r0, r6
 8001084:	f8d4 c004 	ldr.w	ip, [r4, #4]
 8001088:	261c      	movs	r6, #28
 800108a:	f04f 0e01 	mov.w	lr, #1
 800108e:	4601      	mov	r1, r0
 8001090:	b2c2      	uxtb	r2, r0
 8001092:	4594      	cmp	ip, r2
 8001094:	f100 0001 	add.w	r0, r0, #1
 8001098:	d81c      	bhi.n	80010d4 <HAL_PCD_Init+0xc0>
 800109a:	2300      	movs	r3, #0
 800109c:	261c      	movs	r6, #28
 800109e:	4619      	mov	r1, r3
 80010a0:	b2d8      	uxtb	r0, r3
 80010a2:	4584      	cmp	ip, r0
 80010a4:	f103 0301 	add.w	r3, r3, #1
 80010a8:	d822      	bhi.n	80010f0 <HAL_PCD_Init+0xdc>
 80010aa:	cd0f      	ldmia	r5!, {r0, r1, r2, r3}
 80010ac:	466e      	mov	r6, sp
 80010ae:	c60f      	stmia	r6!, {r0, r1, r2, r3}
 80010b0:	cd0f      	ldmia	r5!, {r0, r1, r2, r3}
 80010b2:	c60f      	stmia	r6!, {r0, r1, r2, r3}
 80010b4:	e895 0003 	ldmia.w	r5, {r0, r1}
 80010b8:	e886 0003 	stmia.w	r6, {r0, r1}
 80010bc:	e897 000e 	ldmia.w	r7, {r1, r2, r3}
 80010c0:	6820      	ldr	r0, [r4, #0]
 80010c2:	f001 ff67 	bl	8002f94 <USB_DevInit>
 80010c6:	2301      	movs	r3, #1
 80010c8:	4605      	mov	r5, r0
 80010ca:	b1f0      	cbz	r0, 800110a <HAL_PCD_Init+0xf6>
 80010cc:	2202      	movs	r2, #2
 80010ce:	f884 23bd 	strb.w	r2, [r4, #957]	; 0x3bd
 80010d2:	e7d0      	b.n	8001076 <HAL_PCD_Init+0x62>
 80010d4:	fb06 4302 	mla	r3, r6, r2, r4
 80010d8:	e9c3 1111 	strd	r1, r1, [r3, #68]	; 0x44
 80010dc:	f883 e03d 	strb.w	lr, [r3, #61]	; 0x3d
 80010e0:	f883 203c 	strb.w	r2, [r3, #60]	; 0x3c
 80010e4:	f8a3 2042 	strh.w	r2, [r3, #66]	; 0x42
 80010e8:	f883 103f 	strb.w	r1, [r3, #63]	; 0x3f
 80010ec:	6519      	str	r1, [r3, #80]	; 0x50
 80010ee:	e7cf      	b.n	8001090 <HAL_PCD_Init+0x7c>
 80010f0:	fb06 4200 	mla	r2, r6, r0, r4
 80010f4:	e9c2 1181 	strd	r1, r1, [r2, #516]	; 0x204
 80010f8:	f882 11fd 	strb.w	r1, [r2, #509]	; 0x1fd
 80010fc:	f882 01fc 	strb.w	r0, [r2, #508]	; 0x1fc
 8001100:	f882 11ff 	strb.w	r1, [r2, #511]	; 0x1ff
 8001104:	f8c2 1210 	str.w	r1, [r2, #528]	; 0x210
 8001108:	e7ca      	b.n	80010a0 <HAL_PCD_Init+0x8c>
 800110a:	f884 0038 	strb.w	r0, [r4, #56]	; 0x38
 800110e:	f884 33bd 	strb.w	r3, [r4, #957]	; 0x3bd
 8001112:	6a63      	ldr	r3, [r4, #36]	; 0x24
 8001114:	2b01      	cmp	r3, #1
 8001116:	d102      	bne.n	800111e <HAL_PCD_Init+0x10a>
 8001118:	4620      	mov	r0, r4
 800111a:	f000 fbe2 	bl	80018e2 <HAL_PCDEx_ActivateLPM>
 800111e:	6820      	ldr	r0, [r4, #0]
 8001120:	f002 fa36 	bl	8003590 <USB_DevDisconnect>
 8001124:	4628      	mov	r0, r5
 8001126:	b00b      	add	sp, #44	; 0x2c
 8001128:	bdf0      	pop	{r4, r5, r6, r7, pc}

0800112a <HAL_PCD_Start>:
 800112a:	b510      	push	{r4, lr}
 800112c:	4604      	mov	r4, r0
 800112e:	6800      	ldr	r0, [r0, #0]
 8001130:	f894 33bc 	ldrb.w	r3, [r4, #956]	; 0x3bc
 8001134:	2b01      	cmp	r3, #1
 8001136:	d012      	beq.n	800115e <HAL_PCD_Start+0x34>
 8001138:	2301      	movs	r3, #1
 800113a:	f884 33bc 	strb.w	r3, [r4, #956]	; 0x3bc
 800113e:	6aa3      	ldr	r3, [r4, #40]	; 0x28
 8001140:	2b01      	cmp	r3, #1
 8001142:	bf02      	ittt	eq
 8001144:	6b83      	ldreq	r3, [r0, #56]	; 0x38
 8001146:	f443 3380 	orreq.w	r3, r3, #65536	; 0x10000
 800114a:	6383      	streq	r3, [r0, #56]	; 0x38
 800114c:	f001 fe98 	bl	8002e80 <USB_EnableGlobalInt>
 8001150:	6820      	ldr	r0, [r4, #0]
 8001152:	f002 fa0f 	bl	8003574 <USB_DevConnect>
 8001156:	2000      	movs	r0, #0
 8001158:	f884 03bc 	strb.w	r0, [r4, #956]	; 0x3bc
 800115c:	bd10      	pop	{r4, pc}
 800115e:	2002      	movs	r0, #2
 8001160:	e7fc      	b.n	800115c <HAL_PCD_Start+0x32>
	...

08001164 <HAL_PCD_IRQHandler>:
 8001164:	e92d 4ff0 	stmdb	sp!, {r4, r5, r6, r7, r8, r9, sl, fp, lr}
 8001168:	6805      	ldr	r5, [r0, #0]
 800116a:	b085      	sub	sp, #20
 800116c:	4604      	mov	r4, r0
 800116e:	4628      	mov	r0, r5
 8001170:	f002 fa4b 	bl	800360a <USB_GetMode>
 8001174:	9000      	str	r0, [sp, #0]
 8001176:	2800      	cmp	r0, #0
 8001178:	f040 813d 	bne.w	80013f6 <HAL_PCD_IRQHandler+0x292>
 800117c:	6820      	ldr	r0, [r4, #0]
 800117e:	f002 fa15 	bl	80035ac <USB_ReadInterrupts>
 8001182:	2800      	cmp	r0, #0
 8001184:	f000 8137 	beq.w	80013f6 <HAL_PCD_IRQHandler+0x292>
 8001188:	6820      	ldr	r0, [r4, #0]
 800118a:	f002 fa0f 	bl	80035ac <USB_ReadInterrupts>
 800118e:	0786      	lsls	r6, r0, #30
 8001190:	bf48      	it	mi
 8001192:	6822      	ldrmi	r2, [r4, #0]
 8001194:	6820      	ldr	r0, [r4, #0]
 8001196:	bf42      	ittt	mi
 8001198:	6953      	ldrmi	r3, [r2, #20]
 800119a:	f003 0302 	andmi.w	r3, r3, #2
 800119e:	6153      	strmi	r3, [r2, #20]
 80011a0:	f002 fa04 	bl	80035ac <USB_ReadInterrupts>
 80011a4:	06c0      	lsls	r0, r0, #27
 80011a6:	d52a      	bpl.n	80011fe <HAL_PCD_IRQHandler+0x9a>
 80011a8:	6822      	ldr	r2, [r4, #0]
 80011aa:	6993      	ldr	r3, [r2, #24]
 80011ac:	f023 0310 	bic.w	r3, r3, #16
 80011b0:	6193      	str	r3, [r2, #24]
 80011b2:	6a2f      	ldr	r7, [r5, #32]
 80011b4:	f3c7 4343 	ubfx	r3, r7, #17, #4
 80011b8:	2b02      	cmp	r3, #2
 80011ba:	f007 060f 	and.w	r6, r7, #15
 80011be:	f040 811d 	bne.w	80013fc <HAL_PCD_IRQHandler+0x298>
 80011c2:	f647 73f0 	movw	r3, #32752	; 0x7ff0
 80011c6:	421f      	tst	r7, r3
 80011c8:	d014      	beq.n	80011f4 <HAL_PCD_IRQHandler+0x90>
 80011ca:	231c      	movs	r3, #28
 80011cc:	fb03 4606 	mla	r6, r3, r6, r4
 80011d0:	f3c7 180a 	ubfx	r8, r7, #4, #11
 80011d4:	4642      	mov	r2, r8
 80011d6:	f8d6 1208 	ldr.w	r1, [r6, #520]	; 0x208
 80011da:	4628      	mov	r0, r5
 80011dc:	f002 f946 	bl	800346c <USB_ReadPacket>
 80011e0:	f8d6 2208 	ldr.w	r2, [r6, #520]	; 0x208
 80011e4:	f8d6 3214 	ldr.w	r3, [r6, #532]	; 0x214
 80011e8:	4442      	add	r2, r8
 80011ea:	4443      	add	r3, r8
 80011ec:	f8c6 2208 	str.w	r2, [r6, #520]	; 0x208
 80011f0:	f8c6 3214 	str.w	r3, [r6, #532]	; 0x214
 80011f4:	6822      	ldr	r2, [r4, #0]
 80011f6:	6993      	ldr	r3, [r2, #24]
 80011f8:	f043 0310 	orr.w	r3, r3, #16
 80011fc:	6193      	str	r3, [r2, #24]
 80011fe:	6820      	ldr	r0, [r4, #0]
 8001200:	f002 f9d4 	bl	80035ac <USB_ReadInterrupts>
 8001204:	0301      	lsls	r1, r0, #12
 8001206:	f100 810d 	bmi.w	8001424 <HAL_PCD_IRQHandler+0x2c0>
 800120a:	6820      	ldr	r0, [r4, #0]
 800120c:	f002 f9ce 	bl	80035ac <USB_ReadInterrupts>
 8001210:	0342      	lsls	r2, r0, #13
 8001212:	d50c      	bpl.n	800122e <HAL_PCD_IRQHandler+0xca>
 8001214:	6820      	ldr	r0, [r4, #0]
 8001216:	f002 f9d5 	bl	80035c4 <USB_ReadDevAllInEpInterrupt>
 800121a:	4626      	mov	r6, r4
 800121c:	9001      	str	r0, [sp, #4]
 800121e:	f505 6910 	add.w	r9, r5, #2304	; 0x900
 8001222:	f04f 0800 	mov.w	r8, #0
 8001226:	9b01      	ldr	r3, [sp, #4]
 8001228:	2b00      	cmp	r3, #0
 800122a:	f040 815d 	bne.w	80014e8 <HAL_PCD_IRQHandler+0x384>
 800122e:	6820      	ldr	r0, [r4, #0]
 8001230:	f002 f9bc 	bl	80035ac <USB_ReadInterrupts>
 8001234:	2800      	cmp	r0, #0
 8001236:	da15      	bge.n	8001264 <HAL_PCD_IRQHandler+0x100>
 8001238:	f8d5 3804 	ldr.w	r3, [r5, #2052]	; 0x804
 800123c:	f023 0301 	bic.w	r3, r3, #1
 8001240:	f8c5 3804 	str.w	r3, [r5, #2052]	; 0x804
 8001244:	f894 33f4 	ldrb.w	r3, [r4, #1012]	; 0x3f4
 8001248:	2b01      	cmp	r3, #1
 800124a:	f040 81cd 	bne.w	80015e8 <HAL_PCD_IRQHandler+0x484>
 800124e:	2100      	movs	r1, #0
 8001250:	f884 13f4 	strb.w	r1, [r4, #1012]	; 0x3f4
 8001254:	4620      	mov	r0, r4
 8001256:	f000 fb57 	bl	8001908 <HAL_PCDEx_LPM_Callback>
 800125a:	6822      	ldr	r2, [r4, #0]
 800125c:	6953      	ldr	r3, [r2, #20]
 800125e:	f003 4300 	and.w	r3, r3, #2147483648	; 0x80000000
 8001262:	6153      	str	r3, [r2, #20]
 8001264:	6820      	ldr	r0, [r4, #0]
 8001266:	f002 f9a1 	bl	80035ac <USB_ReadInterrupts>
 800126a:	0500      	lsls	r0, r0, #20
 800126c:	d50b      	bpl.n	8001286 <HAL_PCD_IRQHandler+0x122>
 800126e:	f8d5 3808 	ldr.w	r3, [r5, #2056]	; 0x808
 8001272:	07d9      	lsls	r1, r3, #31
 8001274:	d502      	bpl.n	800127c <HAL_PCD_IRQHandler+0x118>
 8001276:	4620      	mov	r0, r4
 8001278:	f006 f828 	bl	80072cc <HAL_PCD_SuspendCallback>
 800127c:	6822      	ldr	r2, [r4, #0]
 800127e:	6953      	ldr	r3, [r2, #20]
 8001280:	f403 6300 	and.w	r3, r3, #2048	; 0x800
 8001284:	6153      	str	r3, [r2, #20]
 8001286:	6820      	ldr	r0, [r4, #0]
 8001288:	f002 f990 	bl	80035ac <USB_ReadInterrupts>
 800128c:	0102      	lsls	r2, r0, #4
 800128e:	d514      	bpl.n	80012ba <HAL_PCD_IRQHandler+0x156>
 8001290:	6823      	ldr	r3, [r4, #0]
 8001292:	695a      	ldr	r2, [r3, #20]
 8001294:	f002 6200 	and.w	r2, r2, #134217728	; 0x8000000
 8001298:	615a      	str	r2, [r3, #20]
 800129a:	f894 23f4 	ldrb.w	r2, [r4, #1012]	; 0x3f4
 800129e:	2a00      	cmp	r2, #0
 80012a0:	f040 81a6 	bne.w	80015f0 <HAL_PCD_IRQHandler+0x48c>
 80012a4:	2101      	movs	r1, #1
 80012a6:	f884 13f4 	strb.w	r1, [r4, #1012]	; 0x3f4
 80012aa:	6d5b      	ldr	r3, [r3, #84]	; 0x54
 80012ac:	f3c3 0383 	ubfx	r3, r3, #2, #4
 80012b0:	f8c4 33f8 	str.w	r3, [r4, #1016]	; 0x3f8
 80012b4:	4620      	mov	r0, r4
 80012b6:	f000 fb27 	bl	8001908 <HAL_PCDEx_LPM_Callback>
 80012ba:	6820      	ldr	r0, [r4, #0]
 80012bc:	f002 f976 	bl	80035ac <USB_ReadInterrupts>
 80012c0:	04c3      	lsls	r3, r0, #19
 80012c2:	d536      	bpl.n	8001332 <HAL_PCD_IRQHandler+0x1ce>
 80012c4:	f8d5 3804 	ldr.w	r3, [r5, #2052]	; 0x804
 80012c8:	6820      	ldr	r0, [r4, #0]
 80012ca:	f023 0301 	bic.w	r3, r3, #1
 80012ce:	2110      	movs	r1, #16
 80012d0:	f8c5 3804 	str.w	r3, [r5, #2052]	; 0x804
 80012d4:	f001 fe10 	bl	8002ef8 <USB_FlushTxFifo>
 80012d8:	f505 6600 	add.w	r6, r5, #2048	; 0x800
 80012dc:	f505 6310 	add.w	r3, r5, #2304	; 0x900
 80012e0:	f64f 317f 	movw	r1, #64383	; 0xfb7f
 80012e4:	6862      	ldr	r2, [r4, #4]
 80012e6:	9800      	ldr	r0, [sp, #0]
 80012e8:	4282      	cmp	r2, r0
 80012ea:	f200 8185 	bhi.w	80015f8 <HAL_PCD_IRQHandler+0x494>
 80012ee:	69f3      	ldr	r3, [r6, #28]
 80012f0:	f043 1301 	orr.w	r3, r3, #65537	; 0x10001
 80012f4:	61f3      	str	r3, [r6, #28]
 80012f6:	6b23      	ldr	r3, [r4, #48]	; 0x30
 80012f8:	2b00      	cmp	r3, #0
 80012fa:	f000 8195 	beq.w	8001628 <HAL_PCD_IRQHandler+0x4c4>
 80012fe:	f8d6 3084 	ldr.w	r3, [r6, #132]	; 0x84
 8001302:	f043 030b 	orr.w	r3, r3, #11
 8001306:	f8c6 3084 	str.w	r3, [r6, #132]	; 0x84
 800130a:	6c73      	ldr	r3, [r6, #68]	; 0x44
 800130c:	f043 030b 	orr.w	r3, r3, #11
 8001310:	6473      	str	r3, [r6, #68]	; 0x44
 8001312:	f8d5 3800 	ldr.w	r3, [r5, #2048]	; 0x800
 8001316:	6820      	ldr	r0, [r4, #0]
 8001318:	f423 63fe 	bic.w	r3, r3, #2032	; 0x7f0
 800131c:	f8c5 3800 	str.w	r3, [r5, #2048]	; 0x800
 8001320:	f504 7171 	add.w	r1, r4, #964	; 0x3c4
 8001324:	f002 f986 	bl	8003634 <USB_EP0_OutStart>
 8001328:	6822      	ldr	r2, [r4, #0]
 800132a:	6953      	ldr	r3, [r2, #20]
 800132c:	f403 5380 	and.w	r3, r3, #4096	; 0x1000
 8001330:	6153      	str	r3, [r2, #20]
 8001332:	6820      	ldr	r0, [r4, #0]
 8001334:	f002 f93a 	bl	80035ac <USB_ReadInterrupts>
 8001338:	0487      	lsls	r7, r0, #18
 800133a:	d516      	bpl.n	800136a <HAL_PCD_IRQHandler+0x206>
 800133c:	6820      	ldr	r0, [r4, #0]
 800133e:	f002 f968 	bl	8003612 <USB_ActivateSetup>
 8001342:	6820      	ldr	r0, [r4, #0]
 8001344:	f001 fece 	bl	80030e4 <USB_GetDevSpeed>
 8001348:	60e0      	str	r0, [r4, #12]
 800134a:	6825      	ldr	r5, [r4, #0]
 800134c:	f000 fef6 	bl	800213c <HAL_RCC_GetHCLKFreq>
 8001350:	7b22      	ldrb	r2, [r4, #12]
 8001352:	4601      	mov	r1, r0
 8001354:	4628      	mov	r0, r5
 8001356:	f001 fd23 	bl	8002da0 <USB_SetTurnaroundTime>
 800135a:	4620      	mov	r0, r4
 800135c:	f005 ffa3 	bl	80072a6 <HAL_PCD_ResetCallback>
 8001360:	6822      	ldr	r2, [r4, #0]
 8001362:	6953      	ldr	r3, [r2, #20]
 8001364:	f403 5300 	and.w	r3, r3, #8192	; 0x2000
 8001368:	6153      	str	r3, [r2, #20]
 800136a:	6820      	ldr	r0, [r4, #0]
 800136c:	f002 f91e 	bl	80035ac <USB_ReadInterrupts>
 8001370:	0706      	lsls	r6, r0, #28
 8001372:	d507      	bpl.n	8001384 <HAL_PCD_IRQHandler+0x220>
 8001374:	4620      	mov	r0, r4
 8001376:	f005 ff92 	bl	800729e <HAL_PCD_SOFCallback>
 800137a:	6822      	ldr	r2, [r4, #0]
 800137c:	6953      	ldr	r3, [r2, #20]
 800137e:	f003 0308 	and.w	r3, r3, #8
 8001382:	6153      	str	r3, [r2, #20]
 8001384:	6820      	ldr	r0, [r4, #0]
 8001386:	f002 f911 	bl	80035ac <USB_ReadInterrupts>
 800138a:	02c5      	lsls	r5, r0, #11
 800138c:	d508      	bpl.n	80013a0 <HAL_PCD_IRQHandler+0x23c>
 800138e:	2100      	movs	r1, #0
 8001390:	4620      	mov	r0, r4
 8001392:	f005 ffd1 	bl	8007338 <HAL_PCD_ISOINIncompleteCallback>
 8001396:	6822      	ldr	r2, [r4, #0]
 8001398:	6953      	ldr	r3, [r2, #20]
 800139a:	f403 1380 	and.w	r3, r3, #1048576	; 0x100000
 800139e:	6153      	str	r3, [r2, #20]
 80013a0:	6820      	ldr	r0, [r4, #0]
 80013a2:	f002 f903 	bl	80035ac <USB_ReadInterrupts>
 80013a6:	0280      	lsls	r0, r0, #10
 80013a8:	d508      	bpl.n	80013bc <HAL_PCD_IRQHandler+0x258>
 80013aa:	2100      	movs	r1, #0
 80013ac:	4620      	mov	r0, r4
 80013ae:	f005 ffbf 	bl	8007330 <HAL_PCD_ISOOUTIncompleteCallback>
 80013b2:	6822      	ldr	r2, [r4, #0]
 80013b4:	6953      	ldr	r3, [r2, #20]
 80013b6:	f403 1300 	and.w	r3, r3, #2097152	; 0x200000
 80013ba:	6153      	str	r3, [r2, #20]
 80013bc:	6820      	ldr	r0, [r4, #0]
 80013be:	f002 f8f5 	bl	80035ac <USB_ReadInterrupts>
 80013c2:	0041      	lsls	r1, r0, #1
 80013c4:	d507      	bpl.n	80013d6 <HAL_PCD_IRQHandler+0x272>
 80013c6:	4620      	mov	r0, r4
 80013c8:	f005 ffba 	bl	8007340 <HAL_PCD_ConnectCallback>
 80013cc:	6822      	ldr	r2, [r4, #0]
 80013ce:	6953      	ldr	r3, [r2, #20]
 80013d0:	f003 4380 	and.w	r3, r3, #1073741824	; 0x40000000
 80013d4:	6153      	str	r3, [r2, #20]
 80013d6:	6820      	ldr	r0, [r4, #0]
 80013d8:	f002 f8e8 	bl	80035ac <USB_ReadInterrupts>
 80013dc:	0742      	lsls	r2, r0, #29
 80013de:	d50a      	bpl.n	80013f6 <HAL_PCD_IRQHandler+0x292>
 80013e0:	6823      	ldr	r3, [r4, #0]
 80013e2:	685d      	ldr	r5, [r3, #4]
 80013e4:	076b      	lsls	r3, r5, #29
 80013e6:	d502      	bpl.n	80013ee <HAL_PCD_IRQHandler+0x28a>
 80013e8:	4620      	mov	r0, r4
 80013ea:	f005 ffad 	bl	8007348 <HAL_PCD_DisconnectCallback>
 80013ee:	6822      	ldr	r2, [r4, #0]
 80013f0:	6853      	ldr	r3, [r2, #4]
 80013f2:	432b      	orrs	r3, r5
 80013f4:	6053      	str	r3, [r2, #4]
 80013f6:	b005      	add	sp, #20
 80013f8:	e8bd 8ff0 	ldmia.w	sp!, {r4, r5, r6, r7, r8, r9, sl, fp, pc}
 80013fc:	2b06      	cmp	r3, #6
 80013fe:	f47f aef9 	bne.w	80011f4 <HAL_PCD_IRQHandler+0x90>
 8001402:	2208      	movs	r2, #8
 8001404:	f504 7171 	add.w	r1, r4, #964	; 0x3c4
 8001408:	4628      	mov	r0, r5
 800140a:	f002 f82f 	bl	800346c <USB_ReadPacket>
 800140e:	231c      	movs	r3, #28
 8001410:	fb03 4606 	mla	r6, r3, r6, r4
 8001414:	f3c7 170a 	ubfx	r7, r7, #4, #11
 8001418:	f8d6 3214 	ldr.w	r3, [r6, #532]	; 0x214
 800141c:	441f      	add	r7, r3
 800141e:	f8c6 7214 	str.w	r7, [r6, #532]	; 0x214
 8001422:	e6e7      	b.n	80011f4 <HAL_PCD_IRQHandler+0x90>
 8001424:	6820      	ldr	r0, [r4, #0]
 8001426:	f8df 9218 	ldr.w	r9, [pc, #536]	; 8001640 <HAL_PCD_IRQHandler+0x4dc>
 800142a:	f8df a218 	ldr.w	sl, [pc, #536]	; 8001644 <HAL_PCD_IRQHandler+0x4e0>
 800142e:	f002 f8c1 	bl	80035b4 <USB_ReadDevAllOutEpInterrupt>
 8001432:	f505 6b30 	add.w	fp, r5, #2816	; 0xb00
 8001436:	4606      	mov	r6, r0
 8001438:	2700      	movs	r7, #0
 800143a:	2e00      	cmp	r6, #0
 800143c:	f43f aee5 	beq.w	800120a <HAL_PCD_IRQHandler+0xa6>
 8001440:	07f3      	lsls	r3, r6, #31
 8001442:	d544      	bpl.n	80014ce <HAL_PCD_IRQHandler+0x36a>
 8001444:	b2f9      	uxtb	r1, r7
 8001446:	6820      	ldr	r0, [r4, #0]
 8001448:	9101      	str	r1, [sp, #4]
 800144a:	f002 f8c3 	bl	80035d4 <USB_ReadDevOutEPInterrupt>
 800144e:	f010 0f01 	tst.w	r0, #1
 8001452:	9901      	ldr	r1, [sp, #4]
 8001454:	4680      	mov	r8, r0
 8001456:	d010      	beq.n	800147a <HAL_PCD_IRQHandler+0x316>
 8001458:	2201      	movs	r2, #1
 800145a:	f8cb 2008 	str.w	r2, [fp, #8]
 800145e:	6822      	ldr	r2, [r4, #0]
 8001460:	6c10      	ldr	r0, [r2, #64]	; 0x40
 8001462:	f502 6230 	add.w	r2, r2, #2816	; 0xb00
 8001466:	eb02 1247 	add.w	r2, r2, r7, lsl #5
 800146a:	4550      	cmp	r0, sl
 800146c:	6893      	ldr	r3, [r2, #8]
 800146e:	d137      	bne.n	80014e0 <HAL_PCD_IRQHandler+0x37c>
 8001470:	0418      	lsls	r0, r3, #16
 8001472:	d531      	bpl.n	80014d8 <HAL_PCD_IRQHandler+0x374>
 8001474:	f44f 4100 	mov.w	r1, #32768	; 0x8000
 8001478:	6091      	str	r1, [r2, #8]
 800147a:	f018 0f08 	tst.w	r8, #8
 800147e:	d013      	beq.n	80014a8 <HAL_PCD_IRQHandler+0x344>
 8001480:	6822      	ldr	r2, [r4, #0]
 8001482:	2108      	movs	r1, #8
 8001484:	f8cb 1008 	str.w	r1, [fp, #8]
 8001488:	6c11      	ldr	r1, [r2, #64]	; 0x40
 800148a:	f502 6230 	add.w	r2, r2, #2816	; 0xb00
 800148e:	eb02 1247 	add.w	r2, r2, r7, lsl #5
 8001492:	4549      	cmp	r1, r9
 8001494:	6890      	ldr	r0, [r2, #8]
 8001496:	d904      	bls.n	80014a2 <HAL_PCD_IRQHandler+0x33e>
 8001498:	0401      	lsls	r1, r0, #16
 800149a:	bf44      	itt	mi
 800149c:	f44f 4100 	movmi.w	r1, #32768	; 0x8000
 80014a0:	6091      	strmi	r1, [r2, #8]
 80014a2:	4620      	mov	r0, r4
 80014a4:	f005 fee4 	bl	8007270 <HAL_PCD_SetupStageCallback>
 80014a8:	f018 0f10 	tst.w	r8, #16
 80014ac:	bf1c      	itt	ne
 80014ae:	2210      	movne	r2, #16
 80014b0:	f8cb 2008 	strne.w	r2, [fp, #8]
 80014b4:	f018 0f20 	tst.w	r8, #32
 80014b8:	bf1c      	itt	ne
 80014ba:	2220      	movne	r2, #32
 80014bc:	f8cb 2008 	strne.w	r2, [fp, #8]
 80014c0:	f418 5f00 	tst.w	r8, #8192	; 0x2000
 80014c4:	bf1c      	itt	ne
 80014c6:	f44f 5300 	movne.w	r3, #8192	; 0x2000
 80014ca:	f8cb 3008 	strne.w	r3, [fp, #8]
 80014ce:	3701      	adds	r7, #1
 80014d0:	0876      	lsrs	r6, r6, #1
 80014d2:	f10b 0b20 	add.w	fp, fp, #32
 80014d6:	e7b0      	b.n	800143a <HAL_PCD_IRQHandler+0x2d6>
 80014d8:	0698      	lsls	r0, r3, #26
 80014da:	bf44      	itt	mi
 80014dc:	2020      	movmi	r0, #32
 80014de:	6090      	strmi	r0, [r2, #8]
 80014e0:	4620      	mov	r0, r4
 80014e2:	f005 fecb 	bl	800727c <HAL_PCD_DataOutStageCallback>
 80014e6:	e7c8      	b.n	800147a <HAL_PCD_IRQHandler+0x316>
 80014e8:	9b01      	ldr	r3, [sp, #4]
 80014ea:	07da      	lsls	r2, r3, #31
 80014ec:	d573      	bpl.n	80015d6 <HAL_PCD_IRQHandler+0x472>
 80014ee:	fa5f fb88 	uxtb.w	fp, r8
 80014f2:	6820      	ldr	r0, [r4, #0]
 80014f4:	4659      	mov	r1, fp
 80014f6:	f002 f876 	bl	80035e6 <USB_ReadDevInEPInterrupt>
 80014fa:	07c3      	lsls	r3, r0, #31
 80014fc:	4607      	mov	r7, r0
 80014fe:	d510      	bpl.n	8001522 <HAL_PCD_IRQHandler+0x3be>
 8001500:	f8d5 3834 	ldr.w	r3, [r5, #2100]	; 0x834
 8001504:	2001      	movs	r0, #1
 8001506:	f008 020f 	and.w	r2, r8, #15
 800150a:	fa00 f202 	lsl.w	r2, r0, r2
 800150e:	ea23 0302 	bic.w	r3, r3, r2
 8001512:	f8c5 3834 	str.w	r3, [r5, #2100]	; 0x834
 8001516:	4659      	mov	r1, fp
 8001518:	f8c9 0008 	str.w	r0, [r9, #8]
 800151c:	4620      	mov	r0, r4
 800151e:	f005 feb6 	bl	800728e <HAL_PCD_DataInStageCallback>
 8001522:	0738      	lsls	r0, r7, #28
 8001524:	bf44      	itt	mi
 8001526:	2308      	movmi	r3, #8
 8001528:	f8c9 3008 	strmi.w	r3, [r9, #8]
 800152c:	06f9      	lsls	r1, r7, #27
 800152e:	bf44      	itt	mi
 8001530:	2310      	movmi	r3, #16
 8001532:	f8c9 3008 	strmi.w	r3, [r9, #8]
 8001536:	067a      	lsls	r2, r7, #25
 8001538:	bf44      	itt	mi
 800153a:	2340      	movmi	r3, #64	; 0x40
 800153c:	f8c9 3008 	strmi.w	r3, [r9, #8]
 8001540:	07bb      	lsls	r3, r7, #30
 8001542:	d506      	bpl.n	8001552 <HAL_PCD_IRQHandler+0x3ee>
 8001544:	4641      	mov	r1, r8
 8001546:	4628      	mov	r0, r5
 8001548:	f001 fcd6 	bl	8002ef8 <USB_FlushTxFifo>
 800154c:	2302      	movs	r3, #2
 800154e:	f8c9 3008 	str.w	r3, [r9, #8]
 8001552:	063f      	lsls	r7, r7, #24
 8001554:	d53f      	bpl.n	80015d6 <HAL_PCD_IRQHandler+0x472>
 8001556:	e9d6 3214 	ldrd	r3, r2, [r6, #80]	; 0x50
 800155a:	429a      	cmp	r2, r3
 800155c:	d83b      	bhi.n	80015d6 <HAL_PCD_IRQHandler+0x472>
 800155e:	1a9b      	subs	r3, r3, r2
 8001560:	6c72      	ldr	r2, [r6, #68]	; 0x44
 8001562:	f8d4 a000 	ldr.w	sl, [r4]
 8001566:	4293      	cmp	r3, r2
 8001568:	bf28      	it	cs
 800156a:	4613      	movcs	r3, r2
 800156c:	3303      	adds	r3, #3
 800156e:	089b      	lsrs	r3, r3, #2
 8001570:	9302      	str	r3, [sp, #8]
 8001572:	f50a 6310 	add.w	r3, sl, #2304	; 0x900
 8001576:	eb03 1348 	add.w	r3, r3, r8, lsl #5
 800157a:	9303      	str	r3, [sp, #12]
 800157c:	9b03      	ldr	r3, [sp, #12]
 800157e:	9902      	ldr	r1, [sp, #8]
 8001580:	699a      	ldr	r2, [r3, #24]
 8001582:	b292      	uxth	r2, r2
 8001584:	428a      	cmp	r2, r1
 8001586:	e9d6 7314 	ldrd	r7, r3, [r6, #80]	; 0x50
 800158a:	d322      	bcc.n	80015d2 <HAL_PCD_IRQHandler+0x46e>
 800158c:	429f      	cmp	r7, r3
 800158e:	d80b      	bhi.n	80015a8 <HAL_PCD_IRQHandler+0x444>
 8001590:	f8da 3834 	ldr.w	r3, [sl, #2100]	; 0x834
 8001594:	f008 020f 	and.w	r2, r8, #15
 8001598:	2101      	movs	r1, #1
 800159a:	fa01 f202 	lsl.w	r2, r1, r2
 800159e:	ea23 0302 	bic.w	r3, r3, r2
 80015a2:	f8ca 3834 	str.w	r3, [sl, #2100]	; 0x834
 80015a6:	e016      	b.n	80015d6 <HAL_PCD_IRQHandler+0x472>
 80015a8:	1aff      	subs	r7, r7, r3
 80015aa:	6c73      	ldr	r3, [r6, #68]	; 0x44
 80015ac:	6cb1      	ldr	r1, [r6, #72]	; 0x48
 80015ae:	429f      	cmp	r7, r3
 80015b0:	bf28      	it	cs
 80015b2:	461f      	movcs	r7, r3
 80015b4:	1cfb      	adds	r3, r7, #3
 80015b6:	089b      	lsrs	r3, r3, #2
 80015b8:	9302      	str	r3, [sp, #8]
 80015ba:	465a      	mov	r2, fp
 80015bc:	b2bb      	uxth	r3, r7
 80015be:	4650      	mov	r0, sl
 80015c0:	f001 fe92 	bl	80032e8 <USB_WritePacket>
 80015c4:	6cb3      	ldr	r3, [r6, #72]	; 0x48
 80015c6:	443b      	add	r3, r7
 80015c8:	64b3      	str	r3, [r6, #72]	; 0x48
 80015ca:	6d73      	ldr	r3, [r6, #84]	; 0x54
 80015cc:	443b      	add	r3, r7
 80015ce:	6573      	str	r3, [r6, #84]	; 0x54
 80015d0:	e7d4      	b.n	800157c <HAL_PCD_IRQHandler+0x418>
 80015d2:	429f      	cmp	r7, r3
 80015d4:	d9dc      	bls.n	8001590 <HAL_PCD_IRQHandler+0x42c>
 80015d6:	9b01      	ldr	r3, [sp, #4]
 80015d8:	085b      	lsrs	r3, r3, #1
 80015da:	f108 0801 	add.w	r8, r8, #1
 80015de:	9301      	str	r3, [sp, #4]
 80015e0:	361c      	adds	r6, #28
 80015e2:	f109 0920 	add.w	r9, r9, #32
 80015e6:	e61e      	b.n	8001226 <HAL_PCD_IRQHandler+0xc2>
 80015e8:	4620      	mov	r0, r4
 80015ea:	f005 fe87 	bl	80072fc <HAL_PCD_ResumeCallback>
 80015ee:	e634      	b.n	800125a <HAL_PCD_IRQHandler+0xf6>
 80015f0:	4620      	mov	r0, r4
 80015f2:	f005 fe6b 	bl	80072cc <HAL_PCD_SuspendCallback>
 80015f6:	e660      	b.n	80012ba <HAL_PCD_IRQHandler+0x156>
 80015f8:	6099      	str	r1, [r3, #8]
 80015fa:	681a      	ldr	r2, [r3, #0]
 80015fc:	f422 1200 	bic.w	r2, r2, #2097152	; 0x200000
 8001600:	601a      	str	r2, [r3, #0]
 8001602:	f8c3 1208 	str.w	r1, [r3, #520]	; 0x208
 8001606:	f8d3 2200 	ldr.w	r2, [r3, #512]	; 0x200
 800160a:	f422 1200 	bic.w	r2, r2, #2097152	; 0x200000
 800160e:	f8c3 2200 	str.w	r2, [r3, #512]	; 0x200
 8001612:	f8d3 2200 	ldr.w	r2, [r3, #512]	; 0x200
 8001616:	f042 6200 	orr.w	r2, r2, #134217728	; 0x8000000
 800161a:	f8c3 2200 	str.w	r2, [r3, #512]	; 0x200
 800161e:	9a00      	ldr	r2, [sp, #0]
 8001620:	3201      	adds	r2, #1
 8001622:	9200      	str	r2, [sp, #0]
 8001624:	3320      	adds	r3, #32
 8001626:	e65d      	b.n	80012e4 <HAL_PCD_IRQHandler+0x180>
 8001628:	6973      	ldr	r3, [r6, #20]
 800162a:	f443 5300 	orr.w	r3, r3, #8192	; 0x2000
 800162e:	f043 032b 	orr.w	r3, r3, #43	; 0x2b
 8001632:	6173      	str	r3, [r6, #20]
 8001634:	6933      	ldr	r3, [r6, #16]
 8001636:	f043 030b 	orr.w	r3, r3, #11
 800163a:	6133      	str	r3, [r6, #16]
 800163c:	e669      	b.n	8001312 <HAL_PCD_IRQHandler+0x1ae>
 800163e:	bf00      	nop
 8001640:	4f54300a 	.word	0x4f54300a
 8001644:	4f54310a 	.word	0x4f54310a

08001648 <HAL_PCD_SetAddress>:
 8001648:	b510      	push	{r4, lr}
 800164a:	f890 23bc 	ldrb.w	r2, [r0, #956]	; 0x3bc
 800164e:	2a01      	cmp	r2, #1
 8001650:	4604      	mov	r4, r0
 8001652:	d00b      	beq.n	800166c <HAL_PCD_SetAddress+0x24>
 8001654:	2201      	movs	r2, #1
 8001656:	f880 23bc 	strb.w	r2, [r0, #956]	; 0x3bc
 800165a:	f880 1038 	strb.w	r1, [r0, #56]	; 0x38
 800165e:	6800      	ldr	r0, [r0, #0]
 8001660:	f001 ff78 	bl	8003554 <USB_SetDevAddress>
 8001664:	2000      	movs	r0, #0
 8001666:	f884 03bc 	strb.w	r0, [r4, #956]	; 0x3bc
 800166a:	bd10      	pop	{r4, pc}
 800166c:	2002      	movs	r0, #2
 800166e:	e7fc      	b.n	800166a <HAL_PCD_SetAddress+0x22>

08001670 <HAL_PCD_EP_Open>:
 8001670:	b570      	push	{r4, r5, r6, lr}
 8001672:	f001 060f 	and.w	r6, r1, #15
 8001676:	ebc6 04c6 	rsb	r4, r6, r6, lsl #3
 800167a:	f011 0f80 	tst.w	r1, #128	; 0x80
 800167e:	4605      	mov	r5, r0
 8001680:	ea4f 0484 	mov.w	r4, r4, lsl #2
 8001684:	f04f 001c 	mov.w	r0, #28
 8001688:	d01f      	beq.n	80016ca <HAL_PCD_EP_Open+0x5a>
 800168a:	fb00 5006 	mla	r0, r0, r6, r5
 800168e:	f104 013c 	add.w	r1, r4, #60	; 0x3c
 8001692:	2401      	movs	r4, #1
 8001694:	4429      	add	r1, r5
 8001696:	f880 403d 	strb.w	r4, [r0, #61]	; 0x3d
 800169a:	608a      	str	r2, [r1, #8]
 800169c:	784a      	ldrb	r2, [r1, #1]
 800169e:	700e      	strb	r6, [r1, #0]
 80016a0:	70cb      	strb	r3, [r1, #3]
 80016a2:	b102      	cbz	r2, 80016a6 <HAL_PCD_EP_Open+0x36>
 80016a4:	80ce      	strh	r6, [r1, #6]
 80016a6:	2b02      	cmp	r3, #2
 80016a8:	bf04      	itt	eq
 80016aa:	2300      	moveq	r3, #0
 80016ac:	710b      	strbeq	r3, [r1, #4]
 80016ae:	f895 33bc 	ldrb.w	r3, [r5, #956]	; 0x3bc
 80016b2:	2b01      	cmp	r3, #1
 80016b4:	d012      	beq.n	80016dc <HAL_PCD_EP_Open+0x6c>
 80016b6:	2301      	movs	r3, #1
 80016b8:	6828      	ldr	r0, [r5, #0]
 80016ba:	f885 33bc 	strb.w	r3, [r5, #956]	; 0x3bc
 80016be:	f001 fd1b 	bl	80030f8 <USB_ActivateEndpoint>
 80016c2:	2000      	movs	r0, #0
 80016c4:	f885 03bc 	strb.w	r0, [r5, #956]	; 0x3bc
 80016c8:	bd70      	pop	{r4, r5, r6, pc}
 80016ca:	fb00 5006 	mla	r0, r0, r6, r5
 80016ce:	f504 71fe 	add.w	r1, r4, #508	; 0x1fc
 80016d2:	2400      	movs	r4, #0
 80016d4:	4429      	add	r1, r5
 80016d6:	f880 41fd 	strb.w	r4, [r0, #509]	; 0x1fd
 80016da:	e7de      	b.n	800169a <HAL_PCD_EP_Open+0x2a>
 80016dc:	2002      	movs	r0, #2
 80016de:	e7f3      	b.n	80016c8 <HAL_PCD_EP_Open+0x58>

080016e0 <HAL_PCD_EP_Close>:
 80016e0:	b510      	push	{r4, lr}
 80016e2:	4604      	mov	r4, r0
 80016e4:	f001 000f 	and.w	r0, r1, #15
 80016e8:	ebc0 03c0 	rsb	r3, r0, r0, lsl #3
 80016ec:	f011 0f80 	tst.w	r1, #128	; 0x80
 80016f0:	ea4f 0383 	mov.w	r3, r3, lsl #2
 80016f4:	f04f 021c 	mov.w	r2, #28
 80016f8:	d016      	beq.n	8001728 <HAL_PCD_EP_Close+0x48>
 80016fa:	fb02 4200 	mla	r2, r2, r0, r4
 80016fe:	f103 013c 	add.w	r1, r3, #60	; 0x3c
 8001702:	2301      	movs	r3, #1
 8001704:	4421      	add	r1, r4
 8001706:	f882 303d 	strb.w	r3, [r2, #61]	; 0x3d
 800170a:	7008      	strb	r0, [r1, #0]
 800170c:	f894 33bc 	ldrb.w	r3, [r4, #956]	; 0x3bc
 8001710:	2b01      	cmp	r3, #1
 8001712:	d012      	beq.n	800173a <HAL_PCD_EP_Close+0x5a>
 8001714:	2301      	movs	r3, #1
 8001716:	6820      	ldr	r0, [r4, #0]
 8001718:	f884 33bc 	strb.w	r3, [r4, #956]	; 0x3bc
 800171c:	f001 fd2a 	bl	8003174 <USB_DeactivateEndpoint>
 8001720:	2000      	movs	r0, #0
 8001722:	f884 03bc 	strb.w	r0, [r4, #956]	; 0x3bc
 8001726:	bd10      	pop	{r4, pc}
 8001728:	fb02 4200 	mla	r2, r2, r0, r4
 800172c:	f503 71fe 	add.w	r1, r3, #508	; 0x1fc
 8001730:	2300      	movs	r3, #0
 8001732:	4421      	add	r1, r4
 8001734:	f882 31fd 	strb.w	r3, [r2, #509]	; 0x1fd
 8001738:	e7e7      	b.n	800170a <HAL_PCD_EP_Close+0x2a>
 800173a:	2002      	movs	r0, #2
 800173c:	e7f3      	b.n	8001726 <HAL_PCD_EP_Close+0x46>

0800173e <HAL_PCD_EP_Receive>:
 800173e:	b538      	push	{r3, r4, r5, lr}
 8001740:	f001 050f 	and.w	r5, r1, #15
 8001744:	241c      	movs	r4, #28
 8001746:	fb04 0105 	mla	r1, r4, r5, r0
 800174a:	fb04 0405 	mla	r4, r4, r5, r0
 800174e:	f501 71fe 	add.w	r1, r1, #508	; 0x1fc
 8001752:	f8c4 3210 	str.w	r3, [r4, #528]	; 0x210
 8001756:	2300      	movs	r3, #0
 8001758:	6800      	ldr	r0, [r0, #0]
 800175a:	f8c4 2208 	str.w	r2, [r4, #520]	; 0x208
 800175e:	f8c4 3214 	str.w	r3, [r4, #532]	; 0x214
 8001762:	f884 31fd 	strb.w	r3, [r4, #509]	; 0x1fd
 8001766:	f884 51fc 	strb.w	r5, [r4, #508]	; 0x1fc
 800176a:	b91d      	cbnz	r5, 8001774 <HAL_PCD_EP_Receive+0x36>
 800176c:	f001 fd58 	bl	8003220 <USB_EP0StartXfer>
 8001770:	2000      	movs	r0, #0
 8001772:	bd38      	pop	{r3, r4, r5, pc}
 8001774:	f001 fdc8 	bl	8003308 <USB_EPStartXfer>
 8001778:	e7fa      	b.n	8001770 <HAL_PCD_EP_Receive+0x32>

0800177a <HAL_PCD_EP_GetRxCount>:
 800177a:	f001 010f 	and.w	r1, r1, #15
 800177e:	231c      	movs	r3, #28
 8001780:	fb03 0001 	mla	r0, r3, r1, r0
 8001784:	f8d0 0214 	ldr.w	r0, [r0, #532]	; 0x214
 8001788:	4770      	bx	lr

0800178a <HAL_PCD_EP_Transmit>:
 800178a:	b538      	push	{r3, r4, r5, lr}
 800178c:	f001 050f 	and.w	r5, r1, #15
 8001790:	241c      	movs	r4, #28
 8001792:	fb04 0105 	mla	r1, r4, r5, r0
 8001796:	fb04 0405 	mla	r4, r4, r5, r0
 800179a:	313c      	adds	r1, #60	; 0x3c
 800179c:	6523      	str	r3, [r4, #80]	; 0x50
 800179e:	2300      	movs	r3, #0
 80017a0:	6563      	str	r3, [r4, #84]	; 0x54
 80017a2:	2301      	movs	r3, #1
 80017a4:	6800      	ldr	r0, [r0, #0]
 80017a6:	64a2      	str	r2, [r4, #72]	; 0x48
 80017a8:	f884 303d 	strb.w	r3, [r4, #61]	; 0x3d
 80017ac:	f884 503c 	strb.w	r5, [r4, #60]	; 0x3c
 80017b0:	b91d      	cbnz	r5, 80017ba <HAL_PCD_EP_Transmit+0x30>
 80017b2:	f001 fd35 	bl	8003220 <USB_EP0StartXfer>
 80017b6:	2000      	movs	r0, #0
 80017b8:	bd38      	pop	{r3, r4, r5, pc}
 80017ba:	f001 fda5 	bl	8003308 <USB_EPStartXfer>
 80017be:	e7fa      	b.n	80017b6 <HAL_PCD_EP_Transmit+0x2c>

080017c0 <HAL_PCD_EP_SetStall>:
 80017c0:	b538      	push	{r3, r4, r5, lr}
 80017c2:	6843      	ldr	r3, [r0, #4]
 80017c4:	f001 050f 	and.w	r5, r1, #15
 80017c8:	429d      	cmp	r5, r3
 80017ca:	4604      	mov	r4, r0
 80017cc:	d82b      	bhi.n	8001826 <HAL_PCD_EP_SetStall+0x66>
 80017ce:	f011 0f80 	tst.w	r1, #128	; 0x80
 80017d2:	f04f 001c 	mov.w	r0, #28
 80017d6:	d01d      	beq.n	8001814 <HAL_PCD_EP_SetStall+0x54>
 80017d8:	fb00 4205 	mla	r2, r0, r5, r4
 80017dc:	fb00 4105 	mla	r1, r0, r5, r4
 80017e0:	2301      	movs	r3, #1
 80017e2:	313c      	adds	r1, #60	; 0x3c
 80017e4:	f882 303d 	strb.w	r3, [r2, #61]	; 0x3d
 80017e8:	2301      	movs	r3, #1
 80017ea:	708b      	strb	r3, [r1, #2]
 80017ec:	700d      	strb	r5, [r1, #0]
 80017ee:	f894 23bc 	ldrb.w	r2, [r4, #956]	; 0x3bc
 80017f2:	429a      	cmp	r2, r3
 80017f4:	d019      	beq.n	800182a <HAL_PCD_EP_SetStall+0x6a>
 80017f6:	6820      	ldr	r0, [r4, #0]
 80017f8:	f884 33bc 	strb.w	r3, [r4, #956]	; 0x3bc
 80017fc:	f001 fe56 	bl	80034ac <USB_EPSetStall>
 8001800:	b925      	cbnz	r5, 800180c <HAL_PCD_EP_SetStall+0x4c>
 8001802:	6820      	ldr	r0, [r4, #0]
 8001804:	f504 7171 	add.w	r1, r4, #964	; 0x3c4
 8001808:	f001 ff14 	bl	8003634 <USB_EP0_OutStart>
 800180c:	2000      	movs	r0, #0
 800180e:	f884 03bc 	strb.w	r0, [r4, #956]	; 0x3bc
 8001812:	bd38      	pop	{r3, r4, r5, pc}
 8001814:	fb00 4301 	mla	r3, r0, r1, r4
 8001818:	461a      	mov	r2, r3
 800181a:	f503 71fe 	add.w	r1, r3, #508	; 0x1fc
 800181e:	2300      	movs	r3, #0
 8001820:	f882 31fd 	strb.w	r3, [r2, #509]	; 0x1fd
 8001824:	e7e0      	b.n	80017e8 <HAL_PCD_EP_SetStall+0x28>
 8001826:	2001      	movs	r0, #1
 8001828:	e7f3      	b.n	8001812 <HAL_PCD_EP_SetStall+0x52>
 800182a:	2002      	movs	r0, #2
 800182c:	e7f1      	b.n	8001812 <HAL_PCD_EP_SetStall+0x52>

0800182e <HAL_PCD_EP_ClrStall>:
 800182e:	b538      	push	{r3, r4, r5, lr}
 8001830:	6843      	ldr	r3, [r0, #4]
 8001832:	f001 020f 	and.w	r2, r1, #15
 8001836:	429a      	cmp	r2, r3
 8001838:	4604      	mov	r4, r0
 800183a:	d82a      	bhi.n	8001892 <HAL_PCD_EP_ClrStall+0x64>
 800183c:	ebc2 03c2 	rsb	r3, r2, r2, lsl #3
 8001840:	f011 0f80 	tst.w	r1, #128	; 0x80
 8001844:	ea4f 0383 	mov.w	r3, r3, lsl #2
 8001848:	f04f 001c 	mov.w	r0, #28
 800184c:	d018      	beq.n	8001880 <HAL_PCD_EP_ClrStall+0x52>
 800184e:	fb00 4002 	mla	r0, r0, r2, r4
 8001852:	f103 013c 	add.w	r1, r3, #60	; 0x3c
 8001856:	2301      	movs	r3, #1
 8001858:	4421      	add	r1, r4
 800185a:	f880 303d 	strb.w	r3, [r0, #61]	; 0x3d
 800185e:	2500      	movs	r5, #0
 8001860:	708d      	strb	r5, [r1, #2]
 8001862:	700a      	strb	r2, [r1, #0]
 8001864:	f894 33bc 	ldrb.w	r3, [r4, #956]	; 0x3bc
 8001868:	2b01      	cmp	r3, #1
 800186a:	d014      	beq.n	8001896 <HAL_PCD_EP_ClrStall+0x68>
 800186c:	2301      	movs	r3, #1
 800186e:	6820      	ldr	r0, [r4, #0]
 8001870:	f884 33bc 	strb.w	r3, [r4, #956]	; 0x3bc
 8001874:	f001 fe45 	bl	8003502 <USB_EPClearStall>
 8001878:	f884 53bc 	strb.w	r5, [r4, #956]	; 0x3bc
 800187c:	4628      	mov	r0, r5
 800187e:	bd38      	pop	{r3, r4, r5, pc}
 8001880:	fb00 4002 	mla	r0, r0, r2, r4
 8001884:	f503 71fe 	add.w	r1, r3, #508	; 0x1fc
 8001888:	2300      	movs	r3, #0
 800188a:	4421      	add	r1, r4
 800188c:	f880 31fd 	strb.w	r3, [r0, #509]	; 0x1fd
 8001890:	e7e5      	b.n	800185e <HAL_PCD_EP_ClrStall+0x30>
 8001892:	2001      	movs	r0, #1
 8001894:	e7f3      	b.n	800187e <HAL_PCD_EP_ClrStall+0x50>
 8001896:	2002      	movs	r0, #2
 8001898:	e7f1      	b.n	800187e <HAL_PCD_EP_ClrStall+0x50>

0800189a <HAL_PCDEx_SetTxFiFo>:
 800189a:	6800      	ldr	r0, [r0, #0]
 800189c:	b570      	push	{r4, r5, r6, lr}
 800189e:	0412      	lsls	r2, r2, #16
 80018a0:	6a44      	ldr	r4, [r0, #36]	; 0x24
 80018a2:	b919      	cbnz	r1, 80018ac <HAL_PCDEx_SetTxFiFo+0x12>
 80018a4:	4322      	orrs	r2, r4
 80018a6:	6282      	str	r2, [r0, #40]	; 0x28
 80018a8:	2000      	movs	r0, #0
 80018aa:	bd70      	pop	{r4, r5, r6, pc}
 80018ac:	6a83      	ldr	r3, [r0, #40]	; 0x28
 80018ae:	1e4d      	subs	r5, r1, #1
 80018b0:	eb04 4413 	add.w	r4, r4, r3, lsr #16
 80018b4:	2300      	movs	r3, #0
 80018b6:	1c5e      	adds	r6, r3, #1
 80018b8:	b2db      	uxtb	r3, r3
 80018ba:	429d      	cmp	r5, r3
 80018bc:	d805      	bhi.n	80018ca <HAL_PCDEx_SetTxFiFo+0x30>
 80018be:	313f      	adds	r1, #63	; 0x3f
 80018c0:	eb00 0081 	add.w	r0, r0, r1, lsl #2
 80018c4:	4322      	orrs	r2, r4
 80018c6:	6042      	str	r2, [r0, #4]
 80018c8:	e7ee      	b.n	80018a8 <HAL_PCDEx_SetTxFiFo+0xe>
 80018ca:	3340      	adds	r3, #64	; 0x40
 80018cc:	eb00 0383 	add.w	r3, r0, r3, lsl #2
 80018d0:	685b      	ldr	r3, [r3, #4]
 80018d2:	eb04 4413 	add.w	r4, r4, r3, lsr #16
 80018d6:	4633      	mov	r3, r6
 80018d8:	e7ed      	b.n	80018b6 <HAL_PCDEx_SetTxFiFo+0x1c>

080018da <HAL_PCDEx_SetRxFiFo>:
 80018da:	6803      	ldr	r3, [r0, #0]
 80018dc:	2000      	movs	r0, #0
 80018de:	6259      	str	r1, [r3, #36]	; 0x24
 80018e0:	4770      	bx	lr

080018e2 <HAL_PCDEx_ActivateLPM>:
 80018e2:	6802      	ldr	r2, [r0, #0]
 80018e4:	2100      	movs	r1, #0
 80018e6:	f880 13f4 	strb.w	r1, [r0, #1012]	; 0x3f4
 80018ea:	2301      	movs	r3, #1
 80018ec:	f8c0 33fc 	str.w	r3, [r0, #1020]	; 0x3fc
 80018f0:	6993      	ldr	r3, [r2, #24]
 80018f2:	f043 6300 	orr.w	r3, r3, #134217728	; 0x8000000
 80018f6:	6193      	str	r3, [r2, #24]
 80018f8:	6d53      	ldr	r3, [r2, #84]	; 0x54
 80018fa:	f043 5380 	orr.w	r3, r3, #268435456	; 0x10000000
 80018fe:	f043 0303 	orr.w	r3, r3, #3
 8001902:	6553      	str	r3, [r2, #84]	; 0x54
 8001904:	4608      	mov	r0, r1
 8001906:	4770      	bx	lr

08001908 <HAL_PCDEx_LPM_Callback>:
 8001908:	4770      	bx	lr
	...

0800190c <HAL_PWREx_GetVoltageRange>:
 800190c:	4b02      	ldr	r3, [pc, #8]	; (8001918 <HAL_PWREx_GetVoltageRange+0xc>)
 800190e:	6818      	ldr	r0, [r3, #0]
 8001910:	f400 60c0 	and.w	r0, r0, #1536	; 0x600
 8001914:	4770      	bx	lr
 8001916:	bf00      	nop
 8001918:	40007000 	.word	0x40007000

0800191c <HAL_PWREx_ControlVoltageScaling>:
 800191c:	4a17      	ldr	r2, [pc, #92]	; (800197c <HAL_PWREx_ControlVoltageScaling+0x60>)
 800191e:	6813      	ldr	r3, [r2, #0]
 8001920:	f5b0 7f00 	cmp.w	r0, #512	; 0x200
 8001924:	f403 63c0 	and.w	r3, r3, #1536	; 0x600
 8001928:	d11d      	bne.n	8001966 <HAL_PWREx_ControlVoltageScaling+0x4a>
 800192a:	f5b3 7f00 	cmp.w	r3, #512	; 0x200
 800192e:	d101      	bne.n	8001934 <HAL_PWREx_ControlVoltageScaling+0x18>
 8001930:	2000      	movs	r0, #0
 8001932:	4770      	bx	lr
 8001934:	6813      	ldr	r3, [r2, #0]
 8001936:	f423 63c0 	bic.w	r3, r3, #1536	; 0x600
 800193a:	f443 7300 	orr.w	r3, r3, #512	; 0x200
 800193e:	6013      	str	r3, [r2, #0]
 8001940:	4b0f      	ldr	r3, [pc, #60]	; (8001980 <HAL_PWREx_ControlVoltageScaling+0x64>)
 8001942:	681b      	ldr	r3, [r3, #0]
 8001944:	2132      	movs	r1, #50	; 0x32
 8001946:	434b      	muls	r3, r1
 8001948:	490e      	ldr	r1, [pc, #56]	; (8001984 <HAL_PWREx_ControlVoltageScaling+0x68>)
 800194a:	fbb3 f3f1 	udiv	r3, r3, r1
 800194e:	3301      	adds	r3, #1
 8001950:	6951      	ldr	r1, [r2, #20]
 8001952:	0549      	lsls	r1, r1, #21
 8001954:	d500      	bpl.n	8001958 <HAL_PWREx_ControlVoltageScaling+0x3c>
 8001956:	b923      	cbnz	r3, 8001962 <HAL_PWREx_ControlVoltageScaling+0x46>
 8001958:	6953      	ldr	r3, [r2, #20]
 800195a:	055b      	lsls	r3, r3, #21
 800195c:	d5e8      	bpl.n	8001930 <HAL_PWREx_ControlVoltageScaling+0x14>
 800195e:	2003      	movs	r0, #3
 8001960:	4770      	bx	lr
 8001962:	3b01      	subs	r3, #1
 8001964:	e7f4      	b.n	8001950 <HAL_PWREx_ControlVoltageScaling+0x34>
 8001966:	f5b3 6f80 	cmp.w	r3, #1024	; 0x400
 800196a:	bf1f      	itttt	ne
 800196c:	6813      	ldrne	r3, [r2, #0]
 800196e:	f423 63c0 	bicne.w	r3, r3, #1536	; 0x600
 8001972:	f443 6380 	orrne.w	r3, r3, #1024	; 0x400
 8001976:	6013      	strne	r3, [r2, #0]
 8001978:	e7da      	b.n	8001930 <HAL_PWREx_ControlVoltageScaling+0x14>
 800197a:	bf00      	nop
 800197c:	40007000 	.word	0x40007000
 8001980:	2000011c 	.word	0x2000011c
 8001984:	000f4240 	.word	0x000f4240

08001988 <HAL_PWREx_EnableVddUSB>:
 8001988:	4a02      	ldr	r2, [pc, #8]	; (8001994 <HAL_PWREx_EnableVddUSB+0xc>)
 800198a:	6853      	ldr	r3, [r2, #4]
 800198c:	f443 6380 	orr.w	r3, r3, #1024	; 0x400
 8001990:	6053      	str	r3, [r2, #4]
 8001992:	4770      	bx	lr
 8001994:	40007000 	.word	0x40007000

08001998 <RCC_SetFlashLatencyFromMSIRange>:
 8001998:	b537      	push	{r0, r1, r2, r4, r5, lr}
 800199a:	4d1e      	ldr	r5, [pc, #120]	; (8001a14 <RCC_SetFlashLatencyFromMSIRange+0x7c>)
 800199c:	6dab      	ldr	r3, [r5, #88]	; 0x58
 800199e:	00da      	lsls	r2, r3, #3
 80019a0:	4604      	mov	r4, r0
 80019a2:	d518      	bpl.n	80019d6 <RCC_SetFlashLatencyFromMSIRange+0x3e>
 80019a4:	f7ff ffb2 	bl	800190c <HAL_PWREx_GetVoltageRange>
 80019a8:	f5b0 7f00 	cmp.w	r0, #512	; 0x200
 80019ac:	d123      	bne.n	80019f6 <RCC_SetFlashLatencyFromMSIRange+0x5e>
 80019ae:	2c80      	cmp	r4, #128	; 0x80
 80019b0:	d929      	bls.n	8001a06 <RCC_SetFlashLatencyFromMSIRange+0x6e>
 80019b2:	2ca0      	cmp	r4, #160	; 0xa0
 80019b4:	bf8c      	ite	hi
 80019b6:	2002      	movhi	r0, #2
 80019b8:	2001      	movls	r0, #1
 80019ba:	4a17      	ldr	r2, [pc, #92]	; (8001a18 <RCC_SetFlashLatencyFromMSIRange+0x80>)
 80019bc:	6813      	ldr	r3, [r2, #0]
 80019be:	f023 0307 	bic.w	r3, r3, #7
 80019c2:	4303      	orrs	r3, r0
 80019c4:	6013      	str	r3, [r2, #0]
 80019c6:	6813      	ldr	r3, [r2, #0]
 80019c8:	f003 0307 	and.w	r3, r3, #7
 80019cc:	1a18      	subs	r0, r3, r0
 80019ce:	bf18      	it	ne
 80019d0:	2001      	movne	r0, #1
 80019d2:	b003      	add	sp, #12
 80019d4:	bd30      	pop	{r4, r5, pc}
 80019d6:	6dab      	ldr	r3, [r5, #88]	; 0x58
 80019d8:	f043 5380 	orr.w	r3, r3, #268435456	; 0x10000000
 80019dc:	65ab      	str	r3, [r5, #88]	; 0x58
 80019de:	6dab      	ldr	r3, [r5, #88]	; 0x58
 80019e0:	f003 5380 	and.w	r3, r3, #268435456	; 0x10000000
 80019e4:	9301      	str	r3, [sp, #4]
 80019e6:	9b01      	ldr	r3, [sp, #4]
 80019e8:	f7ff ff90 	bl	800190c <HAL_PWREx_GetVoltageRange>
 80019ec:	6dab      	ldr	r3, [r5, #88]	; 0x58
 80019ee:	f023 5380 	bic.w	r3, r3, #268435456	; 0x10000000
 80019f2:	65ab      	str	r3, [r5, #88]	; 0x58
 80019f4:	e7d8      	b.n	80019a8 <RCC_SetFlashLatencyFromMSIRange+0x10>
 80019f6:	2c80      	cmp	r4, #128	; 0x80
 80019f8:	d807      	bhi.n	8001a0a <RCC_SetFlashLatencyFromMSIRange+0x72>
 80019fa:	d008      	beq.n	8001a0e <RCC_SetFlashLatencyFromMSIRange+0x76>
 80019fc:	f1a4 0370 	sub.w	r3, r4, #112	; 0x70
 8001a00:	4258      	negs	r0, r3
 8001a02:	4158      	adcs	r0, r3
 8001a04:	e7d9      	b.n	80019ba <RCC_SetFlashLatencyFromMSIRange+0x22>
 8001a06:	2000      	movs	r0, #0
 8001a08:	e7d7      	b.n	80019ba <RCC_SetFlashLatencyFromMSIRange+0x22>
 8001a0a:	2003      	movs	r0, #3
 8001a0c:	e7d5      	b.n	80019ba <RCC_SetFlashLatencyFromMSIRange+0x22>
 8001a0e:	2002      	movs	r0, #2
 8001a10:	e7d3      	b.n	80019ba <RCC_SetFlashLatencyFromMSIRange+0x22>
 8001a12:	bf00      	nop
 8001a14:	40021000 	.word	0x40021000
 8001a18:	40022000 	.word	0x40022000

08001a1c <HAL_RCC_GetSysClockFreq>:
 8001a1c:	4b22      	ldr	r3, [pc, #136]	; (8001aa8 <HAL_RCC_GetSysClockFreq+0x8c>)
 8001a1e:	689a      	ldr	r2, [r3, #8]
 8001a20:	68d9      	ldr	r1, [r3, #12]
 8001a22:	f012 020c 	ands.w	r2, r2, #12
 8001a26:	d005      	beq.n	8001a34 <HAL_RCC_GetSysClockFreq+0x18>
 8001a28:	2a0c      	cmp	r2, #12
 8001a2a:	d115      	bne.n	8001a58 <HAL_RCC_GetSysClockFreq+0x3c>
 8001a2c:	f001 0103 	and.w	r1, r1, #3
 8001a30:	2901      	cmp	r1, #1
 8001a32:	d118      	bne.n	8001a66 <HAL_RCC_GetSysClockFreq+0x4a>
 8001a34:	6819      	ldr	r1, [r3, #0]
 8001a36:	481d      	ldr	r0, [pc, #116]	; (8001aac <HAL_RCC_GetSysClockFreq+0x90>)
 8001a38:	0709      	lsls	r1, r1, #28
 8001a3a:	bf55      	itete	pl
 8001a3c:	f8d3 1094 	ldrpl.w	r1, [r3, #148]	; 0x94
 8001a40:	6819      	ldrmi	r1, [r3, #0]
 8001a42:	f3c1 2103 	ubfxpl	r1, r1, #8, #4
 8001a46:	f3c1 1103 	ubfxmi	r1, r1, #4, #4
 8001a4a:	f850 0021 	ldr.w	r0, [r0, r1, lsl #2]
 8001a4e:	b34a      	cbz	r2, 8001aa4 <HAL_RCC_GetSysClockFreq+0x88>
 8001a50:	2a0c      	cmp	r2, #12
 8001a52:	d009      	beq.n	8001a68 <HAL_RCC_GetSysClockFreq+0x4c>
 8001a54:	2000      	movs	r0, #0
 8001a56:	4770      	bx	lr
 8001a58:	2a04      	cmp	r2, #4
 8001a5a:	d022      	beq.n	8001aa2 <HAL_RCC_GetSysClockFreq+0x86>
 8001a5c:	2a08      	cmp	r2, #8
 8001a5e:	4814      	ldr	r0, [pc, #80]	; (8001ab0 <HAL_RCC_GetSysClockFreq+0x94>)
 8001a60:	bf18      	it	ne
 8001a62:	2000      	movne	r0, #0
 8001a64:	4770      	bx	lr
 8001a66:	2000      	movs	r0, #0
 8001a68:	68da      	ldr	r2, [r3, #12]
 8001a6a:	f002 0203 	and.w	r2, r2, #3
 8001a6e:	2a02      	cmp	r2, #2
 8001a70:	d015      	beq.n	8001a9e <HAL_RCC_GetSysClockFreq+0x82>
 8001a72:	490f      	ldr	r1, [pc, #60]	; (8001ab0 <HAL_RCC_GetSysClockFreq+0x94>)
 8001a74:	2a03      	cmp	r2, #3
 8001a76:	bf08      	it	eq
 8001a78:	4608      	moveq	r0, r1
 8001a7a:	68d9      	ldr	r1, [r3, #12]
 8001a7c:	68da      	ldr	r2, [r3, #12]
 8001a7e:	f3c2 2206 	ubfx	r2, r2, #8, #7
 8001a82:	4342      	muls	r2, r0
 8001a84:	68d8      	ldr	r0, [r3, #12]
 8001a86:	f3c0 6041 	ubfx	r0, r0, #25, #2
 8001a8a:	f3c1 1102 	ubfx	r1, r1, #4, #3
 8001a8e:	3001      	adds	r0, #1
 8001a90:	3101      	adds	r1, #1
 8001a92:	0040      	lsls	r0, r0, #1
 8001a94:	fbb2 f2f1 	udiv	r2, r2, r1
 8001a98:	fbb2 f0f0 	udiv	r0, r2, r0
 8001a9c:	4770      	bx	lr
 8001a9e:	4805      	ldr	r0, [pc, #20]	; (8001ab4 <HAL_RCC_GetSysClockFreq+0x98>)
 8001aa0:	e7eb      	b.n	8001a7a <HAL_RCC_GetSysClockFreq+0x5e>
 8001aa2:	4804      	ldr	r0, [pc, #16]	; (8001ab4 <HAL_RCC_GetSysClockFreq+0x98>)
 8001aa4:	4770      	bx	lr
 8001aa6:	bf00      	nop
 8001aa8:	40021000 	.word	0x40021000
 8001aac:	08007a70 	.word	0x08007a70
 8001ab0:	00989680 	.word	0x00989680
 8001ab4:	00f42400 	.word	0x00f42400

08001ab8 <HAL_RCC_OscConfig>:
 8001ab8:	e92d 43f7 	stmdb	sp!, {r0, r1, r2, r4, r5, r6, r7, r8, r9, lr}
 8001abc:	4605      	mov	r5, r0
 8001abe:	b908      	cbnz	r0, 8001ac4 <HAL_RCC_OscConfig+0xc>
 8001ac0:	2001      	movs	r0, #1
 8001ac2:	e047      	b.n	8001b54 <HAL_RCC_OscConfig+0x9c>
 8001ac4:	4c94      	ldr	r4, [pc, #592]	; (8001d18 <HAL_RCC_OscConfig+0x260>)
 8001ac6:	6803      	ldr	r3, [r0, #0]
 8001ac8:	68a6      	ldr	r6, [r4, #8]
 8001aca:	68e7      	ldr	r7, [r4, #12]
 8001acc:	06db      	lsls	r3, r3, #27
 8001ace:	f006 060c 	and.w	r6, r6, #12
 8001ad2:	f007 0703 	and.w	r7, r7, #3
 8001ad6:	d575      	bpl.n	8001bc4 <HAL_RCC_OscConfig+0x10c>
 8001ad8:	b11e      	cbz	r6, 8001ae2 <HAL_RCC_OscConfig+0x2a>
 8001ada:	2e0c      	cmp	r6, #12
 8001adc:	d154      	bne.n	8001b88 <HAL_RCC_OscConfig+0xd0>
 8001ade:	2f01      	cmp	r7, #1
 8001ae0:	d152      	bne.n	8001b88 <HAL_RCC_OscConfig+0xd0>
 8001ae2:	6823      	ldr	r3, [r4, #0]
 8001ae4:	0798      	lsls	r0, r3, #30
 8001ae6:	d502      	bpl.n	8001aee <HAL_RCC_OscConfig+0x36>
 8001ae8:	69ab      	ldr	r3, [r5, #24]
 8001aea:	2b00      	cmp	r3, #0
 8001aec:	d0e8      	beq.n	8001ac0 <HAL_RCC_OscConfig+0x8>
 8001aee:	6823      	ldr	r3, [r4, #0]
 8001af0:	6a28      	ldr	r0, [r5, #32]
 8001af2:	0719      	lsls	r1, r3, #28
 8001af4:	bf56      	itet	pl
 8001af6:	f8d4 3094 	ldrpl.w	r3, [r4, #148]	; 0x94
 8001afa:	6823      	ldrmi	r3, [r4, #0]
 8001afc:	091b      	lsrpl	r3, r3, #4
 8001afe:	f003 03f0 	and.w	r3, r3, #240	; 0xf0
 8001b02:	4298      	cmp	r0, r3
 8001b04:	d929      	bls.n	8001b5a <HAL_RCC_OscConfig+0xa2>
 8001b06:	f7ff ff47 	bl	8001998 <RCC_SetFlashLatencyFromMSIRange>
 8001b0a:	2800      	cmp	r0, #0
 8001b0c:	d1d8      	bne.n	8001ac0 <HAL_RCC_OscConfig+0x8>
 8001b0e:	6823      	ldr	r3, [r4, #0]
 8001b10:	f043 0308 	orr.w	r3, r3, #8
 8001b14:	6023      	str	r3, [r4, #0]
 8001b16:	6823      	ldr	r3, [r4, #0]
 8001b18:	6a2a      	ldr	r2, [r5, #32]
 8001b1a:	f023 03f0 	bic.w	r3, r3, #240	; 0xf0
 8001b1e:	4313      	orrs	r3, r2
 8001b20:	6023      	str	r3, [r4, #0]
 8001b22:	6863      	ldr	r3, [r4, #4]
 8001b24:	69ea      	ldr	r2, [r5, #28]
 8001b26:	f423 437f 	bic.w	r3, r3, #65280	; 0xff00
 8001b2a:	ea43 2302 	orr.w	r3, r3, r2, lsl #8
 8001b2e:	6063      	str	r3, [r4, #4]
 8001b30:	f7ff ff74 	bl	8001a1c <HAL_RCC_GetSysClockFreq>
 8001b34:	68a3      	ldr	r3, [r4, #8]
 8001b36:	4a79      	ldr	r2, [pc, #484]	; (8001d1c <HAL_RCC_OscConfig+0x264>)
 8001b38:	f3c3 1303 	ubfx	r3, r3, #4, #4
 8001b3c:	5cd3      	ldrb	r3, [r2, r3]
 8001b3e:	f003 031f 	and.w	r3, r3, #31
 8001b42:	40d8      	lsrs	r0, r3
 8001b44:	4b76      	ldr	r3, [pc, #472]	; (8001d20 <HAL_RCC_OscConfig+0x268>)
 8001b46:	6018      	str	r0, [r3, #0]
 8001b48:	4b76      	ldr	r3, [pc, #472]	; (8001d24 <HAL_RCC_OscConfig+0x26c>)
 8001b4a:	6818      	ldr	r0, [r3, #0]
 8001b4c:	f005 fa30 	bl	8006fb0 <HAL_InitTick>
 8001b50:	2800      	cmp	r0, #0
 8001b52:	d037      	beq.n	8001bc4 <HAL_RCC_OscConfig+0x10c>
 8001b54:	b003      	add	sp, #12
 8001b56:	e8bd 83f0 	ldmia.w	sp!, {r4, r5, r6, r7, r8, r9, pc}
 8001b5a:	6823      	ldr	r3, [r4, #0]
 8001b5c:	f043 0308 	orr.w	r3, r3, #8
 8001b60:	6023      	str	r3, [r4, #0]
 8001b62:	6823      	ldr	r3, [r4, #0]
 8001b64:	f023 03f0 	bic.w	r3, r3, #240	; 0xf0
 8001b68:	4303      	orrs	r3, r0
 8001b6a:	6023      	str	r3, [r4, #0]
 8001b6c:	6863      	ldr	r3, [r4, #4]
 8001b6e:	69ea      	ldr	r2, [r5, #28]
 8001b70:	f423 437f 	bic.w	r3, r3, #65280	; 0xff00
 8001b74:	ea43 2302 	orr.w	r3, r3, r2, lsl #8
 8001b78:	6063      	str	r3, [r4, #4]
 8001b7a:	2e00      	cmp	r6, #0
 8001b7c:	d1d8      	bne.n	8001b30 <HAL_RCC_OscConfig+0x78>
 8001b7e:	f7ff ff0b 	bl	8001998 <RCC_SetFlashLatencyFromMSIRange>
 8001b82:	2800      	cmp	r0, #0
 8001b84:	d0d4      	beq.n	8001b30 <HAL_RCC_OscConfig+0x78>
 8001b86:	e79b      	b.n	8001ac0 <HAL_RCC_OscConfig+0x8>
 8001b88:	69ab      	ldr	r3, [r5, #24]
 8001b8a:	2b00      	cmp	r3, #0
 8001b8c:	d03a      	beq.n	8001c04 <HAL_RCC_OscConfig+0x14c>
 8001b8e:	6823      	ldr	r3, [r4, #0]
 8001b90:	f043 0301 	orr.w	r3, r3, #1
 8001b94:	6023      	str	r3, [r4, #0]
 8001b96:	f7fe fb4f 	bl	8000238 <HAL_GetTick>
 8001b9a:	4680      	mov	r8, r0
 8001b9c:	6823      	ldr	r3, [r4, #0]
 8001b9e:	079a      	lsls	r2, r3, #30
 8001ba0:	d528      	bpl.n	8001bf4 <HAL_RCC_OscConfig+0x13c>
 8001ba2:	6823      	ldr	r3, [r4, #0]
 8001ba4:	f043 0308 	orr.w	r3, r3, #8
 8001ba8:	6023      	str	r3, [r4, #0]
 8001baa:	6823      	ldr	r3, [r4, #0]
 8001bac:	6a2a      	ldr	r2, [r5, #32]
 8001bae:	f023 03f0 	bic.w	r3, r3, #240	; 0xf0
 8001bb2:	4313      	orrs	r3, r2
 8001bb4:	6023      	str	r3, [r4, #0]
 8001bb6:	6863      	ldr	r3, [r4, #4]
 8001bb8:	69ea      	ldr	r2, [r5, #28]
 8001bba:	f423 437f 	bic.w	r3, r3, #65280	; 0xff00
 8001bbe:	ea43 2302 	orr.w	r3, r3, r2, lsl #8
 8001bc2:	6063      	str	r3, [r4, #4]
 8001bc4:	682b      	ldr	r3, [r5, #0]
 8001bc6:	07d8      	lsls	r0, r3, #31
 8001bc8:	d42d      	bmi.n	8001c26 <HAL_RCC_OscConfig+0x16e>
 8001bca:	682b      	ldr	r3, [r5, #0]
 8001bcc:	0799      	lsls	r1, r3, #30
 8001bce:	d46b      	bmi.n	8001ca8 <HAL_RCC_OscConfig+0x1f0>
 8001bd0:	682b      	ldr	r3, [r5, #0]
 8001bd2:	0718      	lsls	r0, r3, #28
 8001bd4:	f100 80a8 	bmi.w	8001d28 <HAL_RCC_OscConfig+0x270>
 8001bd8:	682b      	ldr	r3, [r5, #0]
 8001bda:	0759      	lsls	r1, r3, #29
 8001bdc:	f100 80ce 	bmi.w	8001d7c <HAL_RCC_OscConfig+0x2c4>
 8001be0:	682b      	ldr	r3, [r5, #0]
 8001be2:	069f      	lsls	r7, r3, #26
 8001be4:	f100 8137 	bmi.w	8001e56 <HAL_RCC_OscConfig+0x39e>
 8001be8:	6aab      	ldr	r3, [r5, #40]	; 0x28
 8001bea:	2b00      	cmp	r3, #0
 8001bec:	f040 815d 	bne.w	8001eaa <HAL_RCC_OscConfig+0x3f2>
 8001bf0:	2000      	movs	r0, #0
 8001bf2:	e7af      	b.n	8001b54 <HAL_RCC_OscConfig+0x9c>
 8001bf4:	f7fe fb20 	bl	8000238 <HAL_GetTick>
 8001bf8:	eba0 0008 	sub.w	r0, r0, r8
 8001bfc:	2802      	cmp	r0, #2
 8001bfe:	d9cd      	bls.n	8001b9c <HAL_RCC_OscConfig+0xe4>
 8001c00:	2003      	movs	r0, #3
 8001c02:	e7a7      	b.n	8001b54 <HAL_RCC_OscConfig+0x9c>
 8001c04:	6823      	ldr	r3, [r4, #0]
 8001c06:	f023 0301 	bic.w	r3, r3, #1
 8001c0a:	6023      	str	r3, [r4, #0]
 8001c0c:	f7fe fb14 	bl	8000238 <HAL_GetTick>
 8001c10:	4680      	mov	r8, r0
 8001c12:	6823      	ldr	r3, [r4, #0]
 8001c14:	079b      	lsls	r3, r3, #30
 8001c16:	d5d5      	bpl.n	8001bc4 <HAL_RCC_OscConfig+0x10c>
 8001c18:	f7fe fb0e 	bl	8000238 <HAL_GetTick>
 8001c1c:	eba0 0008 	sub.w	r0, r0, r8
 8001c20:	2802      	cmp	r0, #2
 8001c22:	d9f6      	bls.n	8001c12 <HAL_RCC_OscConfig+0x15a>
 8001c24:	e7ec      	b.n	8001c00 <HAL_RCC_OscConfig+0x148>
 8001c26:	2e08      	cmp	r6, #8
 8001c28:	d003      	beq.n	8001c32 <HAL_RCC_OscConfig+0x17a>
 8001c2a:	2e0c      	cmp	r6, #12
 8001c2c:	d108      	bne.n	8001c40 <HAL_RCC_OscConfig+0x188>
 8001c2e:	2f03      	cmp	r7, #3
 8001c30:	d106      	bne.n	8001c40 <HAL_RCC_OscConfig+0x188>
 8001c32:	6823      	ldr	r3, [r4, #0]
 8001c34:	039a      	lsls	r2, r3, #14
 8001c36:	d5c8      	bpl.n	8001bca <HAL_RCC_OscConfig+0x112>
 8001c38:	686b      	ldr	r3, [r5, #4]
 8001c3a:	2b00      	cmp	r3, #0
 8001c3c:	d1c5      	bne.n	8001bca <HAL_RCC_OscConfig+0x112>
 8001c3e:	e73f      	b.n	8001ac0 <HAL_RCC_OscConfig+0x8>
 8001c40:	686b      	ldr	r3, [r5, #4]
 8001c42:	f5b3 3f80 	cmp.w	r3, #65536	; 0x10000
 8001c46:	d110      	bne.n	8001c6a <HAL_RCC_OscConfig+0x1b2>
 8001c48:	6823      	ldr	r3, [r4, #0]
 8001c4a:	f443 3380 	orr.w	r3, r3, #65536	; 0x10000
 8001c4e:	6023      	str	r3, [r4, #0]
 8001c50:	f7fe faf2 	bl	8000238 <HAL_GetTick>
 8001c54:	4680      	mov	r8, r0
 8001c56:	6823      	ldr	r3, [r4, #0]
 8001c58:	039b      	lsls	r3, r3, #14
 8001c5a:	d4b6      	bmi.n	8001bca <HAL_RCC_OscConfig+0x112>
 8001c5c:	f7fe faec 	bl	8000238 <HAL_GetTick>
 8001c60:	eba0 0008 	sub.w	r0, r0, r8
 8001c64:	2864      	cmp	r0, #100	; 0x64
 8001c66:	d9f6      	bls.n	8001c56 <HAL_RCC_OscConfig+0x19e>
 8001c68:	e7ca      	b.n	8001c00 <HAL_RCC_OscConfig+0x148>
 8001c6a:	f5b3 2fa0 	cmp.w	r3, #327680	; 0x50000
 8001c6e:	d104      	bne.n	8001c7a <HAL_RCC_OscConfig+0x1c2>
 8001c70:	6823      	ldr	r3, [r4, #0]
 8001c72:	f443 2380 	orr.w	r3, r3, #262144	; 0x40000
 8001c76:	6023      	str	r3, [r4, #0]
 8001c78:	e7e6      	b.n	8001c48 <HAL_RCC_OscConfig+0x190>
 8001c7a:	6822      	ldr	r2, [r4, #0]
 8001c7c:	f422 3280 	bic.w	r2, r2, #65536	; 0x10000
 8001c80:	6022      	str	r2, [r4, #0]
 8001c82:	6822      	ldr	r2, [r4, #0]
 8001c84:	f422 2280 	bic.w	r2, r2, #262144	; 0x40000
 8001c88:	6022      	str	r2, [r4, #0]
 8001c8a:	2b00      	cmp	r3, #0
 8001c8c:	d1e0      	bne.n	8001c50 <HAL_RCC_OscConfig+0x198>
 8001c8e:	f7fe fad3 	bl	8000238 <HAL_GetTick>
 8001c92:	4680      	mov	r8, r0
 8001c94:	6823      	ldr	r3, [r4, #0]
 8001c96:	0398      	lsls	r0, r3, #14
 8001c98:	d597      	bpl.n	8001bca <HAL_RCC_OscConfig+0x112>
 8001c9a:	f7fe facd 	bl	8000238 <HAL_GetTick>
 8001c9e:	eba0 0008 	sub.w	r0, r0, r8
 8001ca2:	2864      	cmp	r0, #100	; 0x64
 8001ca4:	d9f6      	bls.n	8001c94 <HAL_RCC_OscConfig+0x1dc>
 8001ca6:	e7ab      	b.n	8001c00 <HAL_RCC_OscConfig+0x148>
 8001ca8:	2e04      	cmp	r6, #4
 8001caa:	d003      	beq.n	8001cb4 <HAL_RCC_OscConfig+0x1fc>
 8001cac:	2e0c      	cmp	r6, #12
 8001cae:	d110      	bne.n	8001cd2 <HAL_RCC_OscConfig+0x21a>
 8001cb0:	2f02      	cmp	r7, #2
 8001cb2:	d10e      	bne.n	8001cd2 <HAL_RCC_OscConfig+0x21a>
 8001cb4:	6823      	ldr	r3, [r4, #0]
 8001cb6:	0559      	lsls	r1, r3, #21
 8001cb8:	d503      	bpl.n	8001cc2 <HAL_RCC_OscConfig+0x20a>
 8001cba:	68eb      	ldr	r3, [r5, #12]
 8001cbc:	2b00      	cmp	r3, #0
 8001cbe:	f43f aeff 	beq.w	8001ac0 <HAL_RCC_OscConfig+0x8>
 8001cc2:	6863      	ldr	r3, [r4, #4]
 8001cc4:	692a      	ldr	r2, [r5, #16]
 8001cc6:	f023 43fe 	bic.w	r3, r3, #2130706432	; 0x7f000000
 8001cca:	ea43 6302 	orr.w	r3, r3, r2, lsl #24
 8001cce:	6063      	str	r3, [r4, #4]
 8001cd0:	e77e      	b.n	8001bd0 <HAL_RCC_OscConfig+0x118>
 8001cd2:	68eb      	ldr	r3, [r5, #12]
 8001cd4:	b17b      	cbz	r3, 8001cf6 <HAL_RCC_OscConfig+0x23e>
 8001cd6:	6823      	ldr	r3, [r4, #0]
 8001cd8:	f443 7380 	orr.w	r3, r3, #256	; 0x100
 8001cdc:	6023      	str	r3, [r4, #0]
 8001cde:	f7fe faab 	bl	8000238 <HAL_GetTick>
 8001ce2:	4607      	mov	r7, r0
 8001ce4:	6823      	ldr	r3, [r4, #0]
 8001ce6:	055a      	lsls	r2, r3, #21
 8001ce8:	d4eb      	bmi.n	8001cc2 <HAL_RCC_OscConfig+0x20a>
 8001cea:	f7fe faa5 	bl	8000238 <HAL_GetTick>
 8001cee:	1bc0      	subs	r0, r0, r7
 8001cf0:	2802      	cmp	r0, #2
 8001cf2:	d9f7      	bls.n	8001ce4 <HAL_RCC_OscConfig+0x22c>
 8001cf4:	e784      	b.n	8001c00 <HAL_RCC_OscConfig+0x148>
 8001cf6:	6823      	ldr	r3, [r4, #0]
 8001cf8:	f423 7380 	bic.w	r3, r3, #256	; 0x100
 8001cfc:	6023      	str	r3, [r4, #0]
 8001cfe:	f7fe fa9b 	bl	8000238 <HAL_GetTick>
 8001d02:	4607      	mov	r7, r0
 8001d04:	6823      	ldr	r3, [r4, #0]
 8001d06:	055b      	lsls	r3, r3, #21
 8001d08:	f57f af62 	bpl.w	8001bd0 <HAL_RCC_OscConfig+0x118>
 8001d0c:	f7fe fa94 	bl	8000238 <HAL_GetTick>
 8001d10:	1bc0      	subs	r0, r0, r7
 8001d12:	2802      	cmp	r0, #2
 8001d14:	d9f6      	bls.n	8001d04 <HAL_RCC_OscConfig+0x24c>
 8001d16:	e773      	b.n	8001c00 <HAL_RCC_OscConfig+0x148>
 8001d18:	40021000 	.word	0x40021000
 8001d1c:	08007a58 	.word	0x08007a58
 8001d20:	2000011c 	.word	0x2000011c
 8001d24:	20000004 	.word	0x20000004
 8001d28:	696b      	ldr	r3, [r5, #20]
 8001d2a:	b19b      	cbz	r3, 8001d54 <HAL_RCC_OscConfig+0x29c>
 8001d2c:	f8d4 3094 	ldr.w	r3, [r4, #148]	; 0x94
 8001d30:	f043 0301 	orr.w	r3, r3, #1
 8001d34:	f8c4 3094 	str.w	r3, [r4, #148]	; 0x94
 8001d38:	f7fe fa7e 	bl	8000238 <HAL_GetTick>
 8001d3c:	4607      	mov	r7, r0
 8001d3e:	f8d4 3094 	ldr.w	r3, [r4, #148]	; 0x94
 8001d42:	079a      	lsls	r2, r3, #30
 8001d44:	f53f af48 	bmi.w	8001bd8 <HAL_RCC_OscConfig+0x120>
 8001d48:	f7fe fa76 	bl	8000238 <HAL_GetTick>
 8001d4c:	1bc0      	subs	r0, r0, r7
 8001d4e:	2802      	cmp	r0, #2
 8001d50:	d9f5      	bls.n	8001d3e <HAL_RCC_OscConfig+0x286>
 8001d52:	e755      	b.n	8001c00 <HAL_RCC_OscConfig+0x148>
 8001d54:	f8d4 3094 	ldr.w	r3, [r4, #148]	; 0x94
 8001d58:	f023 0301 	bic.w	r3, r3, #1
 8001d5c:	f8c4 3094 	str.w	r3, [r4, #148]	; 0x94
 8001d60:	f7fe fa6a 	bl	8000238 <HAL_GetTick>
 8001d64:	4607      	mov	r7, r0
 8001d66:	f8d4 3094 	ldr.w	r3, [r4, #148]	; 0x94
 8001d6a:	079b      	lsls	r3, r3, #30
 8001d6c:	f57f af34 	bpl.w	8001bd8 <HAL_RCC_OscConfig+0x120>
 8001d70:	f7fe fa62 	bl	8000238 <HAL_GetTick>
 8001d74:	1bc0      	subs	r0, r0, r7
 8001d76:	2802      	cmp	r0, #2
 8001d78:	d9f5      	bls.n	8001d66 <HAL_RCC_OscConfig+0x2ae>
 8001d7a:	e741      	b.n	8001c00 <HAL_RCC_OscConfig+0x148>
 8001d7c:	6da3      	ldr	r3, [r4, #88]	; 0x58
 8001d7e:	00df      	lsls	r7, r3, #3
 8001d80:	d429      	bmi.n	8001dd6 <HAL_RCC_OscConfig+0x31e>
 8001d82:	6da3      	ldr	r3, [r4, #88]	; 0x58
 8001d84:	f043 5380 	orr.w	r3, r3, #268435456	; 0x10000000
 8001d88:	65a3      	str	r3, [r4, #88]	; 0x58
 8001d8a:	6da3      	ldr	r3, [r4, #88]	; 0x58
 8001d8c:	f003 5380 	and.w	r3, r3, #268435456	; 0x10000000
 8001d90:	9301      	str	r3, [sp, #4]
 8001d92:	9b01      	ldr	r3, [sp, #4]
 8001d94:	f04f 0801 	mov.w	r8, #1
 8001d98:	4f9c      	ldr	r7, [pc, #624]	; (800200c <HAL_RCC_OscConfig+0x554>)
 8001d9a:	683b      	ldr	r3, [r7, #0]
 8001d9c:	05d8      	lsls	r0, r3, #23
 8001d9e:	d51d      	bpl.n	8001ddc <HAL_RCC_OscConfig+0x324>
 8001da0:	68ab      	ldr	r3, [r5, #8]
 8001da2:	2b01      	cmp	r3, #1
 8001da4:	d12b      	bne.n	8001dfe <HAL_RCC_OscConfig+0x346>
 8001da6:	f8d4 3090 	ldr.w	r3, [r4, #144]	; 0x90
 8001daa:	f043 0301 	orr.w	r3, r3, #1
 8001dae:	f8c4 3090 	str.w	r3, [r4, #144]	; 0x90
 8001db2:	f7fe fa41 	bl	8000238 <HAL_GetTick>
 8001db6:	f241 3988 	movw	r9, #5000	; 0x1388
 8001dba:	4607      	mov	r7, r0
 8001dbc:	f8d4 3090 	ldr.w	r3, [r4, #144]	; 0x90
 8001dc0:	079a      	lsls	r2, r3, #30
 8001dc2:	d542      	bpl.n	8001e4a <HAL_RCC_OscConfig+0x392>
 8001dc4:	f1b8 0f00 	cmp.w	r8, #0
 8001dc8:	f43f af0a 	beq.w	8001be0 <HAL_RCC_OscConfig+0x128>
 8001dcc:	6da3      	ldr	r3, [r4, #88]	; 0x58
 8001dce:	f023 5380 	bic.w	r3, r3, #268435456	; 0x10000000
 8001dd2:	65a3      	str	r3, [r4, #88]	; 0x58
 8001dd4:	e704      	b.n	8001be0 <HAL_RCC_OscConfig+0x128>
 8001dd6:	f04f 0800 	mov.w	r8, #0
 8001dda:	e7dd      	b.n	8001d98 <HAL_RCC_OscConfig+0x2e0>
 8001ddc:	683b      	ldr	r3, [r7, #0]
 8001dde:	f443 7380 	orr.w	r3, r3, #256	; 0x100
 8001de2:	603b      	str	r3, [r7, #0]
 8001de4:	f7fe fa28 	bl	8000238 <HAL_GetTick>
 8001de8:	4681      	mov	r9, r0
 8001dea:	683b      	ldr	r3, [r7, #0]
 8001dec:	05d9      	lsls	r1, r3, #23
 8001dee:	d4d7      	bmi.n	8001da0 <HAL_RCC_OscConfig+0x2e8>
 8001df0:	f7fe fa22 	bl	8000238 <HAL_GetTick>
 8001df4:	eba0 0009 	sub.w	r0, r0, r9
 8001df8:	2802      	cmp	r0, #2
 8001dfa:	d9f6      	bls.n	8001dea <HAL_RCC_OscConfig+0x332>
 8001dfc:	e700      	b.n	8001c00 <HAL_RCC_OscConfig+0x148>
 8001dfe:	2b05      	cmp	r3, #5
 8001e00:	d106      	bne.n	8001e10 <HAL_RCC_OscConfig+0x358>
 8001e02:	f8d4 3090 	ldr.w	r3, [r4, #144]	; 0x90
 8001e06:	f043 0304 	orr.w	r3, r3, #4
 8001e0a:	f8c4 3090 	str.w	r3, [r4, #144]	; 0x90
 8001e0e:	e7ca      	b.n	8001da6 <HAL_RCC_OscConfig+0x2ee>
 8001e10:	f8d4 2090 	ldr.w	r2, [r4, #144]	; 0x90
 8001e14:	f022 0201 	bic.w	r2, r2, #1
 8001e18:	f8c4 2090 	str.w	r2, [r4, #144]	; 0x90
 8001e1c:	f8d4 2090 	ldr.w	r2, [r4, #144]	; 0x90
 8001e20:	f022 0204 	bic.w	r2, r2, #4
 8001e24:	f8c4 2090 	str.w	r2, [r4, #144]	; 0x90
 8001e28:	2b00      	cmp	r3, #0
 8001e2a:	d1c2      	bne.n	8001db2 <HAL_RCC_OscConfig+0x2fa>
 8001e2c:	f7fe fa04 	bl	8000238 <HAL_GetTick>
 8001e30:	f241 3988 	movw	r9, #5000	; 0x1388
 8001e34:	4607      	mov	r7, r0
 8001e36:	f8d4 3090 	ldr.w	r3, [r4, #144]	; 0x90
 8001e3a:	079b      	lsls	r3, r3, #30
 8001e3c:	d5c2      	bpl.n	8001dc4 <HAL_RCC_OscConfig+0x30c>
 8001e3e:	f7fe f9fb 	bl	8000238 <HAL_GetTick>
 8001e42:	1bc0      	subs	r0, r0, r7
 8001e44:	4548      	cmp	r0, r9
 8001e46:	d9f6      	bls.n	8001e36 <HAL_RCC_OscConfig+0x37e>
 8001e48:	e6da      	b.n	8001c00 <HAL_RCC_OscConfig+0x148>
 8001e4a:	f7fe f9f5 	bl	8000238 <HAL_GetTick>
 8001e4e:	1bc0      	subs	r0, r0, r7
 8001e50:	4548      	cmp	r0, r9
 8001e52:	d9b3      	bls.n	8001dbc <HAL_RCC_OscConfig+0x304>
 8001e54:	e6d4      	b.n	8001c00 <HAL_RCC_OscConfig+0x148>
 8001e56:	6a6b      	ldr	r3, [r5, #36]	; 0x24
 8001e58:	b19b      	cbz	r3, 8001e82 <HAL_RCC_OscConfig+0x3ca>
 8001e5a:	f8d4 3098 	ldr.w	r3, [r4, #152]	; 0x98
 8001e5e:	f043 0301 	orr.w	r3, r3, #1
 8001e62:	f8c4 3098 	str.w	r3, [r4, #152]	; 0x98
 8001e66:	f7fe f9e7 	bl	8000238 <HAL_GetTick>
 8001e6a:	4607      	mov	r7, r0
 8001e6c:	f8d4 3098 	ldr.w	r3, [r4, #152]	; 0x98
 8001e70:	0798      	lsls	r0, r3, #30
 8001e72:	f53f aeb9 	bmi.w	8001be8 <HAL_RCC_OscConfig+0x130>
 8001e76:	f7fe f9df 	bl	8000238 <HAL_GetTick>
 8001e7a:	1bc0      	subs	r0, r0, r7
 8001e7c:	2802      	cmp	r0, #2
 8001e7e:	d9f5      	bls.n	8001e6c <HAL_RCC_OscConfig+0x3b4>
 8001e80:	e6be      	b.n	8001c00 <HAL_RCC_OscConfig+0x148>
 8001e82:	f8d4 3098 	ldr.w	r3, [r4, #152]	; 0x98
 8001e86:	f023 0301 	bic.w	r3, r3, #1
 8001e8a:	f8c4 3098 	str.w	r3, [r4, #152]	; 0x98
 8001e8e:	f7fe f9d3 	bl	8000238 <HAL_GetTick>
 8001e92:	4607      	mov	r7, r0
 8001e94:	f8d4 3098 	ldr.w	r3, [r4, #152]	; 0x98
 8001e98:	0799      	lsls	r1, r3, #30
 8001e9a:	f57f aea5 	bpl.w	8001be8 <HAL_RCC_OscConfig+0x130>
 8001e9e:	f7fe f9cb 	bl	8000238 <HAL_GetTick>
 8001ea2:	1bc0      	subs	r0, r0, r7
 8001ea4:	2802      	cmp	r0, #2
 8001ea6:	d9f5      	bls.n	8001e94 <HAL_RCC_OscConfig+0x3dc>
 8001ea8:	e6aa      	b.n	8001c00 <HAL_RCC_OscConfig+0x148>
 8001eaa:	2b02      	cmp	r3, #2
 8001eac:	f040 808c 	bne.w	8001fc8 <HAL_RCC_OscConfig+0x510>
 8001eb0:	68e3      	ldr	r3, [r4, #12]
 8001eb2:	6aea      	ldr	r2, [r5, #44]	; 0x2c
 8001eb4:	f003 0103 	and.w	r1, r3, #3
 8001eb8:	4291      	cmp	r1, r2
 8001eba:	d122      	bne.n	8001f02 <HAL_RCC_OscConfig+0x44a>
 8001ebc:	6b29      	ldr	r1, [r5, #48]	; 0x30
 8001ebe:	f003 0270 	and.w	r2, r3, #112	; 0x70
 8001ec2:	3901      	subs	r1, #1
 8001ec4:	ebb2 1f01 	cmp.w	r2, r1, lsl #4
 8001ec8:	d11b      	bne.n	8001f02 <HAL_RCC_OscConfig+0x44a>
 8001eca:	6b69      	ldr	r1, [r5, #52]	; 0x34
 8001ecc:	f403 42fe 	and.w	r2, r3, #32512	; 0x7f00
 8001ed0:	ebb2 2f01 	cmp.w	r2, r1, lsl #8
 8001ed4:	d115      	bne.n	8001f02 <HAL_RCC_OscConfig+0x44a>
 8001ed6:	6ba9      	ldr	r1, [r5, #56]	; 0x38
 8001ed8:	f003 4278 	and.w	r2, r3, #4160749568	; 0xf8000000
 8001edc:	ebb2 6fc1 	cmp.w	r2, r1, lsl #27
 8001ee0:	d10f      	bne.n	8001f02 <HAL_RCC_OscConfig+0x44a>
 8001ee2:	6bea      	ldr	r2, [r5, #60]	; 0x3c
 8001ee4:	0852      	lsrs	r2, r2, #1
 8001ee6:	f403 01c0 	and.w	r1, r3, #6291456	; 0x600000
 8001eea:	3a01      	subs	r2, #1
 8001eec:	ebb1 5f42 	cmp.w	r1, r2, lsl #21
 8001ef0:	d107      	bne.n	8001f02 <HAL_RCC_OscConfig+0x44a>
 8001ef2:	6c2a      	ldr	r2, [r5, #64]	; 0x40
 8001ef4:	0852      	lsrs	r2, r2, #1
 8001ef6:	f003 63c0 	and.w	r3, r3, #100663296	; 0x6000000
 8001efa:	3a01      	subs	r2, #1
 8001efc:	ebb3 6f42 	cmp.w	r3, r2, lsl #25
 8001f00:	d049      	beq.n	8001f96 <HAL_RCC_OscConfig+0x4de>
 8001f02:	2e0c      	cmp	r6, #12
 8001f04:	f43f addc 	beq.w	8001ac0 <HAL_RCC_OscConfig+0x8>
 8001f08:	6823      	ldr	r3, [r4, #0]
 8001f0a:	015a      	lsls	r2, r3, #5
 8001f0c:	f53f add8 	bmi.w	8001ac0 <HAL_RCC_OscConfig+0x8>
 8001f10:	6823      	ldr	r3, [r4, #0]
 8001f12:	00db      	lsls	r3, r3, #3
 8001f14:	f53f add4 	bmi.w	8001ac0 <HAL_RCC_OscConfig+0x8>
 8001f18:	6823      	ldr	r3, [r4, #0]
 8001f1a:	f023 7380 	bic.w	r3, r3, #16777216	; 0x1000000
 8001f1e:	6023      	str	r3, [r4, #0]
 8001f20:	f7fe f98a 	bl	8000238 <HAL_GetTick>
 8001f24:	4606      	mov	r6, r0
 8001f26:	6823      	ldr	r3, [r4, #0]
 8001f28:	019f      	lsls	r7, r3, #6
 8001f2a:	d42e      	bmi.n	8001f8a <HAL_RCC_OscConfig+0x4d2>
 8001f2c:	68e2      	ldr	r2, [r4, #12]
 8001f2e:	4b38      	ldr	r3, [pc, #224]	; (8002010 <HAL_RCC_OscConfig+0x558>)
 8001f30:	4013      	ands	r3, r2
 8001f32:	6aea      	ldr	r2, [r5, #44]	; 0x2c
 8001f34:	4313      	orrs	r3, r2
 8001f36:	6b6a      	ldr	r2, [r5, #52]	; 0x34
 8001f38:	ea43 2302 	orr.w	r3, r3, r2, lsl #8
 8001f3c:	6baa      	ldr	r2, [r5, #56]	; 0x38
 8001f3e:	ea43 63c2 	orr.w	r3, r3, r2, lsl #27
 8001f42:	6b2a      	ldr	r2, [r5, #48]	; 0x30
 8001f44:	3a01      	subs	r2, #1
 8001f46:	ea43 1302 	orr.w	r3, r3, r2, lsl #4
 8001f4a:	6bea      	ldr	r2, [r5, #60]	; 0x3c
 8001f4c:	0852      	lsrs	r2, r2, #1
 8001f4e:	3a01      	subs	r2, #1
 8001f50:	ea43 5342 	orr.w	r3, r3, r2, lsl #21
 8001f54:	6c2a      	ldr	r2, [r5, #64]	; 0x40
 8001f56:	0852      	lsrs	r2, r2, #1
 8001f58:	3a01      	subs	r2, #1
 8001f5a:	ea43 6342 	orr.w	r3, r3, r2, lsl #25
 8001f5e:	60e3      	str	r3, [r4, #12]
 8001f60:	6823      	ldr	r3, [r4, #0]
 8001f62:	f043 7380 	orr.w	r3, r3, #16777216	; 0x1000000
 8001f66:	6023      	str	r3, [r4, #0]
 8001f68:	68e3      	ldr	r3, [r4, #12]
 8001f6a:	f043 7380 	orr.w	r3, r3, #16777216	; 0x1000000
 8001f6e:	60e3      	str	r3, [r4, #12]
 8001f70:	f7fe f962 	bl	8000238 <HAL_GetTick>
 8001f74:	4605      	mov	r5, r0
 8001f76:	6823      	ldr	r3, [r4, #0]
 8001f78:	0198      	lsls	r0, r3, #6
 8001f7a:	f53f ae39 	bmi.w	8001bf0 <HAL_RCC_OscConfig+0x138>
 8001f7e:	f7fe f95b 	bl	8000238 <HAL_GetTick>
 8001f82:	1b40      	subs	r0, r0, r5
 8001f84:	2802      	cmp	r0, #2
 8001f86:	d9f6      	bls.n	8001f76 <HAL_RCC_OscConfig+0x4be>
 8001f88:	e63a      	b.n	8001c00 <HAL_RCC_OscConfig+0x148>
 8001f8a:	f7fe f955 	bl	8000238 <HAL_GetTick>
 8001f8e:	1b80      	subs	r0, r0, r6
 8001f90:	2802      	cmp	r0, #2
 8001f92:	d9c8      	bls.n	8001f26 <HAL_RCC_OscConfig+0x46e>
 8001f94:	e634      	b.n	8001c00 <HAL_RCC_OscConfig+0x148>
 8001f96:	6823      	ldr	r3, [r4, #0]
 8001f98:	0199      	lsls	r1, r3, #6
 8001f9a:	f53f ae29 	bmi.w	8001bf0 <HAL_RCC_OscConfig+0x138>
 8001f9e:	6823      	ldr	r3, [r4, #0]
 8001fa0:	f043 7380 	orr.w	r3, r3, #16777216	; 0x1000000
 8001fa4:	6023      	str	r3, [r4, #0]
 8001fa6:	68e3      	ldr	r3, [r4, #12]
 8001fa8:	f043 7380 	orr.w	r3, r3, #16777216	; 0x1000000
 8001fac:	60e3      	str	r3, [r4, #12]
 8001fae:	f7fe f943 	bl	8000238 <HAL_GetTick>
 8001fb2:	4605      	mov	r5, r0
 8001fb4:	6823      	ldr	r3, [r4, #0]
 8001fb6:	019a      	lsls	r2, r3, #6
 8001fb8:	f53f ae1a 	bmi.w	8001bf0 <HAL_RCC_OscConfig+0x138>
 8001fbc:	f7fe f93c 	bl	8000238 <HAL_GetTick>
 8001fc0:	1b40      	subs	r0, r0, r5
 8001fc2:	2802      	cmp	r0, #2
 8001fc4:	d9f6      	bls.n	8001fb4 <HAL_RCC_OscConfig+0x4fc>
 8001fc6:	e61b      	b.n	8001c00 <HAL_RCC_OscConfig+0x148>
 8001fc8:	2e0c      	cmp	r6, #12
 8001fca:	f43f ad79 	beq.w	8001ac0 <HAL_RCC_OscConfig+0x8>
 8001fce:	6823      	ldr	r3, [r4, #0]
 8001fd0:	f023 7380 	bic.w	r3, r3, #16777216	; 0x1000000
 8001fd4:	6023      	str	r3, [r4, #0]
 8001fd6:	6823      	ldr	r3, [r4, #0]
 8001fd8:	f013 5f20 	tst.w	r3, #671088640	; 0x28000000
 8001fdc:	bf02      	ittt	eq
 8001fde:	68e3      	ldreq	r3, [r4, #12]
 8001fe0:	f023 0303 	biceq.w	r3, r3, #3
 8001fe4:	60e3      	streq	r3, [r4, #12]
 8001fe6:	68e3      	ldr	r3, [r4, #12]
 8001fe8:	f023 7388 	bic.w	r3, r3, #17825792	; 0x1100000
 8001fec:	f423 3380 	bic.w	r3, r3, #65536	; 0x10000
 8001ff0:	60e3      	str	r3, [r4, #12]
 8001ff2:	f7fe f921 	bl	8000238 <HAL_GetTick>
 8001ff6:	4605      	mov	r5, r0
 8001ff8:	6823      	ldr	r3, [r4, #0]
 8001ffa:	019b      	lsls	r3, r3, #6
 8001ffc:	f57f adf8 	bpl.w	8001bf0 <HAL_RCC_OscConfig+0x138>
 8002000:	f7fe f91a 	bl	8000238 <HAL_GetTick>
 8002004:	1b40      	subs	r0, r0, r5
 8002006:	2802      	cmp	r0, #2
 8002008:	d9f6      	bls.n	8001ff8 <HAL_RCC_OscConfig+0x540>
 800200a:	e5f9      	b.n	8001c00 <HAL_RCC_OscConfig+0x148>
 800200c:	40007000 	.word	0x40007000
 8002010:	019d808c 	.word	0x019d808c

08002014 <HAL_RCC_ClockConfig>:
 8002014:	e92d 41f0 	stmdb	sp!, {r4, r5, r6, r7, r8, lr}
 8002018:	460d      	mov	r5, r1
 800201a:	4604      	mov	r4, r0
 800201c:	b910      	cbnz	r0, 8002024 <HAL_RCC_ClockConfig+0x10>
 800201e:	2001      	movs	r0, #1
 8002020:	e8bd 81f0 	ldmia.w	sp!, {r4, r5, r6, r7, r8, pc}
 8002024:	4a40      	ldr	r2, [pc, #256]	; (8002128 <HAL_RCC_ClockConfig+0x114>)
 8002026:	6813      	ldr	r3, [r2, #0]
 8002028:	f003 0307 	and.w	r3, r3, #7
 800202c:	428b      	cmp	r3, r1
 800202e:	d32a      	bcc.n	8002086 <HAL_RCC_ClockConfig+0x72>
 8002030:	6823      	ldr	r3, [r4, #0]
 8002032:	07d9      	lsls	r1, r3, #31
 8002034:	d432      	bmi.n	800209c <HAL_RCC_ClockConfig+0x88>
 8002036:	6821      	ldr	r1, [r4, #0]
 8002038:	078a      	lsls	r2, r1, #30
 800203a:	d45b      	bmi.n	80020f4 <HAL_RCC_ClockConfig+0xe0>
 800203c:	4a3a      	ldr	r2, [pc, #232]	; (8002128 <HAL_RCC_ClockConfig+0x114>)
 800203e:	6813      	ldr	r3, [r2, #0]
 8002040:	f003 0307 	and.w	r3, r3, #7
 8002044:	42ab      	cmp	r3, r5
 8002046:	d85d      	bhi.n	8002104 <HAL_RCC_ClockConfig+0xf0>
 8002048:	f011 0f04 	tst.w	r1, #4
 800204c:	4d37      	ldr	r5, [pc, #220]	; (800212c <HAL_RCC_ClockConfig+0x118>)
 800204e:	d164      	bne.n	800211a <HAL_RCC_ClockConfig+0x106>
 8002050:	070b      	lsls	r3, r1, #28
 8002052:	d506      	bpl.n	8002062 <HAL_RCC_ClockConfig+0x4e>
 8002054:	68ab      	ldr	r3, [r5, #8]
 8002056:	6922      	ldr	r2, [r4, #16]
 8002058:	f423 5360 	bic.w	r3, r3, #14336	; 0x3800
 800205c:	ea43 03c2 	orr.w	r3, r3, r2, lsl #3
 8002060:	60ab      	str	r3, [r5, #8]
 8002062:	f7ff fcdb 	bl	8001a1c <HAL_RCC_GetSysClockFreq>
 8002066:	68ab      	ldr	r3, [r5, #8]
 8002068:	4a31      	ldr	r2, [pc, #196]	; (8002130 <HAL_RCC_ClockConfig+0x11c>)
 800206a:	f3c3 1303 	ubfx	r3, r3, #4, #4
 800206e:	e8bd 41f0 	ldmia.w	sp!, {r4, r5, r6, r7, r8, lr}
 8002072:	5cd3      	ldrb	r3, [r2, r3]
 8002074:	f003 031f 	and.w	r3, r3, #31
 8002078:	40d8      	lsrs	r0, r3
 800207a:	4b2e      	ldr	r3, [pc, #184]	; (8002134 <HAL_RCC_ClockConfig+0x120>)
 800207c:	6018      	str	r0, [r3, #0]
 800207e:	4b2e      	ldr	r3, [pc, #184]	; (8002138 <HAL_RCC_ClockConfig+0x124>)
 8002080:	6818      	ldr	r0, [r3, #0]
 8002082:	f004 bf95 	b.w	8006fb0 <HAL_InitTick>
 8002086:	6813      	ldr	r3, [r2, #0]
 8002088:	f023 0307 	bic.w	r3, r3, #7
 800208c:	430b      	orrs	r3, r1
 800208e:	6013      	str	r3, [r2, #0]
 8002090:	6813      	ldr	r3, [r2, #0]
 8002092:	f003 0307 	and.w	r3, r3, #7
 8002096:	428b      	cmp	r3, r1
 8002098:	d1c1      	bne.n	800201e <HAL_RCC_ClockConfig+0xa>
 800209a:	e7c9      	b.n	8002030 <HAL_RCC_ClockConfig+0x1c>
 800209c:	6862      	ldr	r2, [r4, #4]
 800209e:	4e23      	ldr	r6, [pc, #140]	; (800212c <HAL_RCC_ClockConfig+0x118>)
 80020a0:	2a03      	cmp	r2, #3
 80020a2:	6833      	ldr	r3, [r6, #0]
 80020a4:	d11a      	bne.n	80020dc <HAL_RCC_ClockConfig+0xc8>
 80020a6:	f013 7f00 	tst.w	r3, #33554432	; 0x2000000
 80020aa:	d0b8      	beq.n	800201e <HAL_RCC_ClockConfig+0xa>
 80020ac:	68b3      	ldr	r3, [r6, #8]
 80020ae:	f023 0303 	bic.w	r3, r3, #3
 80020b2:	4313      	orrs	r3, r2
 80020b4:	60b3      	str	r3, [r6, #8]
 80020b6:	f7fe f8bf 	bl	8000238 <HAL_GetTick>
 80020ba:	f241 3888 	movw	r8, #5000	; 0x1388
 80020be:	4607      	mov	r7, r0
 80020c0:	68b3      	ldr	r3, [r6, #8]
 80020c2:	6862      	ldr	r2, [r4, #4]
 80020c4:	f003 030c 	and.w	r3, r3, #12
 80020c8:	ebb3 0f82 	cmp.w	r3, r2, lsl #2
 80020cc:	d0b3      	beq.n	8002036 <HAL_RCC_ClockConfig+0x22>
 80020ce:	f7fe f8b3 	bl	8000238 <HAL_GetTick>
 80020d2:	1bc0      	subs	r0, r0, r7
 80020d4:	4540      	cmp	r0, r8
 80020d6:	d9f3      	bls.n	80020c0 <HAL_RCC_ClockConfig+0xac>
 80020d8:	2003      	movs	r0, #3
 80020da:	e7a1      	b.n	8002020 <HAL_RCC_ClockConfig+0xc>
 80020dc:	2a02      	cmp	r2, #2
 80020de:	d102      	bne.n	80020e6 <HAL_RCC_ClockConfig+0xd2>
 80020e0:	f413 3f00 	tst.w	r3, #131072	; 0x20000
 80020e4:	e7e1      	b.n	80020aa <HAL_RCC_ClockConfig+0x96>
 80020e6:	b912      	cbnz	r2, 80020ee <HAL_RCC_ClockConfig+0xda>
 80020e8:	f013 0f02 	tst.w	r3, #2
 80020ec:	e7dd      	b.n	80020aa <HAL_RCC_ClockConfig+0x96>
 80020ee:	f413 6f80 	tst.w	r3, #1024	; 0x400
 80020f2:	e7da      	b.n	80020aa <HAL_RCC_ClockConfig+0x96>
 80020f4:	4a0d      	ldr	r2, [pc, #52]	; (800212c <HAL_RCC_ClockConfig+0x118>)
 80020f6:	68a0      	ldr	r0, [r4, #8]
 80020f8:	6893      	ldr	r3, [r2, #8]
 80020fa:	f023 03f0 	bic.w	r3, r3, #240	; 0xf0
 80020fe:	4303      	orrs	r3, r0
 8002100:	6093      	str	r3, [r2, #8]
 8002102:	e79b      	b.n	800203c <HAL_RCC_ClockConfig+0x28>
 8002104:	6813      	ldr	r3, [r2, #0]
 8002106:	f023 0307 	bic.w	r3, r3, #7
 800210a:	432b      	orrs	r3, r5
 800210c:	6013      	str	r3, [r2, #0]
 800210e:	6813      	ldr	r3, [r2, #0]
 8002110:	f003 0307 	and.w	r3, r3, #7
 8002114:	42ab      	cmp	r3, r5
 8002116:	d182      	bne.n	800201e <HAL_RCC_ClockConfig+0xa>
 8002118:	e796      	b.n	8002048 <HAL_RCC_ClockConfig+0x34>
 800211a:	68ab      	ldr	r3, [r5, #8]
 800211c:	68e2      	ldr	r2, [r4, #12]
 800211e:	f423 63e0 	bic.w	r3, r3, #1792	; 0x700
 8002122:	4313      	orrs	r3, r2
 8002124:	60ab      	str	r3, [r5, #8]
 8002126:	e793      	b.n	8002050 <HAL_RCC_ClockConfig+0x3c>
 8002128:	40022000 	.word	0x40022000
 800212c:	40021000 	.word	0x40021000
 8002130:	08007a58 	.word	0x08007a58
 8002134:	2000011c 	.word	0x2000011c
 8002138:	20000004 	.word	0x20000004

0800213c <HAL_RCC_GetHCLKFreq>:
 800213c:	4b01      	ldr	r3, [pc, #4]	; (8002144 <HAL_RCC_GetHCLKFreq+0x8>)
 800213e:	6818      	ldr	r0, [r3, #0]
 8002140:	4770      	bx	lr
 8002142:	bf00      	nop
 8002144:	2000011c 	.word	0x2000011c

08002148 <HAL_RCC_GetPCLK2Freq>:
 8002148:	4b05      	ldr	r3, [pc, #20]	; (8002160 <HAL_RCC_GetPCLK2Freq+0x18>)
 800214a:	4a06      	ldr	r2, [pc, #24]	; (8002164 <HAL_RCC_GetPCLK2Freq+0x1c>)
 800214c:	689b      	ldr	r3, [r3, #8]
 800214e:	f3c3 23c2 	ubfx	r3, r3, #11, #3
 8002152:	5cd3      	ldrb	r3, [r2, r3]
 8002154:	4a04      	ldr	r2, [pc, #16]	; (8002168 <HAL_RCC_GetPCLK2Freq+0x20>)
 8002156:	6810      	ldr	r0, [r2, #0]
 8002158:	f003 031f 	and.w	r3, r3, #31
 800215c:	40d8      	lsrs	r0, r3
 800215e:	4770      	bx	lr
 8002160:	40021000 	.word	0x40021000
 8002164:	08007a68 	.word	0x08007a68
 8002168:	2000011c 	.word	0x2000011c

0800216c <HAL_RCC_GetClockConfig>:
 800216c:	230f      	movs	r3, #15
 800216e:	6003      	str	r3, [r0, #0]
 8002170:	4b0b      	ldr	r3, [pc, #44]	; (80021a0 <HAL_RCC_GetClockConfig+0x34>)
 8002172:	689a      	ldr	r2, [r3, #8]
 8002174:	f002 0203 	and.w	r2, r2, #3
 8002178:	6042      	str	r2, [r0, #4]
 800217a:	689a      	ldr	r2, [r3, #8]
 800217c:	f002 02f0 	and.w	r2, r2, #240	; 0xf0
 8002180:	6082      	str	r2, [r0, #8]
 8002182:	689a      	ldr	r2, [r3, #8]
 8002184:	f402 62e0 	and.w	r2, r2, #1792	; 0x700
 8002188:	60c2      	str	r2, [r0, #12]
 800218a:	689b      	ldr	r3, [r3, #8]
 800218c:	08db      	lsrs	r3, r3, #3
 800218e:	f403 63e0 	and.w	r3, r3, #1792	; 0x700
 8002192:	6103      	str	r3, [r0, #16]
 8002194:	4b03      	ldr	r3, [pc, #12]	; (80021a4 <HAL_RCC_GetClockConfig+0x38>)
 8002196:	681b      	ldr	r3, [r3, #0]
 8002198:	f003 0307 	and.w	r3, r3, #7
 800219c:	600b      	str	r3, [r1, #0]
 800219e:	4770      	bx	lr
 80021a0:	40021000 	.word	0x40021000
 80021a4:	40022000 	.word	0x40022000

080021a8 <RCCEx_PLLSAI1_Config>:
 80021a8:	b5f8      	push	{r3, r4, r5, r6, r7, lr}
 80021aa:	4c43      	ldr	r4, [pc, #268]	; (80022b8 <RCCEx_PLLSAI1_Config+0x110>)
 80021ac:	6803      	ldr	r3, [r0, #0]
 80021ae:	68e2      	ldr	r2, [r4, #12]
 80021b0:	4605      	mov	r5, r0
 80021b2:	0790      	lsls	r0, r2, #30
 80021b4:	460e      	mov	r6, r1
 80021b6:	d039      	beq.n	800222c <RCCEx_PLLSAI1_Config+0x84>
 80021b8:	68e2      	ldr	r2, [r4, #12]
 80021ba:	f002 0203 	and.w	r2, r2, #3
 80021be:	429a      	cmp	r2, r3
 80021c0:	d177      	bne.n	80022b2 <RCCEx_PLLSAI1_Config+0x10a>
 80021c2:	2a00      	cmp	r2, #0
 80021c4:	d075      	beq.n	80022b2 <RCCEx_PLLSAI1_Config+0x10a>
 80021c6:	68e3      	ldr	r3, [r4, #12]
 80021c8:	686a      	ldr	r2, [r5, #4]
 80021ca:	f3c3 1302 	ubfx	r3, r3, #4, #3
 80021ce:	3301      	adds	r3, #1
 80021d0:	4293      	cmp	r3, r2
 80021d2:	d16e      	bne.n	80022b2 <RCCEx_PLLSAI1_Config+0x10a>
 80021d4:	6823      	ldr	r3, [r4, #0]
 80021d6:	f023 6380 	bic.w	r3, r3, #67108864	; 0x4000000
 80021da:	6023      	str	r3, [r4, #0]
 80021dc:	f7fe f82c 	bl	8000238 <HAL_GetTick>
 80021e0:	4607      	mov	r7, r0
 80021e2:	6823      	ldr	r3, [r4, #0]
 80021e4:	011a      	lsls	r2, r3, #4
 80021e6:	d440      	bmi.n	800226a <RCCEx_PLLSAI1_Config+0xc2>
 80021e8:	68ab      	ldr	r3, [r5, #8]
 80021ea:	0218      	lsls	r0, r3, #8
 80021ec:	2e00      	cmp	r6, #0
 80021ee:	d043      	beq.n	8002278 <RCCEx_PLLSAI1_Config+0xd0>
 80021f0:	2e01      	cmp	r6, #1
 80021f2:	d14c      	bne.n	800228e <RCCEx_PLLSAI1_Config+0xe6>
 80021f4:	692a      	ldr	r2, [r5, #16]
 80021f6:	6921      	ldr	r1, [r4, #16]
 80021f8:	0852      	lsrs	r2, r2, #1
 80021fa:	1e53      	subs	r3, r2, #1
 80021fc:	f421 02c0 	bic.w	r2, r1, #6291456	; 0x600000
 8002200:	f422 42fe 	bic.w	r2, r2, #32512	; 0x7f00
 8002204:	4302      	orrs	r2, r0
 8002206:	ea42 5243 	orr.w	r2, r2, r3, lsl #21
 800220a:	6122      	str	r2, [r4, #16]
 800220c:	6823      	ldr	r3, [r4, #0]
 800220e:	f043 6380 	orr.w	r3, r3, #67108864	; 0x4000000
 8002212:	6023      	str	r3, [r4, #0]
 8002214:	f7fe f810 	bl	8000238 <HAL_GetTick>
 8002218:	4606      	mov	r6, r0
 800221a:	6823      	ldr	r3, [r4, #0]
 800221c:	011b      	lsls	r3, r3, #4
 800221e:	d542      	bpl.n	80022a6 <RCCEx_PLLSAI1_Config+0xfe>
 8002220:	6923      	ldr	r3, [r4, #16]
 8002222:	69aa      	ldr	r2, [r5, #24]
 8002224:	4313      	orrs	r3, r2
 8002226:	6123      	str	r3, [r4, #16]
 8002228:	2000      	movs	r0, #0
 800222a:	e024      	b.n	8002276 <RCCEx_PLLSAI1_Config+0xce>
 800222c:	2b02      	cmp	r3, #2
 800222e:	d011      	beq.n	8002254 <RCCEx_PLLSAI1_Config+0xac>
 8002230:	2b03      	cmp	r3, #3
 8002232:	d013      	beq.n	800225c <RCCEx_PLLSAI1_Config+0xb4>
 8002234:	2b01      	cmp	r3, #1
 8002236:	d13c      	bne.n	80022b2 <RCCEx_PLLSAI1_Config+0x10a>
 8002238:	6822      	ldr	r2, [r4, #0]
 800223a:	f012 0f02 	tst.w	r2, #2
 800223e:	d038      	beq.n	80022b2 <RCCEx_PLLSAI1_Config+0x10a>
 8002240:	68e0      	ldr	r0, [r4, #12]
 8002242:	686a      	ldr	r2, [r5, #4]
 8002244:	f020 0073 	bic.w	r0, r0, #115	; 0x73
 8002248:	3a01      	subs	r2, #1
 800224a:	4318      	orrs	r0, r3
 800224c:	ea40 1002 	orr.w	r0, r0, r2, lsl #4
 8002250:	60e0      	str	r0, [r4, #12]
 8002252:	e7bf      	b.n	80021d4 <RCCEx_PLLSAI1_Config+0x2c>
 8002254:	6822      	ldr	r2, [r4, #0]
 8002256:	f412 6f80 	tst.w	r2, #1024	; 0x400
 800225a:	e7f0      	b.n	800223e <RCCEx_PLLSAI1_Config+0x96>
 800225c:	6822      	ldr	r2, [r4, #0]
 800225e:	0391      	lsls	r1, r2, #14
 8002260:	d4ee      	bmi.n	8002240 <RCCEx_PLLSAI1_Config+0x98>
 8002262:	6822      	ldr	r2, [r4, #0]
 8002264:	f412 2f80 	tst.w	r2, #262144	; 0x40000
 8002268:	e7e9      	b.n	800223e <RCCEx_PLLSAI1_Config+0x96>
 800226a:	f7fd ffe5 	bl	8000238 <HAL_GetTick>
 800226e:	1bc0      	subs	r0, r0, r7
 8002270:	2802      	cmp	r0, #2
 8002272:	d9b6      	bls.n	80021e2 <RCCEx_PLLSAI1_Config+0x3a>
 8002274:	2003      	movs	r0, #3
 8002276:	bdf8      	pop	{r3, r4, r5, r6, r7, pc}
 8002278:	6922      	ldr	r2, [r4, #16]
 800227a:	68eb      	ldr	r3, [r5, #12]
 800227c:	ea40 63c3 	orr.w	r3, r0, r3, lsl #27
 8002280:	f022 4078 	bic.w	r0, r2, #4160749568	; 0xf8000000
 8002284:	f420 40fe 	bic.w	r0, r0, #32512	; 0x7f00
 8002288:	4303      	orrs	r3, r0
 800228a:	6123      	str	r3, [r4, #16]
 800228c:	e7be      	b.n	800220c <RCCEx_PLLSAI1_Config+0x64>
 800228e:	696b      	ldr	r3, [r5, #20]
 8002290:	6922      	ldr	r2, [r4, #16]
 8002292:	085b      	lsrs	r3, r3, #1
 8002294:	1e59      	subs	r1, r3, #1
 8002296:	f022 63c0 	bic.w	r3, r2, #100663296	; 0x6000000
 800229a:	f423 43fe 	bic.w	r3, r3, #32512	; 0x7f00
 800229e:	4303      	orrs	r3, r0
 80022a0:	ea43 6341 	orr.w	r3, r3, r1, lsl #25
 80022a4:	e7f1      	b.n	800228a <RCCEx_PLLSAI1_Config+0xe2>
 80022a6:	f7fd ffc7 	bl	8000238 <HAL_GetTick>
 80022aa:	1b80      	subs	r0, r0, r6
 80022ac:	2802      	cmp	r0, #2
 80022ae:	d9b4      	bls.n	800221a <RCCEx_PLLSAI1_Config+0x72>
 80022b0:	e7e0      	b.n	8002274 <RCCEx_PLLSAI1_Config+0xcc>
 80022b2:	2001      	movs	r0, #1
 80022b4:	e7df      	b.n	8002276 <RCCEx_PLLSAI1_Config+0xce>
 80022b6:	bf00      	nop
 80022b8:	40021000 	.word	0x40021000

080022bc <RCCEx_PLLSAI2_Config>:
 80022bc:	b5f8      	push	{r3, r4, r5, r6, r7, lr}
 80022be:	4c3b      	ldr	r4, [pc, #236]	; (80023ac <RCCEx_PLLSAI2_Config+0xf0>)
 80022c0:	6803      	ldr	r3, [r0, #0]
 80022c2:	68e2      	ldr	r2, [r4, #12]
 80022c4:	4605      	mov	r5, r0
 80022c6:	0790      	lsls	r0, r2, #30
 80022c8:	460e      	mov	r6, r1
 80022ca:	d026      	beq.n	800231a <RCCEx_PLLSAI2_Config+0x5e>
 80022cc:	68e2      	ldr	r2, [r4, #12]
 80022ce:	f002 0203 	and.w	r2, r2, #3
 80022d2:	429a      	cmp	r2, r3
 80022d4:	d167      	bne.n	80023a6 <RCCEx_PLLSAI2_Config+0xea>
 80022d6:	2a00      	cmp	r2, #0
 80022d8:	d065      	beq.n	80023a6 <RCCEx_PLLSAI2_Config+0xea>
 80022da:	68e3      	ldr	r3, [r4, #12]
 80022dc:	686a      	ldr	r2, [r5, #4]
 80022de:	f3c3 1302 	ubfx	r3, r3, #4, #3
 80022e2:	3301      	adds	r3, #1
 80022e4:	4293      	cmp	r3, r2
 80022e6:	d15e      	bne.n	80023a6 <RCCEx_PLLSAI2_Config+0xea>
 80022e8:	6823      	ldr	r3, [r4, #0]
 80022ea:	f023 5380 	bic.w	r3, r3, #268435456	; 0x10000000
 80022ee:	6023      	str	r3, [r4, #0]
 80022f0:	f7fd ffa2 	bl	8000238 <HAL_GetTick>
 80022f4:	4607      	mov	r7, r0
 80022f6:	6823      	ldr	r3, [r4, #0]
 80022f8:	009a      	lsls	r2, r3, #2
 80022fa:	d42d      	bmi.n	8002358 <RCCEx_PLLSAI2_Config+0x9c>
 80022fc:	68ab      	ldr	r3, [r5, #8]
 80022fe:	0218      	lsls	r0, r3, #8
 8002300:	b38e      	cbz	r6, 8002366 <RCCEx_PLLSAI2_Config+0xaa>
 8002302:	692b      	ldr	r3, [r5, #16]
 8002304:	6962      	ldr	r2, [r4, #20]
 8002306:	085b      	lsrs	r3, r3, #1
 8002308:	1e59      	subs	r1, r3, #1
 800230a:	f022 63c0 	bic.w	r3, r2, #100663296	; 0x6000000
 800230e:	f423 43fe 	bic.w	r3, r3, #32512	; 0x7f00
 8002312:	4303      	orrs	r3, r0
 8002314:	ea43 6341 	orr.w	r3, r3, r1, lsl #25
 8002318:	e02e      	b.n	8002378 <RCCEx_PLLSAI2_Config+0xbc>
 800231a:	2b02      	cmp	r3, #2
 800231c:	d011      	beq.n	8002342 <RCCEx_PLLSAI2_Config+0x86>
 800231e:	2b03      	cmp	r3, #3
 8002320:	d013      	beq.n	800234a <RCCEx_PLLSAI2_Config+0x8e>
 8002322:	2b01      	cmp	r3, #1
 8002324:	d13f      	bne.n	80023a6 <RCCEx_PLLSAI2_Config+0xea>
 8002326:	6822      	ldr	r2, [r4, #0]
 8002328:	f012 0f02 	tst.w	r2, #2
 800232c:	d03b      	beq.n	80023a6 <RCCEx_PLLSAI2_Config+0xea>
 800232e:	68e0      	ldr	r0, [r4, #12]
 8002330:	686a      	ldr	r2, [r5, #4]
 8002332:	f020 0073 	bic.w	r0, r0, #115	; 0x73
 8002336:	3a01      	subs	r2, #1
 8002338:	4318      	orrs	r0, r3
 800233a:	ea40 1002 	orr.w	r0, r0, r2, lsl #4
 800233e:	60e0      	str	r0, [r4, #12]
 8002340:	e7d2      	b.n	80022e8 <RCCEx_PLLSAI2_Config+0x2c>
 8002342:	6822      	ldr	r2, [r4, #0]
 8002344:	f412 6f80 	tst.w	r2, #1024	; 0x400
 8002348:	e7f0      	b.n	800232c <RCCEx_PLLSAI2_Config+0x70>
 800234a:	6822      	ldr	r2, [r4, #0]
 800234c:	0391      	lsls	r1, r2, #14
 800234e:	d4ee      	bmi.n	800232e <RCCEx_PLLSAI2_Config+0x72>
 8002350:	6822      	ldr	r2, [r4, #0]
 8002352:	f412 2f80 	tst.w	r2, #262144	; 0x40000
 8002356:	e7e9      	b.n	800232c <RCCEx_PLLSAI2_Config+0x70>
 8002358:	f7fd ff6e 	bl	8000238 <HAL_GetTick>
 800235c:	1bc0      	subs	r0, r0, r7
 800235e:	2802      	cmp	r0, #2
 8002360:	d9c9      	bls.n	80022f6 <RCCEx_PLLSAI2_Config+0x3a>
 8002362:	2003      	movs	r0, #3
 8002364:	bdf8      	pop	{r3, r4, r5, r6, r7, pc}
 8002366:	6962      	ldr	r2, [r4, #20]
 8002368:	68eb      	ldr	r3, [r5, #12]
 800236a:	ea40 63c3 	orr.w	r3, r0, r3, lsl #27
 800236e:	f022 4078 	bic.w	r0, r2, #4160749568	; 0xf8000000
 8002372:	f420 40fe 	bic.w	r0, r0, #32512	; 0x7f00
 8002376:	4303      	orrs	r3, r0
 8002378:	6163      	str	r3, [r4, #20]
 800237a:	6823      	ldr	r3, [r4, #0]
 800237c:	f043 5380 	orr.w	r3, r3, #268435456	; 0x10000000
 8002380:	6023      	str	r3, [r4, #0]
 8002382:	f7fd ff59 	bl	8000238 <HAL_GetTick>
 8002386:	4606      	mov	r6, r0
 8002388:	6823      	ldr	r3, [r4, #0]
 800238a:	009b      	lsls	r3, r3, #2
 800238c:	d505      	bpl.n	800239a <RCCEx_PLLSAI2_Config+0xde>
 800238e:	6963      	ldr	r3, [r4, #20]
 8002390:	696a      	ldr	r2, [r5, #20]
 8002392:	4313      	orrs	r3, r2
 8002394:	6163      	str	r3, [r4, #20]
 8002396:	2000      	movs	r0, #0
 8002398:	e7e4      	b.n	8002364 <RCCEx_PLLSAI2_Config+0xa8>
 800239a:	f7fd ff4d 	bl	8000238 <HAL_GetTick>
 800239e:	1b80      	subs	r0, r0, r6
 80023a0:	2802      	cmp	r0, #2
 80023a2:	d9f1      	bls.n	8002388 <RCCEx_PLLSAI2_Config+0xcc>
 80023a4:	e7dd      	b.n	8002362 <RCCEx_PLLSAI2_Config+0xa6>
 80023a6:	2001      	movs	r0, #1
 80023a8:	e7dc      	b.n	8002364 <RCCEx_PLLSAI2_Config+0xa8>
 80023aa:	bf00      	nop
 80023ac:	40021000 	.word	0x40021000

080023b0 <HAL_RCCEx_PeriphCLKConfig>:
 80023b0:	e92d 47f3 	stmdb	sp!, {r0, r1, r4, r5, r6, r7, r8, r9, sl, lr}
 80023b4:	6806      	ldr	r6, [r0, #0]
 80023b6:	f416 6600 	ands.w	r6, r6, #2048	; 0x800
 80023ba:	4604      	mov	r4, r0
 80023bc:	d009      	beq.n	80023d2 <HAL_RCCEx_PeriphCLKConfig+0x22>
 80023be:	6e81      	ldr	r1, [r0, #104]	; 0x68
 80023c0:	f5b1 0f00 	cmp.w	r1, #8388608	; 0x800000
 80023c4:	d022      	beq.n	800240c <HAL_RCCEx_PeriphCLKConfig+0x5c>
 80023c6:	d813      	bhi.n	80023f0 <HAL_RCCEx_PeriphCLKConfig+0x40>
 80023c8:	b331      	cbz	r1, 8002418 <HAL_RCCEx_PeriphCLKConfig+0x68>
 80023ca:	f5b1 0f80 	cmp.w	r1, #4194304	; 0x400000
 80023ce:	d02a      	beq.n	8002426 <HAL_RCCEx_PeriphCLKConfig+0x76>
 80023d0:	2601      	movs	r6, #1
 80023d2:	6823      	ldr	r3, [r4, #0]
 80023d4:	04d8      	lsls	r0, r3, #19
 80023d6:	d509      	bpl.n	80023ec <HAL_RCCEx_PeriphCLKConfig+0x3c>
 80023d8:	6ee1      	ldr	r1, [r4, #108]	; 0x6c
 80023da:	f1b1 7f00 	cmp.w	r1, #33554432	; 0x2000000
 80023de:	d02c      	beq.n	800243a <HAL_RCCEx_PeriphCLKConfig+0x8a>
 80023e0:	d826      	bhi.n	8002430 <HAL_RCCEx_PeriphCLKConfig+0x80>
 80023e2:	b381      	cbz	r1, 8002446 <HAL_RCCEx_PeriphCLKConfig+0x96>
 80023e4:	f1b1 7f80 	cmp.w	r1, #16777216	; 0x1000000
 80023e8:	d070      	beq.n	80024cc <HAL_RCCEx_PeriphCLKConfig+0x11c>
 80023ea:	2601      	movs	r6, #1
 80023ec:	4635      	mov	r5, r6
 80023ee:	e039      	b.n	8002464 <HAL_RCCEx_PeriphCLKConfig+0xb4>
 80023f0:	f5b1 0f40 	cmp.w	r1, #12582912	; 0xc00000
 80023f4:	d1ec      	bne.n	80023d0 <HAL_RCCEx_PeriphCLKConfig+0x20>
 80023f6:	4a3b      	ldr	r2, [pc, #236]	; (80024e4 <HAL_RCCEx_PeriphCLKConfig+0x134>)
 80023f8:	6ea1      	ldr	r1, [r4, #104]	; 0x68
 80023fa:	f8d2 3088 	ldr.w	r3, [r2, #136]	; 0x88
 80023fe:	f423 0340 	bic.w	r3, r3, #12582912	; 0xc00000
 8002402:	430b      	orrs	r3, r1
 8002404:	f8c2 3088 	str.w	r3, [r2, #136]	; 0x88
 8002408:	2600      	movs	r6, #0
 800240a:	e7e2      	b.n	80023d2 <HAL_RCCEx_PeriphCLKConfig+0x22>
 800240c:	4a35      	ldr	r2, [pc, #212]	; (80024e4 <HAL_RCCEx_PeriphCLKConfig+0x134>)
 800240e:	68d3      	ldr	r3, [r2, #12]
 8002410:	f443 3380 	orr.w	r3, r3, #65536	; 0x10000
 8002414:	60d3      	str	r3, [r2, #12]
 8002416:	e7ee      	b.n	80023f6 <HAL_RCCEx_PeriphCLKConfig+0x46>
 8002418:	3004      	adds	r0, #4
 800241a:	f7ff fec5 	bl	80021a8 <RCCEx_PLLSAI1_Config>
 800241e:	4606      	mov	r6, r0
 8002420:	2800      	cmp	r0, #0
 8002422:	d1d6      	bne.n	80023d2 <HAL_RCCEx_PeriphCLKConfig+0x22>
 8002424:	e7e7      	b.n	80023f6 <HAL_RCCEx_PeriphCLKConfig+0x46>
 8002426:	2100      	movs	r1, #0
 8002428:	3020      	adds	r0, #32
 800242a:	f7ff ff47 	bl	80022bc <RCCEx_PLLSAI2_Config>
 800242e:	e7f6      	b.n	800241e <HAL_RCCEx_PeriphCLKConfig+0x6e>
 8002430:	f1b1 7f40 	cmp.w	r1, #50331648	; 0x3000000
 8002434:	d1d9      	bne.n	80023ea <HAL_RCCEx_PeriphCLKConfig+0x3a>
 8002436:	4635      	mov	r5, r6
 8002438:	e009      	b.n	800244e <HAL_RCCEx_PeriphCLKConfig+0x9e>
 800243a:	4a2a      	ldr	r2, [pc, #168]	; (80024e4 <HAL_RCCEx_PeriphCLKConfig+0x134>)
 800243c:	68d3      	ldr	r3, [r2, #12]
 800243e:	f443 3380 	orr.w	r3, r3, #65536	; 0x10000
 8002442:	60d3      	str	r3, [r2, #12]
 8002444:	e7f7      	b.n	8002436 <HAL_RCCEx_PeriphCLKConfig+0x86>
 8002446:	1d20      	adds	r0, r4, #4
 8002448:	f7ff feae 	bl	80021a8 <RCCEx_PLLSAI1_Config>
 800244c:	4605      	mov	r5, r0
 800244e:	2d00      	cmp	r5, #0
 8002450:	d142      	bne.n	80024d8 <HAL_RCCEx_PeriphCLKConfig+0x128>
 8002452:	4a24      	ldr	r2, [pc, #144]	; (80024e4 <HAL_RCCEx_PeriphCLKConfig+0x134>)
 8002454:	6ee1      	ldr	r1, [r4, #108]	; 0x6c
 8002456:	f8d2 3088 	ldr.w	r3, [r2, #136]	; 0x88
 800245a:	f023 7340 	bic.w	r3, r3, #50331648	; 0x3000000
 800245e:	430b      	orrs	r3, r1
 8002460:	f8c2 3088 	str.w	r3, [r2, #136]	; 0x88
 8002464:	6823      	ldr	r3, [r4, #0]
 8002466:	0399      	lsls	r1, r3, #14
 8002468:	f140 816a 	bpl.w	8002740 <HAL_RCCEx_PeriphCLKConfig+0x390>
 800246c:	4f1d      	ldr	r7, [pc, #116]	; (80024e4 <HAL_RCCEx_PeriphCLKConfig+0x134>)
 800246e:	6dbb      	ldr	r3, [r7, #88]	; 0x58
 8002470:	00da      	lsls	r2, r3, #3
 8002472:	d433      	bmi.n	80024dc <HAL_RCCEx_PeriphCLKConfig+0x12c>
 8002474:	6dbb      	ldr	r3, [r7, #88]	; 0x58
 8002476:	f043 5380 	orr.w	r3, r3, #268435456	; 0x10000000
 800247a:	65bb      	str	r3, [r7, #88]	; 0x58
 800247c:	6dbb      	ldr	r3, [r7, #88]	; 0x58
 800247e:	f003 5380 	and.w	r3, r3, #268435456	; 0x10000000
 8002482:	9301      	str	r3, [sp, #4]
 8002484:	9b01      	ldr	r3, [sp, #4]
 8002486:	f04f 0801 	mov.w	r8, #1
 800248a:	f8df 905c 	ldr.w	r9, [pc, #92]	; 80024e8 <HAL_RCCEx_PeriphCLKConfig+0x138>
 800248e:	f8d9 3000 	ldr.w	r3, [r9]
 8002492:	f443 7380 	orr.w	r3, r3, #256	; 0x100
 8002496:	f8c9 3000 	str.w	r3, [r9]
 800249a:	f7fd fecd 	bl	8000238 <HAL_GetTick>
 800249e:	4682      	mov	sl, r0
 80024a0:	f8d9 3000 	ldr.w	r3, [r9]
 80024a4:	05db      	lsls	r3, r3, #23
 80024a6:	d521      	bpl.n	80024ec <HAL_RCCEx_PeriphCLKConfig+0x13c>
 80024a8:	bb3d      	cbnz	r5, 80024fa <HAL_RCCEx_PeriphCLKConfig+0x14a>
 80024aa:	f8d7 3090 	ldr.w	r3, [r7, #144]	; 0x90
 80024ae:	f413 7340 	ands.w	r3, r3, #768	; 0x300
 80024b2:	f040 811b 	bne.w	80026ec <HAL_RCCEx_PeriphCLKConfig+0x33c>
 80024b6:	f8d7 3090 	ldr.w	r3, [r7, #144]	; 0x90
 80024ba:	f8d4 2088 	ldr.w	r2, [r4, #136]	; 0x88
 80024be:	f423 7340 	bic.w	r3, r3, #768	; 0x300
 80024c2:	4313      	orrs	r3, r2
 80024c4:	f8c7 3090 	str.w	r3, [r7, #144]	; 0x90
 80024c8:	4635      	mov	r5, r6
 80024ca:	e016      	b.n	80024fa <HAL_RCCEx_PeriphCLKConfig+0x14a>
 80024cc:	2100      	movs	r1, #0
 80024ce:	f104 0020 	add.w	r0, r4, #32
 80024d2:	f7ff fef3 	bl	80022bc <RCCEx_PLLSAI2_Config>
 80024d6:	e7b9      	b.n	800244c <HAL_RCCEx_PeriphCLKConfig+0x9c>
 80024d8:	462e      	mov	r6, r5
 80024da:	e7c3      	b.n	8002464 <HAL_RCCEx_PeriphCLKConfig+0xb4>
 80024dc:	f04f 0800 	mov.w	r8, #0
 80024e0:	e7d3      	b.n	800248a <HAL_RCCEx_PeriphCLKConfig+0xda>
 80024e2:	bf00      	nop
 80024e4:	40021000 	.word	0x40021000
 80024e8:	40007000 	.word	0x40007000
 80024ec:	f7fd fea4 	bl	8000238 <HAL_GetTick>
 80024f0:	eba0 000a 	sub.w	r0, r0, sl
 80024f4:	2802      	cmp	r0, #2
 80024f6:	d9d3      	bls.n	80024a0 <HAL_RCCEx_PeriphCLKConfig+0xf0>
 80024f8:	2503      	movs	r5, #3
 80024fa:	f1b8 0f00 	cmp.w	r8, #0
 80024fe:	d003      	beq.n	8002508 <HAL_RCCEx_PeriphCLKConfig+0x158>
 8002500:	6dbb      	ldr	r3, [r7, #88]	; 0x58
 8002502:	f023 5380 	bic.w	r3, r3, #268435456	; 0x10000000
 8002506:	65bb      	str	r3, [r7, #88]	; 0x58
 8002508:	6823      	ldr	r3, [r4, #0]
 800250a:	07d9      	lsls	r1, r3, #31
 800250c:	d508      	bpl.n	8002520 <HAL_RCCEx_PeriphCLKConfig+0x170>
 800250e:	49a3      	ldr	r1, [pc, #652]	; (800279c <HAL_RCCEx_PeriphCLKConfig+0x3ec>)
 8002510:	6ba0      	ldr	r0, [r4, #56]	; 0x38
 8002512:	f8d1 2088 	ldr.w	r2, [r1, #136]	; 0x88
 8002516:	f022 0203 	bic.w	r2, r2, #3
 800251a:	4302      	orrs	r2, r0
 800251c:	f8c1 2088 	str.w	r2, [r1, #136]	; 0x88
 8002520:	079a      	lsls	r2, r3, #30
 8002522:	d508      	bpl.n	8002536 <HAL_RCCEx_PeriphCLKConfig+0x186>
 8002524:	499d      	ldr	r1, [pc, #628]	; (800279c <HAL_RCCEx_PeriphCLKConfig+0x3ec>)
 8002526:	6be0      	ldr	r0, [r4, #60]	; 0x3c
 8002528:	f8d1 2088 	ldr.w	r2, [r1, #136]	; 0x88
 800252c:	f022 020c 	bic.w	r2, r2, #12
 8002530:	4302      	orrs	r2, r0
 8002532:	f8c1 2088 	str.w	r2, [r1, #136]	; 0x88
 8002536:	075f      	lsls	r7, r3, #29
 8002538:	d508      	bpl.n	800254c <HAL_RCCEx_PeriphCLKConfig+0x19c>
 800253a:	4998      	ldr	r1, [pc, #608]	; (800279c <HAL_RCCEx_PeriphCLKConfig+0x3ec>)
 800253c:	6c20      	ldr	r0, [r4, #64]	; 0x40
 800253e:	f8d1 2088 	ldr.w	r2, [r1, #136]	; 0x88
 8002542:	f022 0230 	bic.w	r2, r2, #48	; 0x30
 8002546:	4302      	orrs	r2, r0
 8002548:	f8c1 2088 	str.w	r2, [r1, #136]	; 0x88
 800254c:	071e      	lsls	r6, r3, #28
 800254e:	d508      	bpl.n	8002562 <HAL_RCCEx_PeriphCLKConfig+0x1b2>
 8002550:	4992      	ldr	r1, [pc, #584]	; (800279c <HAL_RCCEx_PeriphCLKConfig+0x3ec>)
 8002552:	6c60      	ldr	r0, [r4, #68]	; 0x44
 8002554:	f8d1 2088 	ldr.w	r2, [r1, #136]	; 0x88
 8002558:	f022 02c0 	bic.w	r2, r2, #192	; 0xc0
 800255c:	4302      	orrs	r2, r0
 800255e:	f8c1 2088 	str.w	r2, [r1, #136]	; 0x88
 8002562:	06d8      	lsls	r0, r3, #27
 8002564:	d508      	bpl.n	8002578 <HAL_RCCEx_PeriphCLKConfig+0x1c8>
 8002566:	498d      	ldr	r1, [pc, #564]	; (800279c <HAL_RCCEx_PeriphCLKConfig+0x3ec>)
 8002568:	6ca0      	ldr	r0, [r4, #72]	; 0x48
 800256a:	f8d1 2088 	ldr.w	r2, [r1, #136]	; 0x88
 800256e:	f422 7240 	bic.w	r2, r2, #768	; 0x300
 8002572:	4302      	orrs	r2, r0
 8002574:	f8c1 2088 	str.w	r2, [r1, #136]	; 0x88
 8002578:	0699      	lsls	r1, r3, #26
 800257a:	d508      	bpl.n	800258e <HAL_RCCEx_PeriphCLKConfig+0x1de>
 800257c:	4987      	ldr	r1, [pc, #540]	; (800279c <HAL_RCCEx_PeriphCLKConfig+0x3ec>)
 800257e:	6ce0      	ldr	r0, [r4, #76]	; 0x4c
 8002580:	f8d1 2088 	ldr.w	r2, [r1, #136]	; 0x88
 8002584:	f422 6240 	bic.w	r2, r2, #3072	; 0xc00
 8002588:	4302      	orrs	r2, r0
 800258a:	f8c1 2088 	str.w	r2, [r1, #136]	; 0x88
 800258e:	059a      	lsls	r2, r3, #22
 8002590:	d508      	bpl.n	80025a4 <HAL_RCCEx_PeriphCLKConfig+0x1f4>
 8002592:	4982      	ldr	r1, [pc, #520]	; (800279c <HAL_RCCEx_PeriphCLKConfig+0x3ec>)
 8002594:	6e20      	ldr	r0, [r4, #96]	; 0x60
 8002596:	f8d1 2088 	ldr.w	r2, [r1, #136]	; 0x88
 800259a:	f422 2240 	bic.w	r2, r2, #786432	; 0xc0000
 800259e:	4302      	orrs	r2, r0
 80025a0:	f8c1 2088 	str.w	r2, [r1, #136]	; 0x88
 80025a4:	055f      	lsls	r7, r3, #21
 80025a6:	d508      	bpl.n	80025ba <HAL_RCCEx_PeriphCLKConfig+0x20a>
 80025a8:	497c      	ldr	r1, [pc, #496]	; (800279c <HAL_RCCEx_PeriphCLKConfig+0x3ec>)
 80025aa:	6e60      	ldr	r0, [r4, #100]	; 0x64
 80025ac:	f8d1 2088 	ldr.w	r2, [r1, #136]	; 0x88
 80025b0:	f422 1240 	bic.w	r2, r2, #3145728	; 0x300000
 80025b4:	4302      	orrs	r2, r0
 80025b6:	f8c1 2088 	str.w	r2, [r1, #136]	; 0x88
 80025ba:	065e      	lsls	r6, r3, #25
 80025bc:	d508      	bpl.n	80025d0 <HAL_RCCEx_PeriphCLKConfig+0x220>
 80025be:	4977      	ldr	r1, [pc, #476]	; (800279c <HAL_RCCEx_PeriphCLKConfig+0x3ec>)
 80025c0:	6d20      	ldr	r0, [r4, #80]	; 0x50
 80025c2:	f8d1 2088 	ldr.w	r2, [r1, #136]	; 0x88
 80025c6:	f422 5240 	bic.w	r2, r2, #12288	; 0x3000
 80025ca:	4302      	orrs	r2, r0
 80025cc:	f8c1 2088 	str.w	r2, [r1, #136]	; 0x88
 80025d0:	0618      	lsls	r0, r3, #24
 80025d2:	d508      	bpl.n	80025e6 <HAL_RCCEx_PeriphCLKConfig+0x236>
 80025d4:	4971      	ldr	r1, [pc, #452]	; (800279c <HAL_RCCEx_PeriphCLKConfig+0x3ec>)
 80025d6:	6d60      	ldr	r0, [r4, #84]	; 0x54
 80025d8:	f8d1 2088 	ldr.w	r2, [r1, #136]	; 0x88
 80025dc:	f422 4240 	bic.w	r2, r2, #49152	; 0xc000
 80025e0:	4302      	orrs	r2, r0
 80025e2:	f8c1 2088 	str.w	r2, [r1, #136]	; 0x88
 80025e6:	05d9      	lsls	r1, r3, #23
 80025e8:	d508      	bpl.n	80025fc <HAL_RCCEx_PeriphCLKConfig+0x24c>
 80025ea:	496c      	ldr	r1, [pc, #432]	; (800279c <HAL_RCCEx_PeriphCLKConfig+0x3ec>)
 80025ec:	6da0      	ldr	r0, [r4, #88]	; 0x58
 80025ee:	f8d1 2088 	ldr.w	r2, [r1, #136]	; 0x88
 80025f2:	f422 3240 	bic.w	r2, r2, #196608	; 0x30000
 80025f6:	4302      	orrs	r2, r0
 80025f8:	f8c1 2088 	str.w	r2, [r1, #136]	; 0x88
 80025fc:	02da      	lsls	r2, r3, #11
 80025fe:	d508      	bpl.n	8002612 <HAL_RCCEx_PeriphCLKConfig+0x262>
 8002600:	4966      	ldr	r1, [pc, #408]	; (800279c <HAL_RCCEx_PeriphCLKConfig+0x3ec>)
 8002602:	6de0      	ldr	r0, [r4, #92]	; 0x5c
 8002604:	f8d1 209c 	ldr.w	r2, [r1, #156]	; 0x9c
 8002608:	f022 0203 	bic.w	r2, r2, #3
 800260c:	4302      	orrs	r2, r0
 800260e:	f8c1 209c 	str.w	r2, [r1, #156]	; 0x9c
 8002612:	049b      	lsls	r3, r3, #18
 8002614:	d510      	bpl.n	8002638 <HAL_RCCEx_PeriphCLKConfig+0x288>
 8002616:	4a61      	ldr	r2, [pc, #388]	; (800279c <HAL_RCCEx_PeriphCLKConfig+0x3ec>)
 8002618:	6f21      	ldr	r1, [r4, #112]	; 0x70
 800261a:	f8d2 3088 	ldr.w	r3, [r2, #136]	; 0x88
 800261e:	f023 6340 	bic.w	r3, r3, #201326592	; 0xc000000
 8002622:	430b      	orrs	r3, r1
 8002624:	f1b1 6f00 	cmp.w	r1, #134217728	; 0x8000000
 8002628:	f8c2 3088 	str.w	r3, [r2, #136]	; 0x88
 800262c:	f040 808a 	bne.w	8002744 <HAL_RCCEx_PeriphCLKConfig+0x394>
 8002630:	68d3      	ldr	r3, [r2, #12]
 8002632:	f443 1380 	orr.w	r3, r3, #1048576	; 0x100000
 8002636:	60d3      	str	r3, [r2, #12]
 8002638:	6823      	ldr	r3, [r4, #0]
 800263a:	031f      	lsls	r7, r3, #12
 800263c:	d510      	bpl.n	8002660 <HAL_RCCEx_PeriphCLKConfig+0x2b0>
 800263e:	4a57      	ldr	r2, [pc, #348]	; (800279c <HAL_RCCEx_PeriphCLKConfig+0x3ec>)
 8002640:	6f61      	ldr	r1, [r4, #116]	; 0x74
 8002642:	f8d2 3088 	ldr.w	r3, [r2, #136]	; 0x88
 8002646:	f023 6340 	bic.w	r3, r3, #201326592	; 0xc000000
 800264a:	430b      	orrs	r3, r1
 800264c:	f1b1 6f00 	cmp.w	r1, #134217728	; 0x8000000
 8002650:	f8c2 3088 	str.w	r3, [r2, #136]	; 0x88
 8002654:	f040 8082 	bne.w	800275c <HAL_RCCEx_PeriphCLKConfig+0x3ac>
 8002658:	68d3      	ldr	r3, [r2, #12]
 800265a:	f443 1380 	orr.w	r3, r3, #1048576	; 0x100000
 800265e:	60d3      	str	r3, [r2, #12]
 8002660:	6823      	ldr	r3, [r4, #0]
 8002662:	035e      	lsls	r6, r3, #13
 8002664:	d50f      	bpl.n	8002686 <HAL_RCCEx_PeriphCLKConfig+0x2d6>
 8002666:	4a4d      	ldr	r2, [pc, #308]	; (800279c <HAL_RCCEx_PeriphCLKConfig+0x3ec>)
 8002668:	6fa1      	ldr	r1, [r4, #120]	; 0x78
 800266a:	f8d2 3088 	ldr.w	r3, [r2, #136]	; 0x88
 800266e:	f023 6340 	bic.w	r3, r3, #201326592	; 0xc000000
 8002672:	430b      	orrs	r3, r1
 8002674:	f1b1 6f00 	cmp.w	r1, #134217728	; 0x8000000
 8002678:	f8c2 3088 	str.w	r3, [r2, #136]	; 0x88
 800267c:	d17a      	bne.n	8002774 <HAL_RCCEx_PeriphCLKConfig+0x3c4>
 800267e:	68d3      	ldr	r3, [r2, #12]
 8002680:	f443 1380 	orr.w	r3, r3, #1048576	; 0x100000
 8002684:	60d3      	str	r3, [r2, #12]
 8002686:	6823      	ldr	r3, [r4, #0]
 8002688:	0458      	lsls	r0, r3, #17
 800268a:	d512      	bpl.n	80026b2 <HAL_RCCEx_PeriphCLKConfig+0x302>
 800268c:	4943      	ldr	r1, [pc, #268]	; (800279c <HAL_RCCEx_PeriphCLKConfig+0x3ec>)
 800268e:	6fe2      	ldr	r2, [r4, #124]	; 0x7c
 8002690:	f8d1 3088 	ldr.w	r3, [r1, #136]	; 0x88
 8002694:	f023 5340 	bic.w	r3, r3, #805306368	; 0x30000000
 8002698:	4313      	orrs	r3, r2
 800269a:	f1b2 5f80 	cmp.w	r2, #268435456	; 0x10000000
 800269e:	f8c1 3088 	str.w	r3, [r1, #136]	; 0x88
 80026a2:	d172      	bne.n	800278a <HAL_RCCEx_PeriphCLKConfig+0x3da>
 80026a4:	2102      	movs	r1, #2
 80026a6:	1d20      	adds	r0, r4, #4
 80026a8:	f7ff fd7e 	bl	80021a8 <RCCEx_PLLSAI1_Config>
 80026ac:	2800      	cmp	r0, #0
 80026ae:	bf18      	it	ne
 80026b0:	4605      	movne	r5, r0
 80026b2:	6822      	ldr	r2, [r4, #0]
 80026b4:	0411      	lsls	r1, r2, #16
 80026b6:	d509      	bpl.n	80026cc <HAL_RCCEx_PeriphCLKConfig+0x31c>
 80026b8:	4938      	ldr	r1, [pc, #224]	; (800279c <HAL_RCCEx_PeriphCLKConfig+0x3ec>)
 80026ba:	f8d4 0080 	ldr.w	r0, [r4, #128]	; 0x80
 80026be:	f8d1 3088 	ldr.w	r3, [r1, #136]	; 0x88
 80026c2:	f023 4380 	bic.w	r3, r3, #1073741824	; 0x40000000
 80026c6:	4303      	orrs	r3, r0
 80026c8:	f8c1 3088 	str.w	r3, [r1, #136]	; 0x88
 80026cc:	03d3      	lsls	r3, r2, #15
 80026ce:	d509      	bpl.n	80026e4 <HAL_RCCEx_PeriphCLKConfig+0x334>
 80026d0:	4a32      	ldr	r2, [pc, #200]	; (800279c <HAL_RCCEx_PeriphCLKConfig+0x3ec>)
 80026d2:	f8d4 1084 	ldr.w	r1, [r4, #132]	; 0x84
 80026d6:	f8d2 3088 	ldr.w	r3, [r2, #136]	; 0x88
 80026da:	f023 4300 	bic.w	r3, r3, #2147483648	; 0x80000000
 80026de:	430b      	orrs	r3, r1
 80026e0:	f8c2 3088 	str.w	r3, [r2, #136]	; 0x88
 80026e4:	4628      	mov	r0, r5
 80026e6:	b002      	add	sp, #8
 80026e8:	e8bd 87f0 	ldmia.w	sp!, {r4, r5, r6, r7, r8, r9, sl, pc}
 80026ec:	f8d4 2088 	ldr.w	r2, [r4, #136]	; 0x88
 80026f0:	4293      	cmp	r3, r2
 80026f2:	f43f aee0 	beq.w	80024b6 <HAL_RCCEx_PeriphCLKConfig+0x106>
 80026f6:	f8d7 2090 	ldr.w	r2, [r7, #144]	; 0x90
 80026fa:	f8d7 3090 	ldr.w	r3, [r7, #144]	; 0x90
 80026fe:	f443 3380 	orr.w	r3, r3, #65536	; 0x10000
 8002702:	f8c7 3090 	str.w	r3, [r7, #144]	; 0x90
 8002706:	f8d7 3090 	ldr.w	r3, [r7, #144]	; 0x90
 800270a:	f422 7140 	bic.w	r1, r2, #768	; 0x300
 800270e:	f423 3380 	bic.w	r3, r3, #65536	; 0x10000
 8002712:	07d5      	lsls	r5, r2, #31
 8002714:	f8c7 3090 	str.w	r3, [r7, #144]	; 0x90
 8002718:	f8c7 1090 	str.w	r1, [r7, #144]	; 0x90
 800271c:	f57f aecb 	bpl.w	80024b6 <HAL_RCCEx_PeriphCLKConfig+0x106>
 8002720:	f7fd fd8a 	bl	8000238 <HAL_GetTick>
 8002724:	f241 3988 	movw	r9, #5000	; 0x1388
 8002728:	4605      	mov	r5, r0
 800272a:	f8d7 3090 	ldr.w	r3, [r7, #144]	; 0x90
 800272e:	0798      	lsls	r0, r3, #30
 8002730:	f53f aec1 	bmi.w	80024b6 <HAL_RCCEx_PeriphCLKConfig+0x106>
 8002734:	f7fd fd80 	bl	8000238 <HAL_GetTick>
 8002738:	1b40      	subs	r0, r0, r5
 800273a:	4548      	cmp	r0, r9
 800273c:	d9f5      	bls.n	800272a <HAL_RCCEx_PeriphCLKConfig+0x37a>
 800273e:	e6db      	b.n	80024f8 <HAL_RCCEx_PeriphCLKConfig+0x148>
 8002740:	4635      	mov	r5, r6
 8002742:	e6e1      	b.n	8002508 <HAL_RCCEx_PeriphCLKConfig+0x158>
 8002744:	f1b1 6f80 	cmp.w	r1, #67108864	; 0x4000000
 8002748:	f47f af76 	bne.w	8002638 <HAL_RCCEx_PeriphCLKConfig+0x288>
 800274c:	2101      	movs	r1, #1
 800274e:	1d20      	adds	r0, r4, #4
 8002750:	f7ff fd2a 	bl	80021a8 <RCCEx_PLLSAI1_Config>
 8002754:	2800      	cmp	r0, #0
 8002756:	bf18      	it	ne
 8002758:	4605      	movne	r5, r0
 800275a:	e76d      	b.n	8002638 <HAL_RCCEx_PeriphCLKConfig+0x288>
 800275c:	f1b1 6f80 	cmp.w	r1, #67108864	; 0x4000000
 8002760:	f47f af7e 	bne.w	8002660 <HAL_RCCEx_PeriphCLKConfig+0x2b0>
 8002764:	2101      	movs	r1, #1
 8002766:	1d20      	adds	r0, r4, #4
 8002768:	f7ff fd1e 	bl	80021a8 <RCCEx_PLLSAI1_Config>
 800276c:	2800      	cmp	r0, #0
 800276e:	bf18      	it	ne
 8002770:	4605      	movne	r5, r0
 8002772:	e775      	b.n	8002660 <HAL_RCCEx_PeriphCLKConfig+0x2b0>
 8002774:	f1b1 6f80 	cmp.w	r1, #67108864	; 0x4000000
 8002778:	d185      	bne.n	8002686 <HAL_RCCEx_PeriphCLKConfig+0x2d6>
 800277a:	2101      	movs	r1, #1
 800277c:	1d20      	adds	r0, r4, #4
 800277e:	f7ff fd13 	bl	80021a8 <RCCEx_PLLSAI1_Config>
 8002782:	2800      	cmp	r0, #0
 8002784:	bf18      	it	ne
 8002786:	4605      	movne	r5, r0
 8002788:	e77d      	b.n	8002686 <HAL_RCCEx_PeriphCLKConfig+0x2d6>
 800278a:	f1b2 5f00 	cmp.w	r2, #536870912	; 0x20000000
 800278e:	d190      	bne.n	80026b2 <HAL_RCCEx_PeriphCLKConfig+0x302>
 8002790:	2102      	movs	r1, #2
 8002792:	f104 0020 	add.w	r0, r4, #32
 8002796:	f7ff fd91 	bl	80022bc <RCCEx_PLLSAI2_Config>
 800279a:	e787      	b.n	80026ac <HAL_RCCEx_PeriphCLKConfig+0x2fc>
 800279c:	40021000 	.word	0x40021000

080027a0 <HAL_TIM_Base_MspInit>:
 80027a0:	4770      	bx	lr
	...

080027a4 <HAL_TIM_Base_Start_IT>:
 80027a4:	f890 303d 	ldrb.w	r3, [r0, #61]	; 0x3d
 80027a8:	2b01      	cmp	r3, #1
 80027aa:	d12f      	bne.n	800280c <HAL_TIM_Base_Start_IT+0x68>
 80027ac:	2302      	movs	r3, #2
 80027ae:	f880 303d 	strb.w	r3, [r0, #61]	; 0x3d
 80027b2:	6803      	ldr	r3, [r0, #0]
 80027b4:	68da      	ldr	r2, [r3, #12]
 80027b6:	f042 0201 	orr.w	r2, r2, #1
 80027ba:	60da      	str	r2, [r3, #12]
 80027bc:	4a14      	ldr	r2, [pc, #80]	; (8002810 <HAL_TIM_Base_Start_IT+0x6c>)
 80027be:	4293      	cmp	r3, r2
 80027c0:	d016      	beq.n	80027f0 <HAL_TIM_Base_Start_IT+0x4c>
 80027c2:	f1b3 4f80 	cmp.w	r3, #1073741824	; 0x40000000
 80027c6:	d013      	beq.n	80027f0 <HAL_TIM_Base_Start_IT+0x4c>
 80027c8:	f5a2 3294 	sub.w	r2, r2, #75776	; 0x12800
 80027cc:	4293      	cmp	r3, r2
 80027ce:	d00f      	beq.n	80027f0 <HAL_TIM_Base_Start_IT+0x4c>
 80027d0:	f502 6280 	add.w	r2, r2, #1024	; 0x400
 80027d4:	4293      	cmp	r3, r2
 80027d6:	d00b      	beq.n	80027f0 <HAL_TIM_Base_Start_IT+0x4c>
 80027d8:	f502 6280 	add.w	r2, r2, #1024	; 0x400
 80027dc:	4293      	cmp	r3, r2
 80027de:	d007      	beq.n	80027f0 <HAL_TIM_Base_Start_IT+0x4c>
 80027e0:	f502 3294 	add.w	r2, r2, #75776	; 0x12800
 80027e4:	4293      	cmp	r3, r2
 80027e6:	d003      	beq.n	80027f0 <HAL_TIM_Base_Start_IT+0x4c>
 80027e8:	f502 6240 	add.w	r2, r2, #3072	; 0xc00
 80027ec:	4293      	cmp	r3, r2
 80027ee:	d107      	bne.n	8002800 <HAL_TIM_Base_Start_IT+0x5c>
 80027f0:	6899      	ldr	r1, [r3, #8]
 80027f2:	4a08      	ldr	r2, [pc, #32]	; (8002814 <HAL_TIM_Base_Start_IT+0x70>)
 80027f4:	400a      	ands	r2, r1
 80027f6:	2a06      	cmp	r2, #6
 80027f8:	d006      	beq.n	8002808 <HAL_TIM_Base_Start_IT+0x64>
 80027fa:	f5b2 3f80 	cmp.w	r2, #65536	; 0x10000
 80027fe:	d003      	beq.n	8002808 <HAL_TIM_Base_Start_IT+0x64>
 8002800:	681a      	ldr	r2, [r3, #0]
 8002802:	f042 0201 	orr.w	r2, r2, #1
 8002806:	601a      	str	r2, [r3, #0]
 8002808:	2000      	movs	r0, #0
 800280a:	4770      	bx	lr
 800280c:	2001      	movs	r0, #1
 800280e:	4770      	bx	lr
 8002810:	40012c00 	.word	0x40012c00
 8002814:	00010007 	.word	0x00010007

08002818 <HAL_TIM_OC_DelayElapsedCallback>:
 8002818:	4770      	bx	lr

0800281a <HAL_TIM_IC_CaptureCallback>:
 800281a:	4770      	bx	lr

0800281c <HAL_TIM_PWM_PulseFinishedCallback>:
 800281c:	4770      	bx	lr

0800281e <HAL_TIM_TriggerCallback>:
 800281e:	4770      	bx	lr

08002820 <HAL_TIM_IRQHandler>:
 8002820:	6803      	ldr	r3, [r0, #0]
 8002822:	691a      	ldr	r2, [r3, #16]
 8002824:	0791      	lsls	r1, r2, #30
 8002826:	b510      	push	{r4, lr}
 8002828:	4604      	mov	r4, r0
 800282a:	d50f      	bpl.n	800284c <HAL_TIM_IRQHandler+0x2c>
 800282c:	68da      	ldr	r2, [r3, #12]
 800282e:	0792      	lsls	r2, r2, #30
 8002830:	d50c      	bpl.n	800284c <HAL_TIM_IRQHandler+0x2c>
 8002832:	f06f 0202 	mvn.w	r2, #2
 8002836:	611a      	str	r2, [r3, #16]
 8002838:	2201      	movs	r2, #1
 800283a:	7702      	strb	r2, [r0, #28]
 800283c:	699b      	ldr	r3, [r3, #24]
 800283e:	0799      	lsls	r1, r3, #30
 8002840:	f000 8085 	beq.w	800294e <HAL_TIM_IRQHandler+0x12e>
 8002844:	f7ff ffe9 	bl	800281a <HAL_TIM_IC_CaptureCallback>
 8002848:	2300      	movs	r3, #0
 800284a:	7723      	strb	r3, [r4, #28]
 800284c:	6823      	ldr	r3, [r4, #0]
 800284e:	691a      	ldr	r2, [r3, #16]
 8002850:	0752      	lsls	r2, r2, #29
 8002852:	d510      	bpl.n	8002876 <HAL_TIM_IRQHandler+0x56>
 8002854:	68da      	ldr	r2, [r3, #12]
 8002856:	0750      	lsls	r0, r2, #29
 8002858:	d50d      	bpl.n	8002876 <HAL_TIM_IRQHandler+0x56>
 800285a:	f06f 0204 	mvn.w	r2, #4
 800285e:	611a      	str	r2, [r3, #16]
 8002860:	2202      	movs	r2, #2
 8002862:	7722      	strb	r2, [r4, #28]
 8002864:	699b      	ldr	r3, [r3, #24]
 8002866:	f413 7f40 	tst.w	r3, #768	; 0x300
 800286a:	4620      	mov	r0, r4
 800286c:	d075      	beq.n	800295a <HAL_TIM_IRQHandler+0x13a>
 800286e:	f7ff ffd4 	bl	800281a <HAL_TIM_IC_CaptureCallback>
 8002872:	2300      	movs	r3, #0
 8002874:	7723      	strb	r3, [r4, #28]
 8002876:	6823      	ldr	r3, [r4, #0]
 8002878:	691a      	ldr	r2, [r3, #16]
 800287a:	0711      	lsls	r1, r2, #28
 800287c:	d50f      	bpl.n	800289e <HAL_TIM_IRQHandler+0x7e>
 800287e:	68da      	ldr	r2, [r3, #12]
 8002880:	0712      	lsls	r2, r2, #28
 8002882:	d50c      	bpl.n	800289e <HAL_TIM_IRQHandler+0x7e>
 8002884:	f06f 0208 	mvn.w	r2, #8
 8002888:	611a      	str	r2, [r3, #16]
 800288a:	2204      	movs	r2, #4
 800288c:	7722      	strb	r2, [r4, #28]
 800288e:	69db      	ldr	r3, [r3, #28]
 8002890:	079b      	lsls	r3, r3, #30
 8002892:	4620      	mov	r0, r4
 8002894:	d067      	beq.n	8002966 <HAL_TIM_IRQHandler+0x146>
 8002896:	f7ff ffc0 	bl	800281a <HAL_TIM_IC_CaptureCallback>
 800289a:	2300      	movs	r3, #0
 800289c:	7723      	strb	r3, [r4, #28]
 800289e:	6823      	ldr	r3, [r4, #0]
 80028a0:	691a      	ldr	r2, [r3, #16]
 80028a2:	06d0      	lsls	r0, r2, #27
 80028a4:	d510      	bpl.n	80028c8 <HAL_TIM_IRQHandler+0xa8>
 80028a6:	68da      	ldr	r2, [r3, #12]
 80028a8:	06d1      	lsls	r1, r2, #27
 80028aa:	d50d      	bpl.n	80028c8 <HAL_TIM_IRQHandler+0xa8>
 80028ac:	f06f 0210 	mvn.w	r2, #16
 80028b0:	611a      	str	r2, [r3, #16]
 80028b2:	2208      	movs	r2, #8
 80028b4:	7722      	strb	r2, [r4, #28]
 80028b6:	69db      	ldr	r3, [r3, #28]
 80028b8:	f413 7f40 	tst.w	r3, #768	; 0x300
 80028bc:	4620      	mov	r0, r4
 80028be:	d058      	beq.n	8002972 <HAL_TIM_IRQHandler+0x152>
 80028c0:	f7ff ffab 	bl	800281a <HAL_TIM_IC_CaptureCallback>
 80028c4:	2300      	movs	r3, #0
 80028c6:	7723      	strb	r3, [r4, #28]
 80028c8:	6823      	ldr	r3, [r4, #0]
 80028ca:	691a      	ldr	r2, [r3, #16]
 80028cc:	07d2      	lsls	r2, r2, #31
 80028ce:	d508      	bpl.n	80028e2 <HAL_TIM_IRQHandler+0xc2>
 80028d0:	68da      	ldr	r2, [r3, #12]
 80028d2:	07d0      	lsls	r0, r2, #31
 80028d4:	d505      	bpl.n	80028e2 <HAL_TIM_IRQHandler+0xc2>
 80028d6:	f06f 0201 	mvn.w	r2, #1
 80028da:	611a      	str	r2, [r3, #16]
 80028dc:	4620      	mov	r0, r4
 80028de:	f004 f98b 	bl	8006bf8 <HAL_TIM_PeriodElapsedCallback>
 80028e2:	6823      	ldr	r3, [r4, #0]
 80028e4:	691a      	ldr	r2, [r3, #16]
 80028e6:	0611      	lsls	r1, r2, #24
 80028e8:	d508      	bpl.n	80028fc <HAL_TIM_IRQHandler+0xdc>
 80028ea:	68da      	ldr	r2, [r3, #12]
 80028ec:	0612      	lsls	r2, r2, #24
 80028ee:	d505      	bpl.n	80028fc <HAL_TIM_IRQHandler+0xdc>
 80028f0:	f06f 0280 	mvn.w	r2, #128	; 0x80
 80028f4:	611a      	str	r2, [r3, #16]
 80028f6:	4620      	mov	r0, r4
 80028f8:	f000 f8d9 	bl	8002aae <HAL_TIMEx_BreakCallback>
 80028fc:	6823      	ldr	r3, [r4, #0]
 80028fe:	691a      	ldr	r2, [r3, #16]
 8002900:	05d0      	lsls	r0, r2, #23
 8002902:	d508      	bpl.n	8002916 <HAL_TIM_IRQHandler+0xf6>
 8002904:	68da      	ldr	r2, [r3, #12]
 8002906:	0611      	lsls	r1, r2, #24
 8002908:	d505      	bpl.n	8002916 <HAL_TIM_IRQHandler+0xf6>
 800290a:	f46f 7280 	mvn.w	r2, #256	; 0x100
 800290e:	611a      	str	r2, [r3, #16]
 8002910:	4620      	mov	r0, r4
 8002912:	f000 f8cd 	bl	8002ab0 <HAL_TIMEx_Break2Callback>
 8002916:	6823      	ldr	r3, [r4, #0]
 8002918:	691a      	ldr	r2, [r3, #16]
 800291a:	0652      	lsls	r2, r2, #25
 800291c:	d508      	bpl.n	8002930 <HAL_TIM_IRQHandler+0x110>
 800291e:	68da      	ldr	r2, [r3, #12]
 8002920:	0650      	lsls	r0, r2, #25
 8002922:	d505      	bpl.n	8002930 <HAL_TIM_IRQHandler+0x110>
 8002924:	f06f 0240 	mvn.w	r2, #64	; 0x40
 8002928:	611a      	str	r2, [r3, #16]
 800292a:	4620      	mov	r0, r4
 800292c:	f7ff ff77 	bl	800281e <HAL_TIM_TriggerCallback>
 8002930:	6823      	ldr	r3, [r4, #0]
 8002932:	691a      	ldr	r2, [r3, #16]
 8002934:	0691      	lsls	r1, r2, #26
 8002936:	d522      	bpl.n	800297e <HAL_TIM_IRQHandler+0x15e>
 8002938:	68da      	ldr	r2, [r3, #12]
 800293a:	0692      	lsls	r2, r2, #26
 800293c:	d51f      	bpl.n	800297e <HAL_TIM_IRQHandler+0x15e>
 800293e:	f06f 0220 	mvn.w	r2, #32
 8002942:	4620      	mov	r0, r4
 8002944:	611a      	str	r2, [r3, #16]
 8002946:	e8bd 4010 	ldmia.w	sp!, {r4, lr}
 800294a:	f000 b8af 	b.w	8002aac <HAL_TIMEx_CommutCallback>
 800294e:	f7ff ff63 	bl	8002818 <HAL_TIM_OC_DelayElapsedCallback>
 8002952:	4620      	mov	r0, r4
 8002954:	f7ff ff62 	bl	800281c <HAL_TIM_PWM_PulseFinishedCallback>
 8002958:	e776      	b.n	8002848 <HAL_TIM_IRQHandler+0x28>
 800295a:	f7ff ff5d 	bl	8002818 <HAL_TIM_OC_DelayElapsedCallback>
 800295e:	4620      	mov	r0, r4
 8002960:	f7ff ff5c 	bl	800281c <HAL_TIM_PWM_PulseFinishedCallback>
 8002964:	e785      	b.n	8002872 <HAL_TIM_IRQHandler+0x52>
 8002966:	f7ff ff57 	bl	8002818 <HAL_TIM_OC_DelayElapsedCallback>
 800296a:	4620      	mov	r0, r4
 800296c:	f7ff ff56 	bl	800281c <HAL_TIM_PWM_PulseFinishedCallback>
 8002970:	e793      	b.n	800289a <HAL_TIM_IRQHandler+0x7a>
 8002972:	f7ff ff51 	bl	8002818 <HAL_TIM_OC_DelayElapsedCallback>
 8002976:	4620      	mov	r0, r4
 8002978:	f7ff ff50 	bl	800281c <HAL_TIM_PWM_PulseFinishedCallback>
 800297c:	e7a2      	b.n	80028c4 <HAL_TIM_IRQHandler+0xa4>
 800297e:	bd10      	pop	{r4, pc}

08002980 <TIM_Base_SetConfig>:
 8002980:	4a30      	ldr	r2, [pc, #192]	; (8002a44 <TIM_Base_SetConfig+0xc4>)
 8002982:	6803      	ldr	r3, [r0, #0]
 8002984:	4290      	cmp	r0, r2
 8002986:	d012      	beq.n	80029ae <TIM_Base_SetConfig+0x2e>
 8002988:	f1b0 4f80 	cmp.w	r0, #1073741824	; 0x40000000
 800298c:	d00f      	beq.n	80029ae <TIM_Base_SetConfig+0x2e>
 800298e:	f5a2 3294 	sub.w	r2, r2, #75776	; 0x12800
 8002992:	4290      	cmp	r0, r2
 8002994:	d00b      	beq.n	80029ae <TIM_Base_SetConfig+0x2e>
 8002996:	f502 6280 	add.w	r2, r2, #1024	; 0x400
 800299a:	4290      	cmp	r0, r2
 800299c:	d007      	beq.n	80029ae <TIM_Base_SetConfig+0x2e>
 800299e:	f502 6280 	add.w	r2, r2, #1024	; 0x400
 80029a2:	4290      	cmp	r0, r2
 80029a4:	d003      	beq.n	80029ae <TIM_Base_SetConfig+0x2e>
 80029a6:	f502 3294 	add.w	r2, r2, #75776	; 0x12800
 80029aa:	4290      	cmp	r0, r2
 80029ac:	d119      	bne.n	80029e2 <TIM_Base_SetConfig+0x62>
 80029ae:	684a      	ldr	r2, [r1, #4]
 80029b0:	f023 0370 	bic.w	r3, r3, #112	; 0x70
 80029b4:	4313      	orrs	r3, r2
 80029b6:	4a23      	ldr	r2, [pc, #140]	; (8002a44 <TIM_Base_SetConfig+0xc4>)
 80029b8:	4290      	cmp	r0, r2
 80029ba:	d01d      	beq.n	80029f8 <TIM_Base_SetConfig+0x78>
 80029bc:	f1b0 4f80 	cmp.w	r0, #1073741824	; 0x40000000
 80029c0:	d01a      	beq.n	80029f8 <TIM_Base_SetConfig+0x78>
 80029c2:	f5a2 3294 	sub.w	r2, r2, #75776	; 0x12800
 80029c6:	4290      	cmp	r0, r2
 80029c8:	d016      	beq.n	80029f8 <TIM_Base_SetConfig+0x78>
 80029ca:	f502 6280 	add.w	r2, r2, #1024	; 0x400
 80029ce:	4290      	cmp	r0, r2
 80029d0:	d012      	beq.n	80029f8 <TIM_Base_SetConfig+0x78>
 80029d2:	f502 6280 	add.w	r2, r2, #1024	; 0x400
 80029d6:	4290      	cmp	r0, r2
 80029d8:	d00e      	beq.n	80029f8 <TIM_Base_SetConfig+0x78>
 80029da:	f502 3294 	add.w	r2, r2, #75776	; 0x12800
 80029de:	4290      	cmp	r0, r2
 80029e0:	d00a      	beq.n	80029f8 <TIM_Base_SetConfig+0x78>
 80029e2:	4a19      	ldr	r2, [pc, #100]	; (8002a48 <TIM_Base_SetConfig+0xc8>)
 80029e4:	4290      	cmp	r0, r2
 80029e6:	d007      	beq.n	80029f8 <TIM_Base_SetConfig+0x78>
 80029e8:	f502 6280 	add.w	r2, r2, #1024	; 0x400
 80029ec:	4290      	cmp	r0, r2
 80029ee:	d003      	beq.n	80029f8 <TIM_Base_SetConfig+0x78>
 80029f0:	f502 6280 	add.w	r2, r2, #1024	; 0x400
 80029f4:	4290      	cmp	r0, r2
 80029f6:	d103      	bne.n	8002a00 <TIM_Base_SetConfig+0x80>
 80029f8:	68ca      	ldr	r2, [r1, #12]
 80029fa:	f423 7340 	bic.w	r3, r3, #768	; 0x300
 80029fe:	4313      	orrs	r3, r2
 8002a00:	694a      	ldr	r2, [r1, #20]
 8002a02:	f023 0380 	bic.w	r3, r3, #128	; 0x80
 8002a06:	4313      	orrs	r3, r2
 8002a08:	6003      	str	r3, [r0, #0]
 8002a0a:	688b      	ldr	r3, [r1, #8]
 8002a0c:	62c3      	str	r3, [r0, #44]	; 0x2c
 8002a0e:	680b      	ldr	r3, [r1, #0]
 8002a10:	6283      	str	r3, [r0, #40]	; 0x28
 8002a12:	4b0c      	ldr	r3, [pc, #48]	; (8002a44 <TIM_Base_SetConfig+0xc4>)
 8002a14:	4298      	cmp	r0, r3
 8002a16:	d00f      	beq.n	8002a38 <TIM_Base_SetConfig+0xb8>
 8002a18:	f503 6300 	add.w	r3, r3, #2048	; 0x800
 8002a1c:	4298      	cmp	r0, r3
 8002a1e:	d00b      	beq.n	8002a38 <TIM_Base_SetConfig+0xb8>
 8002a20:	f503 6340 	add.w	r3, r3, #3072	; 0xc00
 8002a24:	4298      	cmp	r0, r3
 8002a26:	d007      	beq.n	8002a38 <TIM_Base_SetConfig+0xb8>
 8002a28:	f503 6380 	add.w	r3, r3, #1024	; 0x400
 8002a2c:	4298      	cmp	r0, r3
 8002a2e:	d003      	beq.n	8002a38 <TIM_Base_SetConfig+0xb8>
 8002a30:	f503 6380 	add.w	r3, r3, #1024	; 0x400
 8002a34:	4298      	cmp	r0, r3
 8002a36:	d101      	bne.n	8002a3c <TIM_Base_SetConfig+0xbc>
 8002a38:	690b      	ldr	r3, [r1, #16]
 8002a3a:	6303      	str	r3, [r0, #48]	; 0x30
 8002a3c:	2301      	movs	r3, #1
 8002a3e:	6143      	str	r3, [r0, #20]
 8002a40:	4770      	bx	lr
 8002a42:	bf00      	nop
 8002a44:	40012c00 	.word	0x40012c00
 8002a48:	40014000 	.word	0x40014000

08002a4c <HAL_TIM_Base_Init>:
 8002a4c:	b510      	push	{r4, lr}
 8002a4e:	4604      	mov	r4, r0
 8002a50:	b350      	cbz	r0, 8002aa8 <HAL_TIM_Base_Init+0x5c>
 8002a52:	f890 303d 	ldrb.w	r3, [r0, #61]	; 0x3d
 8002a56:	f003 02ff 	and.w	r2, r3, #255	; 0xff
 8002a5a:	b91b      	cbnz	r3, 8002a64 <HAL_TIM_Base_Init+0x18>
 8002a5c:	f880 203c 	strb.w	r2, [r0, #60]	; 0x3c
 8002a60:	f7ff fe9e 	bl	80027a0 <HAL_TIM_Base_MspInit>
 8002a64:	2302      	movs	r3, #2
 8002a66:	6820      	ldr	r0, [r4, #0]
 8002a68:	f884 303d 	strb.w	r3, [r4, #61]	; 0x3d
 8002a6c:	1d21      	adds	r1, r4, #4
 8002a6e:	f7ff ff87 	bl	8002980 <TIM_Base_SetConfig>
 8002a72:	2301      	movs	r3, #1
 8002a74:	f884 3048 	strb.w	r3, [r4, #72]	; 0x48
 8002a78:	2000      	movs	r0, #0
 8002a7a:	f884 303e 	strb.w	r3, [r4, #62]	; 0x3e
 8002a7e:	f884 303f 	strb.w	r3, [r4, #63]	; 0x3f
 8002a82:	f884 3040 	strb.w	r3, [r4, #64]	; 0x40
 8002a86:	f884 3041 	strb.w	r3, [r4, #65]	; 0x41
 8002a8a:	f884 3042 	strb.w	r3, [r4, #66]	; 0x42
 8002a8e:	f884 3043 	strb.w	r3, [r4, #67]	; 0x43
 8002a92:	f884 3044 	strb.w	r3, [r4, #68]	; 0x44
 8002a96:	f884 3045 	strb.w	r3, [r4, #69]	; 0x45
 8002a9a:	f884 3046 	strb.w	r3, [r4, #70]	; 0x46
 8002a9e:	f884 3047 	strb.w	r3, [r4, #71]	; 0x47
 8002aa2:	f884 303d 	strb.w	r3, [r4, #61]	; 0x3d
 8002aa6:	bd10      	pop	{r4, pc}
 8002aa8:	2001      	movs	r0, #1
 8002aaa:	e7fc      	b.n	8002aa6 <HAL_TIM_Base_Init+0x5a>

08002aac <HAL_TIMEx_CommutCallback>:
 8002aac:	4770      	bx	lr

08002aae <HAL_TIMEx_BreakCallback>:
 8002aae:	4770      	bx	lr

08002ab0 <HAL_TIMEx_Break2Callback>:
 8002ab0:	4770      	bx	lr
	...

08002ab4 <LL_EXTI_Init>:
 8002ab4:	b530      	push	{r4, r5, lr}
 8002ab6:	e9d0 3200 	ldrd	r3, r2, [r0]
 8002aba:	4601      	mov	r1, r0
 8002abc:	7a00      	ldrb	r0, [r0, #8]
 8002abe:	2800      	cmp	r0, #0
 8002ac0:	f000 8084 	beq.w	8002bcc <LL_EXTI_Init+0x118>
 8002ac4:	2b00      	cmp	r3, #0
 8002ac6:	d062      	beq.n	8002b8e <LL_EXTI_Init+0xda>
 8002ac8:	7a48      	ldrb	r0, [r1, #9]
 8002aca:	2801      	cmp	r0, #1
 8002acc:	d03f      	beq.n	8002b4e <LL_EXTI_Init+0x9a>
 8002ace:	2802      	cmp	r0, #2
 8002ad0:	d047      	beq.n	8002b62 <LL_EXTI_Init+0xae>
 8002ad2:	2800      	cmp	r0, #0
 8002ad4:	d149      	bne.n	8002b6a <LL_EXTI_Init+0xb6>
 8002ad6:	4c47      	ldr	r4, [pc, #284]	; (8002bf4 <LL_EXTI_Init+0x140>)
 8002ad8:	6865      	ldr	r5, [r4, #4]
 8002ada:	ea25 0503 	bic.w	r5, r5, r3
 8002ade:	6065      	str	r5, [r4, #4]
 8002ae0:	6825      	ldr	r5, [r4, #0]
 8002ae2:	431d      	orrs	r5, r3
 8002ae4:	6025      	str	r5, [r4, #0]
 8002ae6:	7a8c      	ldrb	r4, [r1, #10]
 8002ae8:	b16c      	cbz	r4, 8002b06 <LL_EXTI_Init+0x52>
 8002aea:	2c02      	cmp	r4, #2
 8002aec:	d03f      	beq.n	8002b6e <LL_EXTI_Init+0xba>
 8002aee:	2c03      	cmp	r4, #3
 8002af0:	d046      	beq.n	8002b80 <LL_EXTI_Init+0xcc>
 8002af2:	2c01      	cmp	r4, #1
 8002af4:	d148      	bne.n	8002b88 <LL_EXTI_Init+0xd4>
 8002af6:	4c3f      	ldr	r4, [pc, #252]	; (8002bf4 <LL_EXTI_Init+0x140>)
 8002af8:	68e5      	ldr	r5, [r4, #12]
 8002afa:	ea25 0503 	bic.w	r5, r5, r3
 8002afe:	60e5      	str	r5, [r4, #12]
 8002b00:	68a5      	ldr	r5, [r4, #8]
 8002b02:	432b      	orrs	r3, r5
 8002b04:	60a3      	str	r3, [r4, #8]
 8002b06:	b30a      	cbz	r2, 8002b4c <LL_EXTI_Init+0x98>
 8002b08:	7a4b      	ldrb	r3, [r1, #9]
 8002b0a:	2b01      	cmp	r3, #1
 8002b0c:	d041      	beq.n	8002b92 <LL_EXTI_Init+0xde>
 8002b0e:	2b02      	cmp	r3, #2
 8002b10:	d048      	beq.n	8002ba4 <LL_EXTI_Init+0xf0>
 8002b12:	2b00      	cmp	r3, #0
 8002b14:	d14a      	bne.n	8002bac <LL_EXTI_Init+0xf8>
 8002b16:	f103 4380 	add.w	r3, r3, #1073741824	; 0x40000000
 8002b1a:	f503 3382 	add.w	r3, r3, #66560	; 0x10400
 8002b1e:	6a5c      	ldr	r4, [r3, #36]	; 0x24
 8002b20:	ea24 0402 	bic.w	r4, r4, r2
 8002b24:	625c      	str	r4, [r3, #36]	; 0x24
 8002b26:	6a1c      	ldr	r4, [r3, #32]
 8002b28:	4314      	orrs	r4, r2
 8002b2a:	621c      	str	r4, [r3, #32]
 8002b2c:	7a8b      	ldrb	r3, [r1, #10]
 8002b2e:	b16b      	cbz	r3, 8002b4c <LL_EXTI_Init+0x98>
 8002b30:	2b02      	cmp	r3, #2
 8002b32:	d03e      	beq.n	8002bb2 <LL_EXTI_Init+0xfe>
 8002b34:	2b03      	cmp	r3, #3
 8002b36:	d045      	beq.n	8002bc4 <LL_EXTI_Init+0x110>
 8002b38:	2b01      	cmp	r3, #1
 8002b3a:	d159      	bne.n	8002bf0 <LL_EXTI_Init+0x13c>
 8002b3c:	4b2d      	ldr	r3, [pc, #180]	; (8002bf4 <LL_EXTI_Init+0x140>)
 8002b3e:	6ad9      	ldr	r1, [r3, #44]	; 0x2c
 8002b40:	ea21 0102 	bic.w	r1, r1, r2
 8002b44:	62d9      	str	r1, [r3, #44]	; 0x2c
 8002b46:	6a99      	ldr	r1, [r3, #40]	; 0x28
 8002b48:	430a      	orrs	r2, r1
 8002b4a:	629a      	str	r2, [r3, #40]	; 0x28
 8002b4c:	bd30      	pop	{r4, r5, pc}
 8002b4e:	4829      	ldr	r0, [pc, #164]	; (8002bf4 <LL_EXTI_Init+0x140>)
 8002b50:	6804      	ldr	r4, [r0, #0]
 8002b52:	ea24 0403 	bic.w	r4, r4, r3
 8002b56:	6004      	str	r4, [r0, #0]
 8002b58:	6844      	ldr	r4, [r0, #4]
 8002b5a:	431c      	orrs	r4, r3
 8002b5c:	6044      	str	r4, [r0, #4]
 8002b5e:	2000      	movs	r0, #0
 8002b60:	e7c1      	b.n	8002ae6 <LL_EXTI_Init+0x32>
 8002b62:	4824      	ldr	r0, [pc, #144]	; (8002bf4 <LL_EXTI_Init+0x140>)
 8002b64:	6804      	ldr	r4, [r0, #0]
 8002b66:	431c      	orrs	r4, r3
 8002b68:	e7f5      	b.n	8002b56 <LL_EXTI_Init+0xa2>
 8002b6a:	2001      	movs	r0, #1
 8002b6c:	e7bb      	b.n	8002ae6 <LL_EXTI_Init+0x32>
 8002b6e:	4c21      	ldr	r4, [pc, #132]	; (8002bf4 <LL_EXTI_Init+0x140>)
 8002b70:	68a5      	ldr	r5, [r4, #8]
 8002b72:	ea25 0503 	bic.w	r5, r5, r3
 8002b76:	60a5      	str	r5, [r4, #8]
 8002b78:	68e5      	ldr	r5, [r4, #12]
 8002b7a:	432b      	orrs	r3, r5
 8002b7c:	60e3      	str	r3, [r4, #12]
 8002b7e:	e7c2      	b.n	8002b06 <LL_EXTI_Init+0x52>
 8002b80:	4c1c      	ldr	r4, [pc, #112]	; (8002bf4 <LL_EXTI_Init+0x140>)
 8002b82:	68a5      	ldr	r5, [r4, #8]
 8002b84:	431d      	orrs	r5, r3
 8002b86:	e7f6      	b.n	8002b76 <LL_EXTI_Init+0xc2>
 8002b88:	f040 0002 	orr.w	r0, r0, #2
 8002b8c:	e7bb      	b.n	8002b06 <LL_EXTI_Init+0x52>
 8002b8e:	4618      	mov	r0, r3
 8002b90:	e7b9      	b.n	8002b06 <LL_EXTI_Init+0x52>
 8002b92:	4b18      	ldr	r3, [pc, #96]	; (8002bf4 <LL_EXTI_Init+0x140>)
 8002b94:	6a1c      	ldr	r4, [r3, #32]
 8002b96:	ea24 0402 	bic.w	r4, r4, r2
 8002b9a:	621c      	str	r4, [r3, #32]
 8002b9c:	6a5c      	ldr	r4, [r3, #36]	; 0x24
 8002b9e:	4314      	orrs	r4, r2
 8002ba0:	625c      	str	r4, [r3, #36]	; 0x24
 8002ba2:	e7c3      	b.n	8002b2c <LL_EXTI_Init+0x78>
 8002ba4:	4b13      	ldr	r3, [pc, #76]	; (8002bf4 <LL_EXTI_Init+0x140>)
 8002ba6:	6a1c      	ldr	r4, [r3, #32]
 8002ba8:	4314      	orrs	r4, r2
 8002baa:	e7f6      	b.n	8002b9a <LL_EXTI_Init+0xe6>
 8002bac:	f040 0004 	orr.w	r0, r0, #4
 8002bb0:	e7bc      	b.n	8002b2c <LL_EXTI_Init+0x78>
 8002bb2:	4b10      	ldr	r3, [pc, #64]	; (8002bf4 <LL_EXTI_Init+0x140>)
 8002bb4:	6a99      	ldr	r1, [r3, #40]	; 0x28
 8002bb6:	ea21 0102 	bic.w	r1, r1, r2
 8002bba:	6299      	str	r1, [r3, #40]	; 0x28
 8002bbc:	6ad9      	ldr	r1, [r3, #44]	; 0x2c
 8002bbe:	430a      	orrs	r2, r1
 8002bc0:	62da      	str	r2, [r3, #44]	; 0x2c
 8002bc2:	e7c3      	b.n	8002b4c <LL_EXTI_Init+0x98>
 8002bc4:	4b0b      	ldr	r3, [pc, #44]	; (8002bf4 <LL_EXTI_Init+0x140>)
 8002bc6:	6a99      	ldr	r1, [r3, #40]	; 0x28
 8002bc8:	4311      	orrs	r1, r2
 8002bca:	e7f6      	b.n	8002bba <LL_EXTI_Init+0x106>
 8002bcc:	4909      	ldr	r1, [pc, #36]	; (8002bf4 <LL_EXTI_Init+0x140>)
 8002bce:	680c      	ldr	r4, [r1, #0]
 8002bd0:	ea24 0403 	bic.w	r4, r4, r3
 8002bd4:	600c      	str	r4, [r1, #0]
 8002bd6:	684c      	ldr	r4, [r1, #4]
 8002bd8:	ea24 0303 	bic.w	r3, r4, r3
 8002bdc:	604b      	str	r3, [r1, #4]
 8002bde:	6a0b      	ldr	r3, [r1, #32]
 8002be0:	ea23 0302 	bic.w	r3, r3, r2
 8002be4:	620b      	str	r3, [r1, #32]
 8002be6:	6a4b      	ldr	r3, [r1, #36]	; 0x24
 8002be8:	ea23 0202 	bic.w	r2, r3, r2
 8002bec:	624a      	str	r2, [r1, #36]	; 0x24
 8002bee:	e7ad      	b.n	8002b4c <LL_EXTI_Init+0x98>
 8002bf0:	2001      	movs	r0, #1
 8002bf2:	e7ab      	b.n	8002b4c <LL_EXTI_Init+0x98>
 8002bf4:	40010400 	.word	0x40010400

08002bf8 <LL_GPIO_Init>:
 8002bf8:	e92d 4ff0 	stmdb	sp!, {r4, r5, r6, r7, r8, r9, sl, fp, lr}
 8002bfc:	4602      	mov	r2, r0
 8002bfe:	680d      	ldr	r5, [r1, #0]
 8002c00:	fa95 f4a5 	rbit	r4, r5
 8002c04:	f04f 0e01 	mov.w	lr, #1
 8002c08:	fab4 f484 	clz	r4, r4
 8002c0c:	2703      	movs	r7, #3
 8002c0e:	f04f 0c0f 	mov.w	ip, #15
 8002c12:	ea6f 0805 	mvn.w	r8, r5
 8002c16:	fa35 f004 	lsrs.w	r0, r5, r4
 8002c1a:	d101      	bne.n	8002c20 <LL_GPIO_Init+0x28>
 8002c1c:	e8bd 8ff0 	ldmia.w	sp!, {r4, r5, r6, r7, r8, r9, sl, fp, pc}
 8002c20:	fa0e f304 	lsl.w	r3, lr, r4
 8002c24:	402b      	ands	r3, r5
 8002c26:	d068      	beq.n	8002cfa <LL_GPIO_Init+0x102>
 8002c28:	6848      	ldr	r0, [r1, #4]
 8002c2a:	1e46      	subs	r6, r0, #1
 8002c2c:	2e01      	cmp	r6, #1
 8002c2e:	d81e      	bhi.n	8002c6e <LL_GPIO_Init+0x76>
 8002c30:	6896      	ldr	r6, [r2, #8]
 8002c32:	fa93 f9a3 	rbit	r9, r3
 8002c36:	fab9 f989 	clz	r9, r9
 8002c3a:	ea4f 0949 	mov.w	r9, r9, lsl #1
 8002c3e:	fa07 f909 	lsl.w	r9, r7, r9
 8002c42:	ea26 0909 	bic.w	r9, r6, r9
 8002c46:	fa93 faa3 	rbit	sl, r3
 8002c4a:	688e      	ldr	r6, [r1, #8]
 8002c4c:	faba fa8a 	clz	sl, sl
 8002c50:	ea4f 0a4a 	mov.w	sl, sl, lsl #1
 8002c54:	fa06 f60a 	lsl.w	r6, r6, sl
 8002c58:	ea46 0609 	orr.w	r6, r6, r9
 8002c5c:	6096      	str	r6, [r2, #8]
 8002c5e:	6856      	ldr	r6, [r2, #4]
 8002c60:	ea08 0906 	and.w	r9, r8, r6
 8002c64:	68ce      	ldr	r6, [r1, #12]
 8002c66:	436e      	muls	r6, r5
 8002c68:	ea49 0606 	orr.w	r6, r9, r6
 8002c6c:	6056      	str	r6, [r2, #4]
 8002c6e:	68d6      	ldr	r6, [r2, #12]
 8002c70:	fa93 f9a3 	rbit	r9, r3
 8002c74:	fab9 f989 	clz	r9, r9
 8002c78:	ea4f 0949 	mov.w	r9, r9, lsl #1
 8002c7c:	fa07 f909 	lsl.w	r9, r7, r9
 8002c80:	ea26 0909 	bic.w	r9, r6, r9
 8002c84:	fa93 faa3 	rbit	sl, r3
 8002c88:	690e      	ldr	r6, [r1, #16]
 8002c8a:	faba fa8a 	clz	sl, sl
 8002c8e:	ea4f 0a4a 	mov.w	sl, sl, lsl #1
 8002c92:	fa06 f60a 	lsl.w	r6, r6, sl
 8002c96:	ea46 0609 	orr.w	r6, r6, r9
 8002c9a:	2802      	cmp	r0, #2
 8002c9c:	60d6      	str	r6, [r2, #12]
 8002c9e:	d118      	bne.n	8002cd2 <LL_GPIO_Init+0xda>
 8002ca0:	2bff      	cmp	r3, #255	; 0xff
 8002ca2:	f8d1 a014 	ldr.w	sl, [r1, #20]
 8002ca6:	d82a      	bhi.n	8002cfe <LL_GPIO_Init+0x106>
 8002ca8:	f8d2 9020 	ldr.w	r9, [r2, #32]
 8002cac:	fa93 f6a3 	rbit	r6, r3
 8002cb0:	fab6 f686 	clz	r6, r6
 8002cb4:	00b6      	lsls	r6, r6, #2
 8002cb6:	fa0c f606 	lsl.w	r6, ip, r6
 8002cba:	ea29 0906 	bic.w	r9, r9, r6
 8002cbe:	fa93 f6a3 	rbit	r6, r3
 8002cc2:	fab6 f686 	clz	r6, r6
 8002cc6:	00b6      	lsls	r6, r6, #2
 8002cc8:	fa0a f606 	lsl.w	r6, sl, r6
 8002ccc:	ea46 0609 	orr.w	r6, r6, r9
 8002cd0:	6216      	str	r6, [r2, #32]
 8002cd2:	f8d2 9000 	ldr.w	r9, [r2]
 8002cd6:	fa93 f6a3 	rbit	r6, r3
 8002cda:	fab6 f686 	clz	r6, r6
 8002cde:	0076      	lsls	r6, r6, #1
 8002ce0:	fa07 f606 	lsl.w	r6, r7, r6
 8002ce4:	ea29 0606 	bic.w	r6, r9, r6
 8002ce8:	fa93 f3a3 	rbit	r3, r3
 8002cec:	fab3 f383 	clz	r3, r3
 8002cf0:	005b      	lsls	r3, r3, #1
 8002cf2:	fa00 f303 	lsl.w	r3, r0, r3
 8002cf6:	4333      	orrs	r3, r6
 8002cf8:	6013      	str	r3, [r2, #0]
 8002cfa:	3401      	adds	r4, #1
 8002cfc:	e78b      	b.n	8002c16 <LL_GPIO_Init+0x1e>
 8002cfe:	f8d2 b024 	ldr.w	fp, [r2, #36]	; 0x24
 8002d02:	ea4f 2913 	mov.w	r9, r3, lsr #8
 8002d06:	fa99 f6a9 	rbit	r6, r9
 8002d0a:	fab6 f686 	clz	r6, r6
 8002d0e:	00b6      	lsls	r6, r6, #2
 8002d10:	fa0c f606 	lsl.w	r6, ip, r6
 8002d14:	ea2b 0b06 	bic.w	fp, fp, r6
 8002d18:	fa99 f6a9 	rbit	r6, r9
 8002d1c:	fab6 f686 	clz	r6, r6
 8002d20:	00b6      	lsls	r6, r6, #2
 8002d22:	fa0a f606 	lsl.w	r6, sl, r6
 8002d26:	ea46 060b 	orr.w	r6, r6, fp
 8002d2a:	6256      	str	r6, [r2, #36]	; 0x24
 8002d2c:	e7d1      	b.n	8002cd2 <LL_GPIO_Init+0xda>
	...

08002d30 <USB_CoreInit>:
 8002d30:	b084      	sub	sp, #16
 8002d32:	b513      	push	{r0, r1, r4, lr}
 8002d34:	4604      	mov	r4, r0
 8002d36:	a805      	add	r0, sp, #20
 8002d38:	e880 000e 	stmia.w	r0, {r1, r2, r3}
 8002d3c:	68e3      	ldr	r3, [r4, #12]
 8002d3e:	4a17      	ldr	r2, [pc, #92]	; (8002d9c <USB_CoreInit+0x6c>)
 8002d40:	f043 0340 	orr.w	r3, r3, #64	; 0x40
 8002d44:	60e3      	str	r3, [r4, #12]
 8002d46:	2300      	movs	r3, #0
 8002d48:	9301      	str	r3, [sp, #4]
 8002d4a:	9b01      	ldr	r3, [sp, #4]
 8002d4c:	3301      	adds	r3, #1
 8002d4e:	4293      	cmp	r3, r2
 8002d50:	9301      	str	r3, [sp, #4]
 8002d52:	d81d      	bhi.n	8002d90 <USB_CoreInit+0x60>
 8002d54:	6923      	ldr	r3, [r4, #16]
 8002d56:	2b00      	cmp	r3, #0
 8002d58:	daf7      	bge.n	8002d4a <USB_CoreInit+0x1a>
 8002d5a:	2300      	movs	r3, #0
 8002d5c:	9301      	str	r3, [sp, #4]
 8002d5e:	6923      	ldr	r3, [r4, #16]
 8002d60:	4a0e      	ldr	r2, [pc, #56]	; (8002d9c <USB_CoreInit+0x6c>)
 8002d62:	f043 0301 	orr.w	r3, r3, #1
 8002d66:	6123      	str	r3, [r4, #16]
 8002d68:	9b01      	ldr	r3, [sp, #4]
 8002d6a:	3301      	adds	r3, #1
 8002d6c:	4293      	cmp	r3, r2
 8002d6e:	9301      	str	r3, [sp, #4]
 8002d70:	d80e      	bhi.n	8002d90 <USB_CoreInit+0x60>
 8002d72:	6920      	ldr	r0, [r4, #16]
 8002d74:	f010 0001 	ands.w	r0, r0, #1
 8002d78:	d1f6      	bne.n	8002d68 <USB_CoreInit+0x38>
 8002d7a:	9b0e      	ldr	r3, [sp, #56]	; 0x38
 8002d7c:	b953      	cbnz	r3, 8002d94 <USB_CoreInit+0x64>
 8002d7e:	6ba3      	ldr	r3, [r4, #56]	; 0x38
 8002d80:	f443 3380 	orr.w	r3, r3, #65536	; 0x10000
 8002d84:	63a3      	str	r3, [r4, #56]	; 0x38
 8002d86:	b002      	add	sp, #8
 8002d88:	e8bd 4010 	ldmia.w	sp!, {r4, lr}
 8002d8c:	b004      	add	sp, #16
 8002d8e:	4770      	bx	lr
 8002d90:	2003      	movs	r0, #3
 8002d92:	e7f2      	b.n	8002d7a <USB_CoreInit+0x4a>
 8002d94:	6ba3      	ldr	r3, [r4, #56]	; 0x38
 8002d96:	f423 3380 	bic.w	r3, r3, #65536	; 0x10000
 8002d9a:	e7f3      	b.n	8002d84 <USB_CoreInit+0x54>
 8002d9c:	00030d40 	.word	0x00030d40

08002da0 <USB_SetTurnaroundTime>:
 8002da0:	2a02      	cmp	r2, #2
 8002da2:	d14a      	bne.n	8002e3a <USB_SetTurnaroundTime+0x9a>
 8002da4:	4b27      	ldr	r3, [pc, #156]	; (8002e44 <USB_SetTurnaroundTime+0xa4>)
 8002da6:	4a28      	ldr	r2, [pc, #160]	; (8002e48 <USB_SetTurnaroundTime+0xa8>)
 8002da8:	440b      	add	r3, r1
 8002daa:	4293      	cmp	r3, r2
 8002dac:	d939      	bls.n	8002e22 <USB_SetTurnaroundTime+0x82>
 8002dae:	4b27      	ldr	r3, [pc, #156]	; (8002e4c <USB_SetTurnaroundTime+0xac>)
 8002db0:	4a27      	ldr	r2, [pc, #156]	; (8002e50 <USB_SetTurnaroundTime+0xb0>)
 8002db2:	440b      	add	r3, r1
 8002db4:	4293      	cmp	r3, r2
 8002db6:	d936      	bls.n	8002e26 <USB_SetTurnaroundTime+0x86>
 8002db8:	4a26      	ldr	r2, [pc, #152]	; (8002e54 <USB_SetTurnaroundTime+0xb4>)
 8002dba:	f5a1 0374 	sub.w	r3, r1, #15990784	; 0xf40000
 8002dbe:	f5a3 5310 	sub.w	r3, r3, #9216	; 0x2400
 8002dc2:	4293      	cmp	r3, r2
 8002dc4:	d931      	bls.n	8002e2a <USB_SetTurnaroundTime+0x8a>
 8002dc6:	4a24      	ldr	r2, [pc, #144]	; (8002e58 <USB_SetTurnaroundTime+0xb8>)
 8002dc8:	f1a1 7383 	sub.w	r3, r1, #17170432	; 0x1060000
 8002dcc:	f5a3 43e7 	sub.w	r3, r3, #29568	; 0x7380
 8002dd0:	4293      	cmp	r3, r2
 8002dd2:	d32c      	bcc.n	8002e2e <USB_SetTurnaroundTime+0x8e>
 8002dd4:	4b21      	ldr	r3, [pc, #132]	; (8002e5c <USB_SetTurnaroundTime+0xbc>)
 8002dd6:	4a22      	ldr	r2, [pc, #136]	; (8002e60 <USB_SetTurnaroundTime+0xc0>)
 8002dd8:	440b      	add	r3, r1
 8002dda:	4293      	cmp	r3, r2
 8002ddc:	d929      	bls.n	8002e32 <USB_SetTurnaroundTime+0x92>
 8002dde:	4b21      	ldr	r3, [pc, #132]	; (8002e64 <USB_SetTurnaroundTime+0xc4>)
 8002de0:	4a21      	ldr	r2, [pc, #132]	; (8002e68 <USB_SetTurnaroundTime+0xc8>)
 8002de2:	440b      	add	r3, r1
 8002de4:	4293      	cmp	r3, r2
 8002de6:	d326      	bcc.n	8002e36 <USB_SetTurnaroundTime+0x96>
 8002de8:	4b20      	ldr	r3, [pc, #128]	; (8002e6c <USB_SetTurnaroundTime+0xcc>)
 8002dea:	4a21      	ldr	r2, [pc, #132]	; (8002e70 <USB_SetTurnaroundTime+0xd0>)
 8002dec:	440b      	add	r3, r1
 8002dee:	4293      	cmp	r3, r2
 8002df0:	d323      	bcc.n	8002e3a <USB_SetTurnaroundTime+0x9a>
 8002df2:	4a20      	ldr	r2, [pc, #128]	; (8002e74 <USB_SetTurnaroundTime+0xd4>)
 8002df4:	f1a1 73b7 	sub.w	r3, r1, #23986176	; 0x16e0000
 8002df8:	f5a3 5358 	sub.w	r3, r3, #13824	; 0x3600
 8002dfc:	4293      	cmp	r3, r2
 8002dfe:	d31e      	bcc.n	8002e3e <USB_SetTurnaroundTime+0x9e>
 8002e00:	4b1d      	ldr	r3, [pc, #116]	; (8002e78 <USB_SetTurnaroundTime+0xd8>)
 8002e02:	4a1e      	ldr	r2, [pc, #120]	; (8002e7c <USB_SetTurnaroundTime+0xdc>)
 8002e04:	440b      	add	r3, r1
 8002e06:	4293      	cmp	r3, r2
 8002e08:	bf34      	ite	cc
 8002e0a:	2307      	movcc	r3, #7
 8002e0c:	2306      	movcs	r3, #6
 8002e0e:	68c2      	ldr	r2, [r0, #12]
 8002e10:	f422 5270 	bic.w	r2, r2, #15360	; 0x3c00
 8002e14:	60c2      	str	r2, [r0, #12]
 8002e16:	68c2      	ldr	r2, [r0, #12]
 8002e18:	ea42 2383 	orr.w	r3, r2, r3, lsl #10
 8002e1c:	60c3      	str	r3, [r0, #12]
 8002e1e:	2000      	movs	r0, #0
 8002e20:	4770      	bx	lr
 8002e22:	230f      	movs	r3, #15
 8002e24:	e7f3      	b.n	8002e0e <USB_SetTurnaroundTime+0x6e>
 8002e26:	230e      	movs	r3, #14
 8002e28:	e7f1      	b.n	8002e0e <USB_SetTurnaroundTime+0x6e>
 8002e2a:	230d      	movs	r3, #13
 8002e2c:	e7ef      	b.n	8002e0e <USB_SetTurnaroundTime+0x6e>
 8002e2e:	230c      	movs	r3, #12
 8002e30:	e7ed      	b.n	8002e0e <USB_SetTurnaroundTime+0x6e>
 8002e32:	230b      	movs	r3, #11
 8002e34:	e7eb      	b.n	8002e0e <USB_SetTurnaroundTime+0x6e>
 8002e36:	230a      	movs	r3, #10
 8002e38:	e7e9      	b.n	8002e0e <USB_SetTurnaroundTime+0x6e>
 8002e3a:	2309      	movs	r3, #9
 8002e3c:	e7e7      	b.n	8002e0e <USB_SetTurnaroundTime+0x6e>
 8002e3e:	2308      	movs	r3, #8
 8002e40:	e7e5      	b.n	8002e0e <USB_SetTurnaroundTime+0x6e>
 8002e42:	bf00      	nop
 8002e44:	ff275340 	.word	0xff275340
 8002e48:	000c34ff 	.word	0x000c34ff
 8002e4c:	ff1b1e40 	.word	0xff1b1e40
 8002e50:	000f423f 	.word	0x000f423f
 8002e54:	00124f7f 	.word	0x00124f7f
 8002e58:	0013d620 	.word	0x0013d620
 8002e5c:	fee5b660 	.word	0xfee5b660
 8002e60:	0016e35f 	.word	0x0016e35f
 8002e64:	feced300 	.word	0xfeced300
 8002e68:	001b7740 	.word	0x001b7740
 8002e6c:	feb35bc0 	.word	0xfeb35bc0
 8002e70:	002191c0 	.word	0x002191c0
 8002e74:	00387520 	.word	0x00387520
 8002e78:	fe5954e0 	.word	0xfe5954e0
 8002e7c:	00419ce0 	.word	0x00419ce0

08002e80 <USB_EnableGlobalInt>:
 8002e80:	6883      	ldr	r3, [r0, #8]
 8002e82:	f043 0301 	orr.w	r3, r3, #1
 8002e86:	6083      	str	r3, [r0, #8]
 8002e88:	2000      	movs	r0, #0
 8002e8a:	4770      	bx	lr

08002e8c <USB_DisableGlobalInt>:
 8002e8c:	6883      	ldr	r3, [r0, #8]
 8002e8e:	f023 0301 	bic.w	r3, r3, #1
 8002e92:	6083      	str	r3, [r0, #8]
 8002e94:	2000      	movs	r0, #0
 8002e96:	4770      	bx	lr

08002e98 <USB_SetCurrentMode>:
 8002e98:	b538      	push	{r3, r4, r5, lr}
 8002e9a:	68c3      	ldr	r3, [r0, #12]
 8002e9c:	2901      	cmp	r1, #1
 8002e9e:	f023 43c0 	bic.w	r3, r3, #1610612736	; 0x60000000
 8002ea2:	4605      	mov	r5, r0
 8002ea4:	60c3      	str	r3, [r0, #12]
 8002ea6:	d110      	bne.n	8002eca <USB_SetCurrentMode+0x32>
 8002ea8:	68c3      	ldr	r3, [r0, #12]
 8002eaa:	f043 5300 	orr.w	r3, r3, #536870912	; 0x20000000
 8002eae:	60c3      	str	r3, [r0, #12]
 8002eb0:	2400      	movs	r4, #0
 8002eb2:	2001      	movs	r0, #1
 8002eb4:	f7fd f9c6 	bl	8000244 <HAL_Delay>
 8002eb8:	696b      	ldr	r3, [r5, #20]
 8002eba:	07d9      	lsls	r1, r3, #31
 8002ebc:	f104 0401 	add.w	r4, r4, #1
 8002ec0:	d415      	bmi.n	8002eee <USB_SetCurrentMode+0x56>
 8002ec2:	2c32      	cmp	r4, #50	; 0x32
 8002ec4:	d1f5      	bne.n	8002eb2 <USB_SetCurrentMode+0x1a>
 8002ec6:	2001      	movs	r0, #1
 8002ec8:	bd38      	pop	{r3, r4, r5, pc}
 8002eca:	2900      	cmp	r1, #0
 8002ecc:	d1fb      	bne.n	8002ec6 <USB_SetCurrentMode+0x2e>
 8002ece:	68c3      	ldr	r3, [r0, #12]
 8002ed0:	f043 4380 	orr.w	r3, r3, #1073741824	; 0x40000000
 8002ed4:	60c3      	str	r3, [r0, #12]
 8002ed6:	460c      	mov	r4, r1
 8002ed8:	2001      	movs	r0, #1
 8002eda:	f7fd f9b3 	bl	8000244 <HAL_Delay>
 8002ede:	696b      	ldr	r3, [r5, #20]
 8002ee0:	07da      	lsls	r2, r3, #31
 8002ee2:	f104 0401 	add.w	r4, r4, #1
 8002ee6:	d502      	bpl.n	8002eee <USB_SetCurrentMode+0x56>
 8002ee8:	2c32      	cmp	r4, #50	; 0x32
 8002eea:	d1f5      	bne.n	8002ed8 <USB_SetCurrentMode+0x40>
 8002eec:	e7eb      	b.n	8002ec6 <USB_SetCurrentMode+0x2e>
 8002eee:	f1a4 0332 	sub.w	r3, r4, #50	; 0x32
 8002ef2:	4258      	negs	r0, r3
 8002ef4:	4158      	adcs	r0, r3
 8002ef6:	e7e7      	b.n	8002ec8 <USB_SetCurrentMode+0x30>

08002ef8 <USB_FlushTxFifo>:
 8002ef8:	b082      	sub	sp, #8
 8002efa:	2300      	movs	r3, #0
 8002efc:	4a0f      	ldr	r2, [pc, #60]	; (8002f3c <USB_FlushTxFifo+0x44>)
 8002efe:	9301      	str	r3, [sp, #4]
 8002f00:	9b01      	ldr	r3, [sp, #4]
 8002f02:	3301      	adds	r3, #1
 8002f04:	4293      	cmp	r3, r2
 8002f06:	9301      	str	r3, [sp, #4]
 8002f08:	d815      	bhi.n	8002f36 <USB_FlushTxFifo+0x3e>
 8002f0a:	6903      	ldr	r3, [r0, #16]
 8002f0c:	2b00      	cmp	r3, #0
 8002f0e:	daf7      	bge.n	8002f00 <USB_FlushTxFifo+0x8>
 8002f10:	0189      	lsls	r1, r1, #6
 8002f12:	2300      	movs	r3, #0
 8002f14:	f041 0120 	orr.w	r1, r1, #32
 8002f18:	4a08      	ldr	r2, [pc, #32]	; (8002f3c <USB_FlushTxFifo+0x44>)
 8002f1a:	9301      	str	r3, [sp, #4]
 8002f1c:	6101      	str	r1, [r0, #16]
 8002f1e:	9b01      	ldr	r3, [sp, #4]
 8002f20:	3301      	adds	r3, #1
 8002f22:	4293      	cmp	r3, r2
 8002f24:	9301      	str	r3, [sp, #4]
 8002f26:	d806      	bhi.n	8002f36 <USB_FlushTxFifo+0x3e>
 8002f28:	6903      	ldr	r3, [r0, #16]
 8002f2a:	f013 0320 	ands.w	r3, r3, #32
 8002f2e:	d1f6      	bne.n	8002f1e <USB_FlushTxFifo+0x26>
 8002f30:	4618      	mov	r0, r3
 8002f32:	b002      	add	sp, #8
 8002f34:	4770      	bx	lr
 8002f36:	2003      	movs	r0, #3
 8002f38:	e7fb      	b.n	8002f32 <USB_FlushTxFifo+0x3a>
 8002f3a:	bf00      	nop
 8002f3c:	00030d40 	.word	0x00030d40

08002f40 <USB_FlushRxFifo>:
 8002f40:	b082      	sub	sp, #8
 8002f42:	2300      	movs	r3, #0
 8002f44:	4a0e      	ldr	r2, [pc, #56]	; (8002f80 <USB_FlushRxFifo+0x40>)
 8002f46:	9301      	str	r3, [sp, #4]
 8002f48:	9b01      	ldr	r3, [sp, #4]
 8002f4a:	3301      	adds	r3, #1
 8002f4c:	4293      	cmp	r3, r2
 8002f4e:	9301      	str	r3, [sp, #4]
 8002f50:	d813      	bhi.n	8002f7a <USB_FlushRxFifo+0x3a>
 8002f52:	6903      	ldr	r3, [r0, #16]
 8002f54:	2b00      	cmp	r3, #0
 8002f56:	daf7      	bge.n	8002f48 <USB_FlushRxFifo+0x8>
 8002f58:	2300      	movs	r3, #0
 8002f5a:	9301      	str	r3, [sp, #4]
 8002f5c:	4a08      	ldr	r2, [pc, #32]	; (8002f80 <USB_FlushRxFifo+0x40>)
 8002f5e:	2310      	movs	r3, #16
 8002f60:	6103      	str	r3, [r0, #16]
 8002f62:	9b01      	ldr	r3, [sp, #4]
 8002f64:	3301      	adds	r3, #1
 8002f66:	4293      	cmp	r3, r2
 8002f68:	9301      	str	r3, [sp, #4]
 8002f6a:	d806      	bhi.n	8002f7a <USB_FlushRxFifo+0x3a>
 8002f6c:	6903      	ldr	r3, [r0, #16]
 8002f6e:	f013 0310 	ands.w	r3, r3, #16
 8002f72:	d1f6      	bne.n	8002f62 <USB_FlushRxFifo+0x22>
 8002f74:	4618      	mov	r0, r3
 8002f76:	b002      	add	sp, #8
 8002f78:	4770      	bx	lr
 8002f7a:	2003      	movs	r0, #3
 8002f7c:	e7fb      	b.n	8002f76 <USB_FlushRxFifo+0x36>
 8002f7e:	bf00      	nop
 8002f80:	00030d40 	.word	0x00030d40

08002f84 <USB_SetDevSpeed>:
 8002f84:	f8d0 3800 	ldr.w	r3, [r0, #2048]	; 0x800
 8002f88:	4319      	orrs	r1, r3
 8002f8a:	f8c0 1800 	str.w	r1, [r0, #2048]	; 0x800
 8002f8e:	2000      	movs	r0, #0
 8002f90:	4770      	bx	lr
	...

08002f94 <USB_DevInit>:
 8002f94:	b084      	sub	sp, #16
 8002f96:	e92d 43f8 	stmdb	sp!, {r3, r4, r5, r6, r7, r8, r9, lr}
 8002f9a:	4604      	mov	r4, r0
 8002f9c:	a809      	add	r0, sp, #36	; 0x24
 8002f9e:	e880 000e 	stmia.w	r0, {r1, r2, r3}
 8002fa2:	9f13      	ldr	r7, [sp, #76]	; 0x4c
 8002fa4:	2300      	movs	r3, #0
 8002fa6:	4688      	mov	r8, r1
 8002fa8:	4619      	mov	r1, r3
 8002faa:	f103 0240 	add.w	r2, r3, #64	; 0x40
 8002fae:	eb04 0282 	add.w	r2, r4, r2, lsl #2
 8002fb2:	3301      	adds	r3, #1
 8002fb4:	2b0f      	cmp	r3, #15
 8002fb6:	6051      	str	r1, [r2, #4]
 8002fb8:	d1f7      	bne.n	8002faa <USB_DevInit+0x16>
 8002fba:	f504 6600 	add.w	r6, r4, #2048	; 0x800
 8002fbe:	2f00      	cmp	r7, #0
 8002fc0:	d164      	bne.n	800308c <USB_DevInit+0xf8>
 8002fc2:	6873      	ldr	r3, [r6, #4]
 8002fc4:	f043 0302 	orr.w	r3, r3, #2
 8002fc8:	6073      	str	r3, [r6, #4]
 8002fca:	6ba3      	ldr	r3, [r4, #56]	; 0x38
 8002fcc:	f423 1300 	bic.w	r3, r3, #2097152	; 0x200000
 8002fd0:	63a3      	str	r3, [r4, #56]	; 0x38
 8002fd2:	6823      	ldr	r3, [r4, #0]
 8002fd4:	f043 0340 	orr.w	r3, r3, #64	; 0x40
 8002fd8:	6023      	str	r3, [r4, #0]
 8002fda:	6823      	ldr	r3, [r4, #0]
 8002fdc:	f043 0380 	orr.w	r3, r3, #128	; 0x80
 8002fe0:	6023      	str	r3, [r4, #0]
 8002fe2:	2500      	movs	r5, #0
 8002fe4:	f8c4 5e00 	str.w	r5, [r4, #3584]	; 0xe00
 8002fe8:	f8d4 3800 	ldr.w	r3, [r4, #2048]	; 0x800
 8002fec:	f8c4 3800 	str.w	r3, [r4, #2048]	; 0x800
 8002ff0:	2103      	movs	r1, #3
 8002ff2:	4620      	mov	r0, r4
 8002ff4:	f7ff ffc6 	bl	8002f84 <USB_SetDevSpeed>
 8002ff8:	2110      	movs	r1, #16
 8002ffa:	4620      	mov	r0, r4
 8002ffc:	f7ff ff7c 	bl	8002ef8 <USB_FlushTxFifo>
 8003000:	4601      	mov	r1, r0
 8003002:	4620      	mov	r0, r4
 8003004:	f7ff ff9c 	bl	8002f40 <USB_FlushRxFifo>
 8003008:	4308      	orrs	r0, r1
 800300a:	b2c0      	uxtb	r0, r0
 800300c:	1b40      	subs	r0, r0, r5
 800300e:	6135      	str	r5, [r6, #16]
 8003010:	bf18      	it	ne
 8003012:	2001      	movne	r0, #1
 8003014:	6175      	str	r5, [r6, #20]
 8003016:	f504 6310 	add.w	r3, r4, #2304	; 0x900
 800301a:	61f5      	str	r5, [r6, #28]
 800301c:	462a      	mov	r2, r5
 800301e:	f04f 4190 	mov.w	r1, #1207959552	; 0x48000000
 8003022:	f04f 6c00 	mov.w	ip, #134217728	; 0x8000000
 8003026:	f64f 3e7f 	movw	lr, #64383	; 0xfb7f
 800302a:	4545      	cmp	r5, r8
 800302c:	d133      	bne.n	8003096 <USB_DevInit+0x102>
 800302e:	2200      	movs	r2, #0
 8003030:	f504 6330 	add.w	r3, r4, #2816	; 0xb00
 8003034:	4611      	mov	r1, r2
 8003036:	f04f 4590 	mov.w	r5, #1207959552	; 0x48000000
 800303a:	f04f 6c00 	mov.w	ip, #134217728	; 0x8000000
 800303e:	f64f 3e7f 	movw	lr, #64383	; 0xfb7f
 8003042:	4542      	cmp	r2, r8
 8003044:	d139      	bne.n	80030ba <USB_DevInit+0x126>
 8003046:	6933      	ldr	r3, [r6, #16]
 8003048:	f423 7380 	bic.w	r3, r3, #256	; 0x100
 800304c:	6133      	str	r3, [r6, #16]
 800304e:	2300      	movs	r3, #0
 8003050:	61a3      	str	r3, [r4, #24]
 8003052:	f06f 4380 	mvn.w	r3, #1073741824	; 0x40000000
 8003056:	6163      	str	r3, [r4, #20]
 8003058:	69a3      	ldr	r3, [r4, #24]
 800305a:	f043 0310 	orr.w	r3, r3, #16
 800305e:	61a3      	str	r3, [r4, #24]
 8003060:	69a2      	ldr	r2, [r4, #24]
 8003062:	4b1f      	ldr	r3, [pc, #124]	; (80030e0 <USB_DevInit+0x14c>)
 8003064:	4313      	orrs	r3, r2
 8003066:	61a3      	str	r3, [r4, #24]
 8003068:	9b0f      	ldr	r3, [sp, #60]	; 0x3c
 800306a:	b11b      	cbz	r3, 8003074 <USB_DevInit+0xe0>
 800306c:	69a3      	ldr	r3, [r4, #24]
 800306e:	f043 0308 	orr.w	r3, r3, #8
 8003072:	61a3      	str	r3, [r4, #24]
 8003074:	2f01      	cmp	r7, #1
 8003076:	bf01      	itttt	eq
 8003078:	69a3      	ldreq	r3, [r4, #24]
 800307a:	f043 4380 	orreq.w	r3, r3, #1073741824	; 0x40000000
 800307e:	f043 0304 	orreq.w	r3, r3, #4
 8003082:	61a3      	streq	r3, [r4, #24]
 8003084:	e8bd 43f8 	ldmia.w	sp!, {r3, r4, r5, r6, r7, r8, r9, lr}
 8003088:	b004      	add	sp, #16
 800308a:	4770      	bx	lr
 800308c:	6ba3      	ldr	r3, [r4, #56]	; 0x38
 800308e:	f443 1300 	orr.w	r3, r3, #2097152	; 0x200000
 8003092:	63a3      	str	r3, [r4, #56]	; 0x38
 8003094:	e7a5      	b.n	8002fe2 <USB_DevInit+0x4e>
 8003096:	f8d3 9000 	ldr.w	r9, [r3]
 800309a:	f1b9 0f00 	cmp.w	r9, #0
 800309e:	da0a      	bge.n	80030b6 <USB_DevInit+0x122>
 80030a0:	b93d      	cbnz	r5, 80030b2 <USB_DevInit+0x11e>
 80030a2:	f8c3 c000 	str.w	ip, [r3]
 80030a6:	611a      	str	r2, [r3, #16]
 80030a8:	3501      	adds	r5, #1
 80030aa:	f8c3 e008 	str.w	lr, [r3, #8]
 80030ae:	3320      	adds	r3, #32
 80030b0:	e7bb      	b.n	800302a <USB_DevInit+0x96>
 80030b2:	6019      	str	r1, [r3, #0]
 80030b4:	e7f7      	b.n	80030a6 <USB_DevInit+0x112>
 80030b6:	601a      	str	r2, [r3, #0]
 80030b8:	e7f5      	b.n	80030a6 <USB_DevInit+0x112>
 80030ba:	f8d3 9000 	ldr.w	r9, [r3]
 80030be:	f1b9 0f00 	cmp.w	r9, #0
 80030c2:	da0a      	bge.n	80030da <USB_DevInit+0x146>
 80030c4:	b93a      	cbnz	r2, 80030d6 <USB_DevInit+0x142>
 80030c6:	f8c3 c000 	str.w	ip, [r3]
 80030ca:	6119      	str	r1, [r3, #16]
 80030cc:	3201      	adds	r2, #1
 80030ce:	f8c3 e008 	str.w	lr, [r3, #8]
 80030d2:	3320      	adds	r3, #32
 80030d4:	e7b5      	b.n	8003042 <USB_DevInit+0xae>
 80030d6:	601d      	str	r5, [r3, #0]
 80030d8:	e7f7      	b.n	80030ca <USB_DevInit+0x136>
 80030da:	6019      	str	r1, [r3, #0]
 80030dc:	e7f5      	b.n	80030ca <USB_DevInit+0x136>
 80030de:	bf00      	nop
 80030e0:	803c3800 	.word	0x803c3800

080030e4 <USB_GetDevSpeed>:
 80030e4:	f8d0 3808 	ldr.w	r3, [r0, #2056]	; 0x808
 80030e8:	f013 0f02 	tst.w	r3, #2
 80030ec:	f500 6000 	add.w	r0, r0, #2048	; 0x800
 80030f0:	bf14      	ite	ne
 80030f2:	2002      	movne	r0, #2
 80030f4:	200f      	moveq	r0, #15
 80030f6:	4770      	bx	lr

080030f8 <USB_ActivateEndpoint>:
 80030f8:	b530      	push	{r4, r5, lr}
 80030fa:	780d      	ldrb	r5, [r1, #0]
 80030fc:	2401      	movs	r4, #1
 80030fe:	f005 030f 	and.w	r3, r5, #15
 8003102:	409c      	lsls	r4, r3
 8003104:	784b      	ldrb	r3, [r1, #1]
 8003106:	f500 6200 	add.w	r2, r0, #2048	; 0x800
 800310a:	2b01      	cmp	r3, #1
 800310c:	eb00 1045 	add.w	r0, r0, r5, lsl #5
 8003110:	69d3      	ldr	r3, [r2, #28]
 8003112:	d118      	bne.n	8003146 <USB_ActivateEndpoint+0x4e>
 8003114:	431c      	orrs	r4, r3
 8003116:	61d4      	str	r4, [r2, #28]
 8003118:	f8d0 3900 	ldr.w	r3, [r0, #2304]	; 0x900
 800311c:	041a      	lsls	r2, r3, #16
 800311e:	d410      	bmi.n	8003142 <USB_ActivateEndpoint+0x4a>
 8003120:	688a      	ldr	r2, [r1, #8]
 8003122:	f8d0 4900 	ldr.w	r4, [r0, #2304]	; 0x900
 8003126:	f3c2 030a 	ubfx	r3, r2, #0, #11
 800312a:	78ca      	ldrb	r2, [r1, #3]
 800312c:	4323      	orrs	r3, r4
 800312e:	ea43 4382 	orr.w	r3, r3, r2, lsl #18
 8003132:	ea43 5385 	orr.w	r3, r3, r5, lsl #22
 8003136:	f043 5380 	orr.w	r3, r3, #268435456	; 0x10000000
 800313a:	f443 4300 	orr.w	r3, r3, #32768	; 0x8000
 800313e:	f8c0 3900 	str.w	r3, [r0, #2304]	; 0x900
 8003142:	2000      	movs	r0, #0
 8003144:	bd30      	pop	{r4, r5, pc}
 8003146:	ea43 4404 	orr.w	r4, r3, r4, lsl #16
 800314a:	61d4      	str	r4, [r2, #28]
 800314c:	f8d0 3b00 	ldr.w	r3, [r0, #2816]	; 0xb00
 8003150:	041b      	lsls	r3, r3, #16
 8003152:	d4f6      	bmi.n	8003142 <USB_ActivateEndpoint+0x4a>
 8003154:	688b      	ldr	r3, [r1, #8]
 8003156:	f8d0 2b00 	ldr.w	r2, [r0, #2816]	; 0xb00
 800315a:	f3c3 030a 	ubfx	r3, r3, #0, #11
 800315e:	4313      	orrs	r3, r2
 8003160:	78ca      	ldrb	r2, [r1, #3]
 8003162:	ea43 4382 	orr.w	r3, r3, r2, lsl #18
 8003166:	f043 5380 	orr.w	r3, r3, #268435456	; 0x10000000
 800316a:	f443 4300 	orr.w	r3, r3, #32768	; 0x8000
 800316e:	f8c0 3b00 	str.w	r3, [r0, #2816]	; 0xb00
 8003172:	e7e6      	b.n	8003142 <USB_ActivateEndpoint+0x4a>

08003174 <USB_DeactivateEndpoint>:
 8003174:	b510      	push	{r4, lr}
 8003176:	780a      	ldrb	r2, [r1, #0]
 8003178:	7849      	ldrb	r1, [r1, #1]
 800317a:	2901      	cmp	r1, #1
 800317c:	eb00 1342 	add.w	r3, r0, r2, lsl #5
 8003180:	f500 6000 	add.w	r0, r0, #2048	; 0x800
 8003184:	f002 020f 	and.w	r2, r2, #15
 8003188:	d122      	bne.n	80031d0 <USB_DeactivateEndpoint+0x5c>
 800318a:	f8d3 1900 	ldr.w	r1, [r3, #2304]	; 0x900
 800318e:	2900      	cmp	r1, #0
 8003190:	da0b      	bge.n	80031aa <USB_DeactivateEndpoint+0x36>
 8003192:	f8d3 1900 	ldr.w	r1, [r3, #2304]	; 0x900
 8003196:	f041 6100 	orr.w	r1, r1, #134217728	; 0x8000000
 800319a:	f8c3 1900 	str.w	r1, [r3, #2304]	; 0x900
 800319e:	f8d3 1900 	ldr.w	r1, [r3, #2304]	; 0x900
 80031a2:	f041 4180 	orr.w	r1, r1, #1073741824	; 0x40000000
 80031a6:	f8c3 1900 	str.w	r1, [r3, #2304]	; 0x900
 80031aa:	6bc4      	ldr	r4, [r0, #60]	; 0x3c
 80031ac:	2101      	movs	r1, #1
 80031ae:	fa01 f202 	lsl.w	r2, r1, r2
 80031b2:	ea24 0402 	bic.w	r4, r4, r2
 80031b6:	63c4      	str	r4, [r0, #60]	; 0x3c
 80031b8:	69c1      	ldr	r1, [r0, #28]
 80031ba:	ea21 0202 	bic.w	r2, r1, r2
 80031be:	61c2      	str	r2, [r0, #28]
 80031c0:	f8d3 1900 	ldr.w	r1, [r3, #2304]	; 0x900
 80031c4:	4a14      	ldr	r2, [pc, #80]	; (8003218 <USB_DeactivateEndpoint+0xa4>)
 80031c6:	400a      	ands	r2, r1
 80031c8:	f8c3 2900 	str.w	r2, [r3, #2304]	; 0x900
 80031cc:	2000      	movs	r0, #0
 80031ce:	bd10      	pop	{r4, pc}
 80031d0:	f8d3 1b00 	ldr.w	r1, [r3, #2816]	; 0xb00
 80031d4:	2900      	cmp	r1, #0
 80031d6:	da0b      	bge.n	80031f0 <USB_DeactivateEndpoint+0x7c>
 80031d8:	f8d3 1b00 	ldr.w	r1, [r3, #2816]	; 0xb00
 80031dc:	f041 6100 	orr.w	r1, r1, #134217728	; 0x8000000
 80031e0:	f8c3 1b00 	str.w	r1, [r3, #2816]	; 0xb00
 80031e4:	f8d3 1b00 	ldr.w	r1, [r3, #2816]	; 0xb00
 80031e8:	f041 4180 	orr.w	r1, r1, #1073741824	; 0x40000000
 80031ec:	f8c3 1b00 	str.w	r1, [r3, #2816]	; 0xb00
 80031f0:	6bc4      	ldr	r4, [r0, #60]	; 0x3c
 80031f2:	f44f 3180 	mov.w	r1, #65536	; 0x10000
 80031f6:	fa01 f202 	lsl.w	r2, r1, r2
 80031fa:	ea24 0402 	bic.w	r4, r4, r2
 80031fe:	63c4      	str	r4, [r0, #60]	; 0x3c
 8003200:	69c1      	ldr	r1, [r0, #28]
 8003202:	ea21 0202 	bic.w	r2, r1, r2
 8003206:	61c2      	str	r2, [r0, #28]
 8003208:	f8d3 1b00 	ldr.w	r1, [r3, #2816]	; 0xb00
 800320c:	4a03      	ldr	r2, [pc, #12]	; (800321c <USB_DeactivateEndpoint+0xa8>)
 800320e:	400a      	ands	r2, r1
 8003210:	f8c3 2b00 	str.w	r2, [r3, #2816]	; 0xb00
 8003214:	e7da      	b.n	80031cc <USB_DeactivateEndpoint+0x58>
 8003216:	bf00      	nop
 8003218:	ec337800 	.word	0xec337800
 800321c:	eff37800 	.word	0xeff37800

08003220 <USB_EP0StartXfer>:
 8003220:	b5f0      	push	{r4, r5, r6, r7, lr}
 8003222:	784b      	ldrb	r3, [r1, #1]
 8003224:	780d      	ldrb	r5, [r1, #0]
 8003226:	694e      	ldr	r6, [r1, #20]
 8003228:	4f2d      	ldr	r7, [pc, #180]	; (80032e0 <USB_EP0StartXfer+0xc0>)
 800322a:	f8df c0b8 	ldr.w	ip, [pc, #184]	; 80032e4 <USB_EP0StartXfer+0xc4>
 800322e:	2b01      	cmp	r3, #1
 8003230:	eb00 1445 	add.w	r4, r0, r5, lsl #5
 8003234:	d134      	bne.n	80032a0 <USB_EP0StartXfer+0x80>
 8003236:	f504 6310 	add.w	r3, r4, #2304	; 0x900
 800323a:	691a      	ldr	r2, [r3, #16]
 800323c:	b9e6      	cbnz	r6, 8003278 <USB_EP0StartXfer+0x58>
 800323e:	403a      	ands	r2, r7
 8003240:	611a      	str	r2, [r3, #16]
 8003242:	691a      	ldr	r2, [r3, #16]
 8003244:	f442 2200 	orr.w	r2, r2, #524288	; 0x80000
 8003248:	611a      	str	r2, [r3, #16]
 800324a:	691a      	ldr	r2, [r3, #16]
 800324c:	ea02 020c 	and.w	r2, r2, ip
 8003250:	611a      	str	r2, [r3, #16]
 8003252:	f8d4 3900 	ldr.w	r3, [r4, #2304]	; 0x900
 8003256:	f043 4304 	orr.w	r3, r3, #2214592512	; 0x84000000
 800325a:	f8c4 3900 	str.w	r3, [r4, #2304]	; 0x900
 800325e:	694b      	ldr	r3, [r1, #20]
 8003260:	b143      	cbz	r3, 8003274 <USB_EP0StartXfer+0x54>
 8003262:	f8d0 2834 	ldr.w	r2, [r0, #2100]	; 0x834
 8003266:	f005 050f 	and.w	r5, r5, #15
 800326a:	2301      	movs	r3, #1
 800326c:	40ab      	lsls	r3, r5
 800326e:	4313      	orrs	r3, r2
 8003270:	f8c0 3834 	str.w	r3, [r0, #2100]	; 0x834
 8003274:	2000      	movs	r0, #0
 8003276:	bdf0      	pop	{r4, r5, r6, r7, pc}
 8003278:	ea02 020c 	and.w	r2, r2, ip
 800327c:	611a      	str	r2, [r3, #16]
 800327e:	691a      	ldr	r2, [r3, #16]
 8003280:	403a      	ands	r2, r7
 8003282:	611a      	str	r2, [r3, #16]
 8003284:	688a      	ldr	r2, [r1, #8]
 8003286:	42b2      	cmp	r2, r6
 8003288:	bf38      	it	cc
 800328a:	614a      	strcc	r2, [r1, #20]
 800328c:	691a      	ldr	r2, [r3, #16]
 800328e:	f442 2200 	orr.w	r2, r2, #524288	; 0x80000
 8003292:	611a      	str	r2, [r3, #16]
 8003294:	694a      	ldr	r2, [r1, #20]
 8003296:	691e      	ldr	r6, [r3, #16]
 8003298:	f3c2 0212 	ubfx	r2, r2, #0, #19
 800329c:	4332      	orrs	r2, r6
 800329e:	e7d7      	b.n	8003250 <USB_EP0StartXfer+0x30>
 80032a0:	f8d4 2b10 	ldr.w	r2, [r4, #2832]	; 0xb10
 80032a4:	ea02 020c 	and.w	r2, r2, ip
 80032a8:	f8c4 2b10 	str.w	r2, [r4, #2832]	; 0xb10
 80032ac:	f8d4 2b10 	ldr.w	r2, [r4, #2832]	; 0xb10
 80032b0:	403a      	ands	r2, r7
 80032b2:	f504 6330 	add.w	r3, r4, #2816	; 0xb00
 80032b6:	611a      	str	r2, [r3, #16]
 80032b8:	688a      	ldr	r2, [r1, #8]
 80032ba:	b106      	cbz	r6, 80032be <USB_EP0StartXfer+0x9e>
 80032bc:	614a      	str	r2, [r1, #20]
 80032be:	6919      	ldr	r1, [r3, #16]
 80032c0:	f441 2100 	orr.w	r1, r1, #524288	; 0x80000
 80032c4:	6119      	str	r1, [r3, #16]
 80032c6:	6919      	ldr	r1, [r3, #16]
 80032c8:	f3c2 0212 	ubfx	r2, r2, #0, #19
 80032cc:	430a      	orrs	r2, r1
 80032ce:	611a      	str	r2, [r3, #16]
 80032d0:	f8d4 3b00 	ldr.w	r3, [r4, #2816]	; 0xb00
 80032d4:	f043 4304 	orr.w	r3, r3, #2214592512	; 0x84000000
 80032d8:	f8c4 3b00 	str.w	r3, [r4, #2816]	; 0xb00
 80032dc:	e7ca      	b.n	8003274 <USB_EP0StartXfer+0x54>
 80032de:	bf00      	nop
 80032e0:	e007ffff 	.word	0xe007ffff
 80032e4:	fff80000 	.word	0xfff80000

080032e8 <USB_WritePacket>:
 80032e8:	3303      	adds	r3, #3
 80032ea:	3201      	adds	r2, #1
 80032ec:	089b      	lsrs	r3, r3, #2
 80032ee:	eb00 3002 	add.w	r0, r0, r2, lsl #12
 80032f2:	eb01 0383 	add.w	r3, r1, r3, lsl #2
 80032f6:	4299      	cmp	r1, r3
 80032f8:	d101      	bne.n	80032fe <USB_WritePacket+0x16>
 80032fa:	2000      	movs	r0, #0
 80032fc:	4770      	bx	lr
 80032fe:	f851 2b04 	ldr.w	r2, [r1], #4
 8003302:	6002      	str	r2, [r0, #0]
 8003304:	e7f7      	b.n	80032f6 <USB_WritePacket+0xe>
	...

08003308 <USB_EPStartXfer>:
 8003308:	b5f8      	push	{r3, r4, r5, r6, r7, lr}
 800330a:	784c      	ldrb	r4, [r1, #1]
 800330c:	780a      	ldrb	r2, [r1, #0]
 800330e:	694b      	ldr	r3, [r1, #20]
 8003310:	78ce      	ldrb	r6, [r1, #3]
 8003312:	4f53      	ldr	r7, [pc, #332]	; (8003460 <USB_EPStartXfer+0x158>)
 8003314:	f8df c150 	ldr.w	ip, [pc, #336]	; 8003468 <USB_EPStartXfer+0x160>
 8003318:	2c01      	cmp	r4, #1
 800331a:	eb00 1542 	add.w	r5, r0, r2, lsl #5
 800331e:	d15e      	bne.n	80033de <USB_EPStartXfer+0xd6>
 8003320:	f505 6410 	add.w	r4, r5, #2304	; 0x900
 8003324:	f8d4 e010 	ldr.w	lr, [r4, #16]
 8003328:	b9f3      	cbnz	r3, 8003368 <USB_EPStartXfer+0x60>
 800332a:	ea0e 0707 	and.w	r7, lr, r7
 800332e:	6127      	str	r7, [r4, #16]
 8003330:	6927      	ldr	r7, [r4, #16]
 8003332:	f447 2700 	orr.w	r7, r7, #524288	; 0x80000
 8003336:	6127      	str	r7, [r4, #16]
 8003338:	6927      	ldr	r7, [r4, #16]
 800333a:	ea07 070c 	and.w	r7, r7, ip
 800333e:	6127      	str	r7, [r4, #16]
 8003340:	f8d5 4900 	ldr.w	r4, [r5, #2304]	; 0x900
 8003344:	2e01      	cmp	r6, #1
 8003346:	f044 4404 	orr.w	r4, r4, #2214592512	; 0x84000000
 800334a:	f8c5 4900 	str.w	r4, [r5, #2304]	; 0x900
 800334e:	d034      	beq.n	80033ba <USB_EPStartXfer+0xb2>
 8003350:	b143      	cbz	r3, 8003364 <USB_EPStartXfer+0x5c>
 8003352:	f8d0 3834 	ldr.w	r3, [r0, #2100]	; 0x834
 8003356:	f002 010f 	and.w	r1, r2, #15
 800335a:	2201      	movs	r2, #1
 800335c:	408a      	lsls	r2, r1
 800335e:	431a      	orrs	r2, r3
 8003360:	f8c0 2834 	str.w	r2, [r0, #2100]	; 0x834
 8003364:	2000      	movs	r0, #0
 8003366:	bdf8      	pop	{r3, r4, r5, r6, r7, pc}
 8003368:	ea0e 0c0c 	and.w	ip, lr, ip
 800336c:	f8c4 c010 	str.w	ip, [r4, #16]
 8003370:	f8d4 c010 	ldr.w	ip, [r4, #16]
 8003374:	ea0c 0707 	and.w	r7, ip, r7
 8003378:	f8d1 c008 	ldr.w	ip, [r1, #8]
 800337c:	6127      	str	r7, [r4, #16]
 800337e:	eb0c 0703 	add.w	r7, ip, r3
 8003382:	3f01      	subs	r7, #1
 8003384:	fbb7 fcfc 	udiv	ip, r7, ip
 8003388:	4f36      	ldr	r7, [pc, #216]	; (8003464 <USB_EPStartXfer+0x15c>)
 800338a:	f8d4 e010 	ldr.w	lr, [r4, #16]
 800338e:	ea07 47cc 	and.w	r7, r7, ip, lsl #19
 8003392:	ea47 070e 	orr.w	r7, r7, lr
 8003396:	6127      	str	r7, [r4, #16]
 8003398:	f8d4 c010 	ldr.w	ip, [r4, #16]
 800339c:	f3c3 0712 	ubfx	r7, r3, #0, #19
 80033a0:	ea47 070c 	orr.w	r7, r7, ip
 80033a4:	2e01      	cmp	r6, #1
 80033a6:	6127      	str	r7, [r4, #16]
 80033a8:	d1ca      	bne.n	8003340 <USB_EPStartXfer+0x38>
 80033aa:	6927      	ldr	r7, [r4, #16]
 80033ac:	f027 47c0 	bic.w	r7, r7, #1610612736	; 0x60000000
 80033b0:	6127      	str	r7, [r4, #16]
 80033b2:	6927      	ldr	r7, [r4, #16]
 80033b4:	f047 5700 	orr.w	r7, r7, #536870912	; 0x20000000
 80033b8:	e7c1      	b.n	800333e <USB_EPStartXfer+0x36>
 80033ba:	f8d0 4808 	ldr.w	r4, [r0, #2056]	; 0x808
 80033be:	68c9      	ldr	r1, [r1, #12]
 80033c0:	f414 7f80 	tst.w	r4, #256	; 0x100
 80033c4:	f8d5 4900 	ldr.w	r4, [r5, #2304]	; 0x900
 80033c8:	bf0c      	ite	eq
 80033ca:	f044 5400 	orreq.w	r4, r4, #536870912	; 0x20000000
 80033ce:	f044 5480 	orrne.w	r4, r4, #268435456	; 0x10000000
 80033d2:	f8c5 4900 	str.w	r4, [r5, #2304]	; 0x900
 80033d6:	b29b      	uxth	r3, r3
 80033d8:	f7ff ff86 	bl	80032e8 <USB_WritePacket>
 80033dc:	e7c2      	b.n	8003364 <USB_EPStartXfer+0x5c>
 80033de:	f8d5 4b10 	ldr.w	r4, [r5, #2832]	; 0xb10
 80033e2:	6889      	ldr	r1, [r1, #8]
 80033e4:	ea04 040c 	and.w	r4, r4, ip
 80033e8:	f8c5 4b10 	str.w	r4, [r5, #2832]	; 0xb10
 80033ec:	f8d5 4b10 	ldr.w	r4, [r5, #2832]	; 0xb10
 80033f0:	403c      	ands	r4, r7
 80033f2:	f505 6230 	add.w	r2, r5, #2816	; 0xb00
 80033f6:	6114      	str	r4, [r2, #16]
 80033f8:	b9f3      	cbnz	r3, 8003438 <USB_EPStartXfer+0x130>
 80033fa:	6913      	ldr	r3, [r2, #16]
 80033fc:	f3c1 0112 	ubfx	r1, r1, #0, #19
 8003400:	4319      	orrs	r1, r3
 8003402:	6111      	str	r1, [r2, #16]
 8003404:	6913      	ldr	r3, [r2, #16]
 8003406:	f443 2300 	orr.w	r3, r3, #524288	; 0x80000
 800340a:	6113      	str	r3, [r2, #16]
 800340c:	2e01      	cmp	r6, #1
 800340e:	d10c      	bne.n	800342a <USB_EPStartXfer+0x122>
 8003410:	f8d0 3808 	ldr.w	r3, [r0, #2056]	; 0x808
 8003414:	f413 7f80 	tst.w	r3, #256	; 0x100
 8003418:	f8d5 3b00 	ldr.w	r3, [r5, #2816]	; 0xb00
 800341c:	bf0c      	ite	eq
 800341e:	f043 5300 	orreq.w	r3, r3, #536870912	; 0x20000000
 8003422:	f043 5380 	orrne.w	r3, r3, #268435456	; 0x10000000
 8003426:	f8c5 3b00 	str.w	r3, [r5, #2816]	; 0xb00
 800342a:	f8d5 3b00 	ldr.w	r3, [r5, #2816]	; 0xb00
 800342e:	f043 4304 	orr.w	r3, r3, #2214592512	; 0x84000000
 8003432:	f8c5 3b00 	str.w	r3, [r5, #2816]	; 0xb00
 8003436:	e795      	b.n	8003364 <USB_EPStartXfer+0x5c>
 8003438:	4f0a      	ldr	r7, [pc, #40]	; (8003464 <USB_EPStartXfer+0x15c>)
 800343a:	f8d2 c010 	ldr.w	ip, [r2, #16]
 800343e:	440b      	add	r3, r1
 8003440:	3b01      	subs	r3, #1
 8003442:	fbb3 f3f1 	udiv	r3, r3, r1
 8003446:	b29c      	uxth	r4, r3
 8003448:	ea07 43c3 	and.w	r3, r7, r3, lsl #19
 800344c:	ea43 030c 	orr.w	r3, r3, ip
 8003450:	6113      	str	r3, [r2, #16]
 8003452:	6913      	ldr	r3, [r2, #16]
 8003454:	4361      	muls	r1, r4
 8003456:	f3c1 0112 	ubfx	r1, r1, #0, #19
 800345a:	4319      	orrs	r1, r3
 800345c:	6111      	str	r1, [r2, #16]
 800345e:	e7d5      	b.n	800340c <USB_EPStartXfer+0x104>
 8003460:	e007ffff 	.word	0xe007ffff
 8003464:	1ff80000 	.word	0x1ff80000
 8003468:	fff80000 	.word	0xfff80000

0800346c <USB_ReadPacket>:
 800346c:	4603      	mov	r3, r0
 800346e:	b570      	push	{r4, r5, r6, lr}
 8003470:	0890      	lsrs	r0, r2, #2
 8003472:	2400      	movs	r4, #0
 8003474:	f002 0203 	and.w	r2, r2, #3
 8003478:	f503 5580 	add.w	r5, r3, #4096	; 0x1000
 800347c:	4284      	cmp	r4, r0
 800347e:	d310      	bcc.n	80034a2 <USB_ReadPacket+0x36>
 8003480:	eb01 0080 	add.w	r0, r1, r0, lsl #2
 8003484:	b162      	cbz	r2, 80034a0 <USB_ReadPacket+0x34>
 8003486:	f503 5380 	add.w	r3, r3, #4096	; 0x1000
 800348a:	681c      	ldr	r4, [r3, #0]
 800348c:	2300      	movs	r3, #0
 800348e:	00d9      	lsls	r1, r3, #3
 8003490:	fa24 f101 	lsr.w	r1, r4, r1
 8003494:	54c1      	strb	r1, [r0, r3]
 8003496:	3301      	adds	r3, #1
 8003498:	b299      	uxth	r1, r3
 800349a:	428a      	cmp	r2, r1
 800349c:	d1f7      	bne.n	800348e <USB_ReadPacket+0x22>
 800349e:	4410      	add	r0, r2
 80034a0:	bd70      	pop	{r4, r5, r6, pc}
 80034a2:	682e      	ldr	r6, [r5, #0]
 80034a4:	f841 6024 	str.w	r6, [r1, r4, lsl #2]
 80034a8:	3401      	adds	r4, #1
 80034aa:	e7e7      	b.n	800347c <USB_ReadPacket+0x10>

080034ac <USB_EPSetStall>:
 80034ac:	784a      	ldrb	r2, [r1, #1]
 80034ae:	780b      	ldrb	r3, [r1, #0]
 80034b0:	2a01      	cmp	r2, #1
 80034b2:	eb00 1043 	add.w	r0, r0, r3, lsl #5
 80034b6:	d112      	bne.n	80034de <USB_EPSetStall+0x32>
 80034b8:	f8d0 2900 	ldr.w	r2, [r0, #2304]	; 0x900
 80034bc:	2a00      	cmp	r2, #0
 80034be:	db06      	blt.n	80034ce <USB_EPSetStall+0x22>
 80034c0:	b12b      	cbz	r3, 80034ce <USB_EPSetStall+0x22>
 80034c2:	f8d0 3900 	ldr.w	r3, [r0, #2304]	; 0x900
 80034c6:	f023 4380 	bic.w	r3, r3, #1073741824	; 0x40000000
 80034ca:	f8c0 3900 	str.w	r3, [r0, #2304]	; 0x900
 80034ce:	f8d0 3900 	ldr.w	r3, [r0, #2304]	; 0x900
 80034d2:	f443 1300 	orr.w	r3, r3, #2097152	; 0x200000
 80034d6:	f8c0 3900 	str.w	r3, [r0, #2304]	; 0x900
 80034da:	2000      	movs	r0, #0
 80034dc:	4770      	bx	lr
 80034de:	f8d0 2b00 	ldr.w	r2, [r0, #2816]	; 0xb00
 80034e2:	2a00      	cmp	r2, #0
 80034e4:	db06      	blt.n	80034f4 <USB_EPSetStall+0x48>
 80034e6:	b12b      	cbz	r3, 80034f4 <USB_EPSetStall+0x48>
 80034e8:	f8d0 3b00 	ldr.w	r3, [r0, #2816]	; 0xb00
 80034ec:	f023 4380 	bic.w	r3, r3, #1073741824	; 0x40000000
 80034f0:	f8c0 3b00 	str.w	r3, [r0, #2816]	; 0xb00
 80034f4:	f8d0 3b00 	ldr.w	r3, [r0, #2816]	; 0xb00
 80034f8:	f443 1300 	orr.w	r3, r3, #2097152	; 0x200000
 80034fc:	f8c0 3b00 	str.w	r3, [r0, #2816]	; 0xb00
 8003500:	e7eb      	b.n	80034da <USB_EPSetStall+0x2e>

08003502 <USB_EPClearStall>:
 8003502:	780b      	ldrb	r3, [r1, #0]
 8003504:	784a      	ldrb	r2, [r1, #1]
 8003506:	eb00 1043 	add.w	r0, r0, r3, lsl #5
 800350a:	78cb      	ldrb	r3, [r1, #3]
 800350c:	2a01      	cmp	r2, #1
 800350e:	f1a3 0302 	sub.w	r3, r3, #2
 8003512:	b2db      	uxtb	r3, r3
 8003514:	d10f      	bne.n	8003536 <USB_EPClearStall+0x34>
 8003516:	f8d0 2900 	ldr.w	r2, [r0, #2304]	; 0x900
 800351a:	2b01      	cmp	r3, #1
 800351c:	f422 1200 	bic.w	r2, r2, #2097152	; 0x200000
 8003520:	f8c0 2900 	str.w	r2, [r0, #2304]	; 0x900
 8003524:	d805      	bhi.n	8003532 <USB_EPClearStall+0x30>
 8003526:	f8d0 3900 	ldr.w	r3, [r0, #2304]	; 0x900
 800352a:	f043 5380 	orr.w	r3, r3, #268435456	; 0x10000000
 800352e:	f8c0 3900 	str.w	r3, [r0, #2304]	; 0x900
 8003532:	2000      	movs	r0, #0
 8003534:	4770      	bx	lr
 8003536:	f8d0 2b00 	ldr.w	r2, [r0, #2816]	; 0xb00
 800353a:	f422 1200 	bic.w	r2, r2, #2097152	; 0x200000
 800353e:	2b01      	cmp	r3, #1
 8003540:	f8c0 2b00 	str.w	r2, [r0, #2816]	; 0xb00
 8003544:	bf9e      	ittt	ls
 8003546:	f8d0 3b00 	ldrls.w	r3, [r0, #2816]	; 0xb00
 800354a:	f043 5380 	orrls.w	r3, r3, #268435456	; 0x10000000
 800354e:	f8c0 3b00 	strls.w	r3, [r0, #2816]	; 0xb00
 8003552:	e7ee      	b.n	8003532 <USB_EPClearStall+0x30>

08003554 <USB_SetDevAddress>:
 8003554:	f8d0 3800 	ldr.w	r3, [r0, #2048]	; 0x800
 8003558:	f423 63fe 	bic.w	r3, r3, #2032	; 0x7f0
 800355c:	f8c0 3800 	str.w	r3, [r0, #2048]	; 0x800
 8003560:	f8d0 3800 	ldr.w	r3, [r0, #2048]	; 0x800
 8003564:	0109      	lsls	r1, r1, #4
 8003566:	f401 61fe 	and.w	r1, r1, #2032	; 0x7f0
 800356a:	4319      	orrs	r1, r3
 800356c:	f8c0 1800 	str.w	r1, [r0, #2048]	; 0x800
 8003570:	2000      	movs	r0, #0
 8003572:	4770      	bx	lr

08003574 <USB_DevConnect>:
 8003574:	f8d0 3e00 	ldr.w	r3, [r0, #3584]	; 0xe00
 8003578:	f023 0303 	bic.w	r3, r3, #3
 800357c:	f8c0 3e00 	str.w	r3, [r0, #3584]	; 0xe00
 8003580:	f8d0 3804 	ldr.w	r3, [r0, #2052]	; 0x804
 8003584:	f023 0302 	bic.w	r3, r3, #2
 8003588:	f8c0 3804 	str.w	r3, [r0, #2052]	; 0x804
 800358c:	2000      	movs	r0, #0
 800358e:	4770      	bx	lr

08003590 <USB_DevDisconnect>:
 8003590:	f8d0 3e00 	ldr.w	r3, [r0, #3584]	; 0xe00
 8003594:	f023 0303 	bic.w	r3, r3, #3
 8003598:	f8c0 3e00 	str.w	r3, [r0, #3584]	; 0xe00
 800359c:	f8d0 3804 	ldr.w	r3, [r0, #2052]	; 0x804
 80035a0:	f043 0302 	orr.w	r3, r3, #2
 80035a4:	f8c0 3804 	str.w	r3, [r0, #2052]	; 0x804
 80035a8:	2000      	movs	r0, #0
 80035aa:	4770      	bx	lr

080035ac <USB_ReadInterrupts>:
 80035ac:	6942      	ldr	r2, [r0, #20]
 80035ae:	6980      	ldr	r0, [r0, #24]
 80035b0:	4010      	ands	r0, r2
 80035b2:	4770      	bx	lr

080035b4 <USB_ReadDevAllOutEpInterrupt>:
 80035b4:	f8d0 3818 	ldr.w	r3, [r0, #2072]	; 0x818
 80035b8:	f500 6000 	add.w	r0, r0, #2048	; 0x800
 80035bc:	69c0      	ldr	r0, [r0, #28]
 80035be:	4018      	ands	r0, r3
 80035c0:	0c00      	lsrs	r0, r0, #16
 80035c2:	4770      	bx	lr

080035c4 <USB_ReadDevAllInEpInterrupt>:
 80035c4:	f8d0 3818 	ldr.w	r3, [r0, #2072]	; 0x818
 80035c8:	f500 6000 	add.w	r0, r0, #2048	; 0x800
 80035cc:	69c0      	ldr	r0, [r0, #28]
 80035ce:	4018      	ands	r0, r3
 80035d0:	b280      	uxth	r0, r0
 80035d2:	4770      	bx	lr

080035d4 <USB_ReadDevOutEPInterrupt>:
 80035d4:	eb00 1141 	add.w	r1, r0, r1, lsl #5
 80035d8:	f500 6000 	add.w	r0, r0, #2048	; 0x800
 80035dc:	f8d1 2b08 	ldr.w	r2, [r1, #2824]	; 0xb08
 80035e0:	6940      	ldr	r0, [r0, #20]
 80035e2:	4010      	ands	r0, r2
 80035e4:	4770      	bx	lr

080035e6 <USB_ReadDevInEPInterrupt>:
 80035e6:	b510      	push	{r4, lr}
 80035e8:	f8d0 4810 	ldr.w	r4, [r0, #2064]	; 0x810
 80035ec:	f8d0 3834 	ldr.w	r3, [r0, #2100]	; 0x834
 80035f0:	eb00 1041 	add.w	r0, r0, r1, lsl #5
 80035f4:	f001 010f 	and.w	r1, r1, #15
 80035f8:	40cb      	lsrs	r3, r1
 80035fa:	f500 6010 	add.w	r0, r0, #2304	; 0x900
 80035fe:	01db      	lsls	r3, r3, #7
 8003600:	6880      	ldr	r0, [r0, #8]
 8003602:	b2db      	uxtb	r3, r3
 8003604:	4323      	orrs	r3, r4
 8003606:	4018      	ands	r0, r3
 8003608:	bd10      	pop	{r4, pc}

0800360a <USB_GetMode>:
 800360a:	6940      	ldr	r0, [r0, #20]
 800360c:	f000 0001 	and.w	r0, r0, #1
 8003610:	4770      	bx	lr

08003612 <USB_ActivateSetup>:
 8003612:	f8d0 3900 	ldr.w	r3, [r0, #2304]	; 0x900
 8003616:	f423 63ff 	bic.w	r3, r3, #2040	; 0x7f8
 800361a:	f023 0307 	bic.w	r3, r3, #7
 800361e:	f8c0 3900 	str.w	r3, [r0, #2304]	; 0x900
 8003622:	f8d0 3804 	ldr.w	r3, [r0, #2052]	; 0x804
 8003626:	f443 7380 	orr.w	r3, r3, #256	; 0x100
 800362a:	f8c0 3804 	str.w	r3, [r0, #2052]	; 0x804
 800362e:	2000      	movs	r0, #0
 8003630:	4770      	bx	lr
	...

08003634 <USB_EP0_OutStart>:
 8003634:	6c01      	ldr	r1, [r0, #64]	; 0x40
 8003636:	4a0c      	ldr	r2, [pc, #48]	; (8003668 <USB_EP0_OutStart+0x34>)
 8003638:	4291      	cmp	r1, r2
 800363a:	f500 6330 	add.w	r3, r0, #2816	; 0xb00
 800363e:	d903      	bls.n	8003648 <USB_EP0_OutStart+0x14>
 8003640:	f8d0 2b00 	ldr.w	r2, [r0, #2816]	; 0xb00
 8003644:	2a00      	cmp	r2, #0
 8003646:	db0d      	blt.n	8003664 <USB_EP0_OutStart+0x30>
 8003648:	2200      	movs	r2, #0
 800364a:	611a      	str	r2, [r3, #16]
 800364c:	691a      	ldr	r2, [r3, #16]
 800364e:	f442 2200 	orr.w	r2, r2, #524288	; 0x80000
 8003652:	611a      	str	r2, [r3, #16]
 8003654:	691a      	ldr	r2, [r3, #16]
 8003656:	f042 0218 	orr.w	r2, r2, #24
 800365a:	611a      	str	r2, [r3, #16]
 800365c:	691a      	ldr	r2, [r3, #16]
 800365e:	f042 42c0 	orr.w	r2, r2, #1610612736	; 0x60000000
 8003662:	611a      	str	r2, [r3, #16]
 8003664:	2000      	movs	r0, #0
 8003666:	4770      	bx	lr
 8003668:	4f54300a 	.word	0x4f54300a

0800366c <USBD_CDC_EP0_RxReady>:
 800366c:	b510      	push	{r4, lr}
 800366e:	f8d0 42bc 	ldr.w	r4, [r0, #700]	; 0x2bc
 8003672:	b184      	cbz	r4, 8003696 <USBD_CDC_EP0_RxReady+0x2a>
 8003674:	f8d0 32c0 	ldr.w	r3, [r0, #704]	; 0x2c0
 8003678:	b15b      	cbz	r3, 8003692 <USBD_CDC_EP0_RxReady+0x26>
 800367a:	f894 0200 	ldrb.w	r0, [r4, #512]	; 0x200
 800367e:	28ff      	cmp	r0, #255	; 0xff
 8003680:	d007      	beq.n	8003692 <USBD_CDC_EP0_RxReady+0x26>
 8003682:	689b      	ldr	r3, [r3, #8]
 8003684:	f894 2201 	ldrb.w	r2, [r4, #513]	; 0x201
 8003688:	4621      	mov	r1, r4
 800368a:	4798      	blx	r3
 800368c:	23ff      	movs	r3, #255	; 0xff
 800368e:	f884 3200 	strb.w	r3, [r4, #512]	; 0x200
 8003692:	2000      	movs	r0, #0
 8003694:	e000      	b.n	8003698 <USBD_CDC_EP0_RxReady+0x2c>
 8003696:	2003      	movs	r0, #3
 8003698:	bd10      	pop	{r4, pc}
	...

0800369c <USBD_CDC_GetFSCfgDesc>:
 800369c:	2343      	movs	r3, #67	; 0x43
 800369e:	8003      	strh	r3, [r0, #0]
 80036a0:	4800      	ldr	r0, [pc, #0]	; (80036a4 <USBD_CDC_GetFSCfgDesc+0x8>)
 80036a2:	4770      	bx	lr
 80036a4:	20000040 	.word	0x20000040

080036a8 <USBD_CDC_GetHSCfgDesc>:
 80036a8:	2343      	movs	r3, #67	; 0x43
 80036aa:	8003      	strh	r3, [r0, #0]
 80036ac:	4800      	ldr	r0, [pc, #0]	; (80036b0 <USBD_CDC_GetHSCfgDesc+0x8>)
 80036ae:	4770      	bx	lr
 80036b0:	20000084 	.word	0x20000084

080036b4 <USBD_CDC_GetOtherSpeedCfgDesc>:
 80036b4:	2343      	movs	r3, #67	; 0x43
 80036b6:	8003      	strh	r3, [r0, #0]
 80036b8:	4800      	ldr	r0, [pc, #0]	; (80036bc <USBD_CDC_GetOtherSpeedCfgDesc+0x8>)
 80036ba:	4770      	bx	lr
 80036bc:	200000d4 	.word	0x200000d4

080036c0 <USBD_CDC_GetDeviceQualifierDescriptor>:
 80036c0:	230a      	movs	r3, #10
 80036c2:	8003      	strh	r3, [r0, #0]
 80036c4:	4800      	ldr	r0, [pc, #0]	; (80036c8 <USBD_CDC_GetDeviceQualifierDescriptor+0x8>)
 80036c6:	4770      	bx	lr
 80036c8:	200000c8 	.word	0x200000c8

080036cc <USBD_CDC_DataOut>:
 80036cc:	b538      	push	{r3, r4, r5, lr}
 80036ce:	f8d0 42bc 	ldr.w	r4, [r0, #700]	; 0x2bc
 80036d2:	4605      	mov	r5, r0
 80036d4:	b16c      	cbz	r4, 80036f2 <USBD_CDC_DataOut+0x26>
 80036d6:	f003 feef 	bl	80074b8 <USBD_LL_GetRxDataSize>
 80036da:	f8d5 32c0 	ldr.w	r3, [r5, #704]	; 0x2c0
 80036de:	f8c4 020c 	str.w	r0, [r4, #524]	; 0x20c
 80036e2:	68db      	ldr	r3, [r3, #12]
 80036e4:	f8d4 0204 	ldr.w	r0, [r4, #516]	; 0x204
 80036e8:	f504 7103 	add.w	r1, r4, #524	; 0x20c
 80036ec:	4798      	blx	r3
 80036ee:	2000      	movs	r0, #0
 80036f0:	bd38      	pop	{r3, r4, r5, pc}
 80036f2:	2003      	movs	r0, #3
 80036f4:	e7fc      	b.n	80036f0 <USBD_CDC_DataOut+0x24>

080036f6 <USBD_CDC_DataIn>:
 80036f6:	b5f8      	push	{r3, r4, r5, r6, r7, lr}
 80036f8:	f8d0 62bc 	ldr.w	r6, [r0, #700]	; 0x2bc
 80036fc:	4605      	mov	r5, r0
 80036fe:	460a      	mov	r2, r1
 8003700:	b336      	cbz	r6, 8003750 <USBD_CDC_DataIn+0x5a>
 8003702:	2314      	movs	r3, #20
 8003704:	fb03 0301 	mla	r3, r3, r1, r0
 8003708:	699c      	ldr	r4, [r3, #24]
 800370a:	b194      	cbz	r4, 8003732 <USBD_CDC_DataIn+0x3c>
 800370c:	f8d0 72c4 	ldr.w	r7, [r0, #708]	; 0x2c4
 8003710:	f04f 0c1c 	mov.w	ip, #28
 8003714:	fb0c 7701 	mla	r7, ip, r1, r7
 8003718:	6c7f      	ldr	r7, [r7, #68]	; 0x44
 800371a:	fbb4 fcf7 	udiv	ip, r4, r7
 800371e:	fb07 441c 	mls	r4, r7, ip, r4
 8003722:	b934      	cbnz	r4, 8003732 <USBD_CDC_DataIn+0x3c>
 8003724:	619c      	str	r4, [r3, #24]
 8003726:	4622      	mov	r2, r4
 8003728:	4623      	mov	r3, r4
 800372a:	f003 fea9 	bl	8007480 <USBD_LL_Transmit>
 800372e:	4620      	mov	r0, r4
 8003730:	e00d      	b.n	800374e <USBD_CDC_DataIn+0x58>
 8003732:	f8d5 32c0 	ldr.w	r3, [r5, #704]	; 0x2c0
 8003736:	691c      	ldr	r4, [r3, #16]
 8003738:	2700      	movs	r7, #0
 800373a:	f8c6 7214 	str.w	r7, [r6, #532]	; 0x214
 800373e:	2c00      	cmp	r4, #0
 8003740:	d0f5      	beq.n	800372e <USBD_CDC_DataIn+0x38>
 8003742:	f8d6 0208 	ldr.w	r0, [r6, #520]	; 0x208
 8003746:	f506 7104 	add.w	r1, r6, #528	; 0x210
 800374a:	47a0      	blx	r4
 800374c:	4638      	mov	r0, r7
 800374e:	bdf8      	pop	{r3, r4, r5, r6, r7, pc}
 8003750:	2003      	movs	r0, #3
 8003752:	e7fc      	b.n	800374e <USBD_CDC_DataIn+0x58>

08003754 <USBD_CDC_Setup>:
 8003754:	e92d 43f7 	stmdb	sp!, {r0, r1, r2, r4, r5, r6, r7, r8, r9, lr}
 8003758:	f8d0 72bc 	ldr.w	r7, [r0, #700]	; 0x2bc
 800375c:	f04f 0800 	mov.w	r8, #0
 8003760:	4605      	mov	r5, r0
 8003762:	460e      	mov	r6, r1
 8003764:	f88d 8005 	strb.w	r8, [sp, #5]
 8003768:	f8ad 8006 	strh.w	r8, [sp, #6]
 800376c:	2f00      	cmp	r7, #0
 800376e:	d06a      	beq.n	8003846 <USBD_CDC_Setup+0xf2>
 8003770:	780a      	ldrb	r2, [r1, #0]
 8003772:	f012 0460 	ands.w	r4, r2, #96	; 0x60
 8003776:	d02b      	beq.n	80037d0 <USBD_CDC_Setup+0x7c>
 8003778:	2c20      	cmp	r4, #32
 800377a:	d160      	bne.n	800383e <USBD_CDC_Setup+0xea>
 800377c:	88cc      	ldrh	r4, [r1, #6]
 800377e:	784b      	ldrb	r3, [r1, #1]
 8003780:	b1fc      	cbz	r4, 80037c2 <USBD_CDC_Setup+0x6e>
 8003782:	0612      	lsls	r2, r2, #24
 8003784:	d514      	bpl.n	80037b0 <USBD_CDC_Setup+0x5c>
 8003786:	f8d0 22c0 	ldr.w	r2, [r0, #704]	; 0x2c0
 800378a:	4639      	mov	r1, r7
 800378c:	f8d2 9008 	ldr.w	r9, [r2, #8]
 8003790:	4618      	mov	r0, r3
 8003792:	4622      	mov	r2, r4
 8003794:	47c8      	blx	r9
 8003796:	88f2      	ldrh	r2, [r6, #6]
 8003798:	2a07      	cmp	r2, #7
 800379a:	bf28      	it	cs
 800379c:	2207      	movcs	r2, #7
 800379e:	4639      	mov	r1, r7
 80037a0:	4628      	mov	r0, r5
 80037a2:	f000 fcb7 	bl	8004114 <USBD_CtlSendData>
 80037a6:	4644      	mov	r4, r8
 80037a8:	4620      	mov	r0, r4
 80037aa:	b003      	add	sp, #12
 80037ac:	e8bd 83f0 	ldmia.w	sp!, {r4, r5, r6, r7, r8, r9, pc}
 80037b0:	f887 3200 	strb.w	r3, [r7, #512]	; 0x200
 80037b4:	f887 4201 	strb.w	r4, [r7, #513]	; 0x201
 80037b8:	4622      	mov	r2, r4
 80037ba:	4639      	mov	r1, r7
 80037bc:	f000 fcbf 	bl	800413e <USBD_CtlPrepareRx>
 80037c0:	e7f1      	b.n	80037a6 <USBD_CDC_Setup+0x52>
 80037c2:	f8d0 22c0 	ldr.w	r2, [r0, #704]	; 0x2c0
 80037c6:	4618      	mov	r0, r3
 80037c8:	6895      	ldr	r5, [r2, #8]
 80037ca:	4622      	mov	r2, r4
 80037cc:	47a8      	blx	r5
 80037ce:	e7eb      	b.n	80037a8 <USBD_CDC_Setup+0x54>
 80037d0:	784f      	ldrb	r7, [r1, #1]
 80037d2:	2f0b      	cmp	r7, #11
 80037d4:	d833      	bhi.n	800383e <USBD_CDC_Setup+0xea>
 80037d6:	a301      	add	r3, pc, #4	; (adr r3, 80037dc <USBD_CDC_Setup+0x88>)
 80037d8:	f853 f027 	ldr.w	pc, [r3, r7, lsl #2]
 80037dc:	0800380d 	.word	0x0800380d
 80037e0:	080037a9 	.word	0x080037a9
 80037e4:	0800383f 	.word	0x0800383f
 80037e8:	0800383f 	.word	0x0800383f
 80037ec:	0800383f 	.word	0x0800383f
 80037f0:	0800383f 	.word	0x0800383f
 80037f4:	0800383f 	.word	0x0800383f
 80037f8:	0800383f 	.word	0x0800383f
 80037fc:	0800383f 	.word	0x0800383f
 8003800:	0800383f 	.word	0x0800383f
 8003804:	08003823 	.word	0x08003823
 8003808:	08003837 	.word	0x08003837
 800380c:	f890 329c 	ldrb.w	r3, [r0, #668]	; 0x29c
 8003810:	2b03      	cmp	r3, #3
 8003812:	d114      	bne.n	800383e <USBD_CDC_Setup+0xea>
 8003814:	2202      	movs	r2, #2
 8003816:	f10d 0106 	add.w	r1, sp, #6
 800381a:	f000 fc7b 	bl	8004114 <USBD_CtlSendData>
 800381e:	463c      	mov	r4, r7
 8003820:	e7c2      	b.n	80037a8 <USBD_CDC_Setup+0x54>
 8003822:	f890 329c 	ldrb.w	r3, [r0, #668]	; 0x29c
 8003826:	2b03      	cmp	r3, #3
 8003828:	d109      	bne.n	800383e <USBD_CDC_Setup+0xea>
 800382a:	2201      	movs	r2, #1
 800382c:	f10d 0105 	add.w	r1, sp, #5
 8003830:	f000 fc70 	bl	8004114 <USBD_CtlSendData>
 8003834:	e7b8      	b.n	80037a8 <USBD_CDC_Setup+0x54>
 8003836:	f890 329c 	ldrb.w	r3, [r0, #668]	; 0x29c
 800383a:	2b03      	cmp	r3, #3
 800383c:	d0b4      	beq.n	80037a8 <USBD_CDC_Setup+0x54>
 800383e:	4631      	mov	r1, r6
 8003840:	4628      	mov	r0, r5
 8003842:	f000 fc40 	bl	80040c6 <USBD_CtlError>
 8003846:	2403      	movs	r4, #3
 8003848:	e7ae      	b.n	80037a8 <USBD_CDC_Setup+0x54>
 800384a:	bf00      	nop

0800384c <USBD_CDC_DeInit>:
 800384c:	b538      	push	{r3, r4, r5, lr}
 800384e:	4604      	mov	r4, r0
 8003850:	2500      	movs	r5, #0
 8003852:	2181      	movs	r1, #129	; 0x81
 8003854:	f003 fdc8 	bl	80073e8 <USBD_LL_CloseEP>
 8003858:	2101      	movs	r1, #1
 800385a:	8725      	strh	r5, [r4, #56]	; 0x38
 800385c:	4620      	mov	r0, r4
 800385e:	f003 fdc3 	bl	80073e8 <USBD_LL_CloseEP>
 8003862:	f8a4 5178 	strh.w	r5, [r4, #376]	; 0x178
 8003866:	2182      	movs	r1, #130	; 0x82
 8003868:	4620      	mov	r0, r4
 800386a:	f003 fdbd 	bl	80073e8 <USBD_LL_CloseEP>
 800386e:	f8d4 32bc 	ldr.w	r3, [r4, #700]	; 0x2bc
 8003872:	64e5      	str	r5, [r4, #76]	; 0x4c
 8003874:	b14b      	cbz	r3, 800388a <USBD_CDC_DeInit+0x3e>
 8003876:	f8d4 32c0 	ldr.w	r3, [r4, #704]	; 0x2c0
 800387a:	685b      	ldr	r3, [r3, #4]
 800387c:	4798      	blx	r3
 800387e:	f8d4 02bc 	ldr.w	r0, [r4, #700]	; 0x2bc
 8003882:	f003 fe21 	bl	80074c8 <USBD_static_free>
 8003886:	f8c4 52bc 	str.w	r5, [r4, #700]	; 0x2bc
 800388a:	2000      	movs	r0, #0
 800388c:	bd38      	pop	{r3, r4, r5, pc}

0800388e <USBD_CDC_Init>:
 800388e:	b5f8      	push	{r3, r4, r5, r6, r7, lr}
 8003890:	4604      	mov	r4, r0
 8003892:	f44f 7007 	mov.w	r0, #540	; 0x21c
 8003896:	f003 fe13 	bl	80074c0 <USBD_static_malloc>
 800389a:	4605      	mov	r5, r0
 800389c:	f8c4 02bc 	str.w	r0, [r4, #700]	; 0x2bc
 80038a0:	b910      	cbnz	r0, 80038a8 <USBD_CDC_Init+0x1a>
 80038a2:	2602      	movs	r6, #2
 80038a4:	4630      	mov	r0, r6
 80038a6:	bdf8      	pop	{r3, r4, r5, r6, r7, pc}
 80038a8:	7c23      	ldrb	r3, [r4, #16]
 80038aa:	bb8b      	cbnz	r3, 8003910 <USBD_CDC_Init+0x82>
 80038ac:	f44f 7300 	mov.w	r3, #512	; 0x200
 80038b0:	2202      	movs	r2, #2
 80038b2:	2181      	movs	r1, #129	; 0x81
 80038b4:	4620      	mov	r0, r4
 80038b6:	2601      	movs	r6, #1
 80038b8:	f003 fd86 	bl	80073c8 <USBD_LL_OpenEP>
 80038bc:	8726      	strh	r6, [r4, #56]	; 0x38
 80038be:	f44f 7300 	mov.w	r3, #512	; 0x200
 80038c2:	4631      	mov	r1, r6
 80038c4:	2202      	movs	r2, #2
 80038c6:	4620      	mov	r0, r4
 80038c8:	f003 fd7e 	bl	80073c8 <USBD_LL_OpenEP>
 80038cc:	2310      	movs	r3, #16
 80038ce:	f8a4 6178 	strh.w	r6, [r4, #376]	; 0x178
 80038d2:	f8a4 304e 	strh.w	r3, [r4, #78]	; 0x4e
 80038d6:	2203      	movs	r2, #3
 80038d8:	2308      	movs	r3, #8
 80038da:	2182      	movs	r1, #130	; 0x82
 80038dc:	4620      	mov	r0, r4
 80038de:	f003 fd73 	bl	80073c8 <USBD_LL_OpenEP>
 80038e2:	f8d4 32c0 	ldr.w	r3, [r4, #704]	; 0x2c0
 80038e6:	2101      	movs	r1, #1
 80038e8:	f8a4 104c 	strh.w	r1, [r4, #76]	; 0x4c
 80038ec:	2700      	movs	r7, #0
 80038ee:	681b      	ldr	r3, [r3, #0]
 80038f0:	4798      	blx	r3
 80038f2:	f8c5 7214 	str.w	r7, [r5, #532]	; 0x214
 80038f6:	f8c5 7218 	str.w	r7, [r5, #536]	; 0x218
 80038fa:	7c26      	ldrb	r6, [r4, #16]
 80038fc:	2101      	movs	r1, #1
 80038fe:	b98e      	cbnz	r6, 8003924 <USBD_CDC_Init+0x96>
 8003900:	f8d5 2204 	ldr.w	r2, [r5, #516]	; 0x204
 8003904:	f44f 7300 	mov.w	r3, #512	; 0x200
 8003908:	4620      	mov	r0, r4
 800390a:	f003 fdc7 	bl	800749c <USBD_LL_PrepareReceive>
 800390e:	e7c9      	b.n	80038a4 <USBD_CDC_Init+0x16>
 8003910:	2340      	movs	r3, #64	; 0x40
 8003912:	2202      	movs	r2, #2
 8003914:	2181      	movs	r1, #129	; 0x81
 8003916:	4620      	mov	r0, r4
 8003918:	2601      	movs	r6, #1
 800391a:	f003 fd55 	bl	80073c8 <USBD_LL_OpenEP>
 800391e:	8726      	strh	r6, [r4, #56]	; 0x38
 8003920:	2340      	movs	r3, #64	; 0x40
 8003922:	e7ce      	b.n	80038c2 <USBD_CDC_Init+0x34>
 8003924:	f8d5 2204 	ldr.w	r2, [r5, #516]	; 0x204
 8003928:	2340      	movs	r3, #64	; 0x40
 800392a:	4620      	mov	r0, r4
 800392c:	f003 fdb6 	bl	800749c <USBD_LL_PrepareReceive>
 8003930:	463e      	mov	r6, r7
 8003932:	e7b7      	b.n	80038a4 <USBD_CDC_Init+0x16>

08003934 <USBD_CDC_RegisterInterface>:
 8003934:	b119      	cbz	r1, 800393e <USBD_CDC_RegisterInterface+0xa>
 8003936:	f8c0 12c0 	str.w	r1, [r0, #704]	; 0x2c0
 800393a:	2000      	movs	r0, #0
 800393c:	4770      	bx	lr
 800393e:	2003      	movs	r0, #3
 8003940:	4770      	bx	lr

08003942 <USBD_CDC_SetTxBuffer>:
 8003942:	f8d0 32bc 	ldr.w	r3, [r0, #700]	; 0x2bc
 8003946:	b12b      	cbz	r3, 8003954 <USBD_CDC_SetTxBuffer+0x12>
 8003948:	f8c3 1208 	str.w	r1, [r3, #520]	; 0x208
 800394c:	f8c3 2210 	str.w	r2, [r3, #528]	; 0x210
 8003950:	2000      	movs	r0, #0
 8003952:	4770      	bx	lr
 8003954:	2003      	movs	r0, #3
 8003956:	4770      	bx	lr

08003958 <USBD_CDC_SetRxBuffer>:
 8003958:	f8d0 32bc 	ldr.w	r3, [r0, #700]	; 0x2bc
 800395c:	b11b      	cbz	r3, 8003966 <USBD_CDC_SetRxBuffer+0xe>
 800395e:	f8c3 1204 	str.w	r1, [r3, #516]	; 0x204
 8003962:	2000      	movs	r0, #0
 8003964:	4770      	bx	lr
 8003966:	2003      	movs	r0, #3
 8003968:	4770      	bx	lr

0800396a <USBD_CDC_TransmitPacket>:
 800396a:	f8d0 22bc 	ldr.w	r2, [r0, #700]	; 0x2bc
 800396e:	b510      	push	{r4, lr}
 8003970:	b17a      	cbz	r2, 8003992 <USBD_CDC_TransmitPacket+0x28>
 8003972:	f8d2 4214 	ldr.w	r4, [r2, #532]	; 0x214
 8003976:	2301      	movs	r3, #1
 8003978:	b96c      	cbnz	r4, 8003996 <USBD_CDC_TransmitPacket+0x2c>
 800397a:	f8c2 3214 	str.w	r3, [r2, #532]	; 0x214
 800397e:	f8d2 3210 	ldr.w	r3, [r2, #528]	; 0x210
 8003982:	62c3      	str	r3, [r0, #44]	; 0x2c
 8003984:	f8d2 2208 	ldr.w	r2, [r2, #520]	; 0x208
 8003988:	2181      	movs	r1, #129	; 0x81
 800398a:	f003 fd79 	bl	8007480 <USBD_LL_Transmit>
 800398e:	4620      	mov	r0, r4
 8003990:	bd10      	pop	{r4, pc}
 8003992:	2003      	movs	r0, #3
 8003994:	e7fc      	b.n	8003990 <USBD_CDC_TransmitPacket+0x26>
 8003996:	4618      	mov	r0, r3
 8003998:	e7fa      	b.n	8003990 <USBD_CDC_TransmitPacket+0x26>

0800399a <USBD_CDC_ReceivePacket>:
 800399a:	f8d0 22bc 	ldr.w	r2, [r0, #700]	; 0x2bc
 800399e:	b510      	push	{r4, lr}
 80039a0:	b182      	cbz	r2, 80039c4 <USBD_CDC_ReceivePacket+0x2a>
 80039a2:	7c04      	ldrb	r4, [r0, #16]
 80039a4:	f8d2 2204 	ldr.w	r2, [r2, #516]	; 0x204
 80039a8:	b934      	cbnz	r4, 80039b8 <USBD_CDC_ReceivePacket+0x1e>
 80039aa:	f44f 7300 	mov.w	r3, #512	; 0x200
 80039ae:	2101      	movs	r1, #1
 80039b0:	f003 fd74 	bl	800749c <USBD_LL_PrepareReceive>
 80039b4:	4620      	mov	r0, r4
 80039b6:	bd10      	pop	{r4, pc}
 80039b8:	2340      	movs	r3, #64	; 0x40
 80039ba:	2101      	movs	r1, #1
 80039bc:	f003 fd6e 	bl	800749c <USBD_LL_PrepareReceive>
 80039c0:	2400      	movs	r4, #0
 80039c2:	e7f7      	b.n	80039b4 <USBD_CDC_ReceivePacket+0x1a>
 80039c4:	2403      	movs	r4, #3
 80039c6:	e7f5      	b.n	80039b4 <USBD_CDC_ReceivePacket+0x1a>

080039c8 <USBD_Init>:
 80039c8:	b178      	cbz	r0, 80039ea <USBD_Init+0x22>
 80039ca:	2300      	movs	r3, #0
 80039cc:	f8c0 32b8 	str.w	r3, [r0, #696]	; 0x2b8
 80039d0:	f8c0 32c0 	str.w	r3, [r0, #704]	; 0x2c0
 80039d4:	f8c0 32cc 	str.w	r3, [r0, #716]	; 0x2cc
 80039d8:	b109      	cbz	r1, 80039de <USBD_Init+0x16>
 80039da:	f8c0 12b4 	str.w	r1, [r0, #692]	; 0x2b4
 80039de:	2301      	movs	r3, #1
 80039e0:	f880 329c 	strb.w	r3, [r0, #668]	; 0x29c
 80039e4:	7002      	strb	r2, [r0, #0]
 80039e6:	f003 bcb3 	b.w	8007350 <USBD_LL_Init>
 80039ea:	2003      	movs	r0, #3
 80039ec:	4770      	bx	lr

080039ee <USBD_RegisterClass>:
 80039ee:	b537      	push	{r0, r1, r2, r4, r5, lr}
 80039f0:	2500      	movs	r5, #0
 80039f2:	4604      	mov	r4, r0
 80039f4:	f8ad 5006 	strh.w	r5, [sp, #6]
 80039f8:	b159      	cbz	r1, 8003a12 <USBD_RegisterClass+0x24>
 80039fa:	6acb      	ldr	r3, [r1, #44]	; 0x2c
 80039fc:	f8c0 12b8 	str.w	r1, [r0, #696]	; 0x2b8
 8003a00:	b14b      	cbz	r3, 8003a16 <USBD_RegisterClass+0x28>
 8003a02:	f10d 0006 	add.w	r0, sp, #6
 8003a06:	4798      	blx	r3
 8003a08:	f8c4 02cc 	str.w	r0, [r4, #716]	; 0x2cc
 8003a0c:	4628      	mov	r0, r5
 8003a0e:	b003      	add	sp, #12
 8003a10:	bd30      	pop	{r4, r5, pc}
 8003a12:	2003      	movs	r0, #3
 8003a14:	e7fb      	b.n	8003a0e <USBD_RegisterClass+0x20>
 8003a16:	4618      	mov	r0, r3
 8003a18:	e7f9      	b.n	8003a0e <USBD_RegisterClass+0x20>

08003a1a <USBD_Start>:
 8003a1a:	f003 bcc7 	b.w	80073ac <USBD_LL_Start>

08003a1e <USBD_SetClassConfig>:
 8003a1e:	f8d0 32b8 	ldr.w	r3, [r0, #696]	; 0x2b8
 8003a22:	b10b      	cbz	r3, 8003a28 <USBD_SetClassConfig+0xa>
 8003a24:	681b      	ldr	r3, [r3, #0]
 8003a26:	4718      	bx	r3
 8003a28:	2003      	movs	r0, #3
 8003a2a:	4770      	bx	lr

08003a2c <USBD_ClrClassConfig>:
 8003a2c:	b508      	push	{r3, lr}
 8003a2e:	f8d0 32b8 	ldr.w	r3, [r0, #696]	; 0x2b8
 8003a32:	b10b      	cbz	r3, 8003a38 <USBD_ClrClassConfig+0xc>
 8003a34:	685b      	ldr	r3, [r3, #4]
 8003a36:	4798      	blx	r3
 8003a38:	2000      	movs	r0, #0
 8003a3a:	bd08      	pop	{r3, pc}

08003a3c <USBD_LL_SetupStage>:
 8003a3c:	b538      	push	{r3, r4, r5, lr}
 8003a3e:	4604      	mov	r4, r0
 8003a40:	f200 25aa 	addw	r5, r0, #682	; 0x2aa
 8003a44:	4628      	mov	r0, r5
 8003a46:	f000 fb33 	bl	80040b0 <USBD_ParseSetupRequest>
 8003a4a:	2301      	movs	r3, #1
 8003a4c:	f894 12aa 	ldrb.w	r1, [r4, #682]	; 0x2aa
 8003a50:	f8c4 3294 	str.w	r3, [r4, #660]	; 0x294
 8003a54:	f8b4 32b0 	ldrh.w	r3, [r4, #688]	; 0x2b0
 8003a58:	f8c4 3298 	str.w	r3, [r4, #664]	; 0x298
 8003a5c:	f001 031f 	and.w	r3, r1, #31
 8003a60:	2b01      	cmp	r3, #1
 8003a62:	d008      	beq.n	8003a76 <USBD_LL_SetupStage+0x3a>
 8003a64:	2b02      	cmp	r3, #2
 8003a66:	d00c      	beq.n	8003a82 <USBD_LL_SetupStage+0x46>
 8003a68:	b98b      	cbnz	r3, 8003a8e <USBD_LL_SetupStage+0x52>
 8003a6a:	4629      	mov	r1, r5
 8003a6c:	4620      	mov	r0, r4
 8003a6e:	e8bd 4038 	ldmia.w	sp!, {r3, r4, r5, lr}
 8003a72:	f000 b925 	b.w	8003cc0 <USBD_StdDevReq>
 8003a76:	4629      	mov	r1, r5
 8003a78:	4620      	mov	r0, r4
 8003a7a:	e8bd 4038 	ldmia.w	sp!, {r3, r4, r5, lr}
 8003a7e:	f000 ba61 	b.w	8003f44 <USBD_StdItfReq>
 8003a82:	4629      	mov	r1, r5
 8003a84:	4620      	mov	r0, r4
 8003a86:	e8bd 4038 	ldmia.w	sp!, {r3, r4, r5, lr}
 8003a8a:	f000 ba81 	b.w	8003f90 <USBD_StdEPReq>
 8003a8e:	4620      	mov	r0, r4
 8003a90:	f001 0180 	and.w	r1, r1, #128	; 0x80
 8003a94:	e8bd 4038 	ldmia.w	sp!, {r3, r4, r5, lr}
 8003a98:	f003 bcb4 	b.w	8007404 <USBD_LL_StallEP>

08003a9c <USBD_LL_DataOutStage>:
 8003a9c:	b570      	push	{r4, r5, r6, lr}
 8003a9e:	4604      	mov	r4, r0
 8003aa0:	4615      	mov	r5, r2
 8003aa2:	b9f9      	cbnz	r1, 8003ae4 <USBD_LL_DataOutStage+0x48>
 8003aa4:	f8d0 3294 	ldr.w	r3, [r0, #660]	; 0x294
 8003aa8:	2b03      	cmp	r3, #3
 8003aaa:	d10c      	bne.n	8003ac6 <USBD_LL_DataOutStage+0x2a>
 8003aac:	e9d0 3257 	ldrd	r3, r2, [r0, #348]	; 0x15c
 8003ab0:	4293      	cmp	r3, r2
 8003ab2:	d90a      	bls.n	8003aca <USBD_LL_DataOutStage+0x2e>
 8003ab4:	1a9b      	subs	r3, r3, r2
 8003ab6:	429a      	cmp	r2, r3
 8003ab8:	f8c0 315c 	str.w	r3, [r0, #348]	; 0x15c
 8003abc:	bf28      	it	cs
 8003abe:	461a      	movcs	r2, r3
 8003ac0:	4629      	mov	r1, r5
 8003ac2:	f000 fb49 	bl	8004158 <USBD_CtlContinueRx>
 8003ac6:	2000      	movs	r0, #0
 8003ac8:	bd70      	pop	{r4, r5, r6, pc}
 8003aca:	f890 329c 	ldrb.w	r3, [r0, #668]	; 0x29c
 8003ace:	2b03      	cmp	r3, #3
 8003ad0:	d104      	bne.n	8003adc <USBD_LL_DataOutStage+0x40>
 8003ad2:	f8d0 32b8 	ldr.w	r3, [r0, #696]	; 0x2b8
 8003ad6:	691b      	ldr	r3, [r3, #16]
 8003ad8:	b103      	cbz	r3, 8003adc <USBD_LL_DataOutStage+0x40>
 8003ada:	4798      	blx	r3
 8003adc:	4620      	mov	r0, r4
 8003ade:	f000 fb43 	bl	8004168 <USBD_CtlSendStatus>
 8003ae2:	e7f0      	b.n	8003ac6 <USBD_LL_DataOutStage+0x2a>
 8003ae4:	f890 329c 	ldrb.w	r3, [r0, #668]	; 0x29c
 8003ae8:	2b03      	cmp	r3, #3
 8003aea:	d1ec      	bne.n	8003ac6 <USBD_LL_DataOutStage+0x2a>
 8003aec:	f8d0 32b8 	ldr.w	r3, [r0, #696]	; 0x2b8
 8003af0:	699b      	ldr	r3, [r3, #24]
 8003af2:	2b00      	cmp	r3, #0
 8003af4:	d0e7      	beq.n	8003ac6 <USBD_LL_DataOutStage+0x2a>
 8003af6:	e8bd 4070 	ldmia.w	sp!, {r4, r5, r6, lr}
 8003afa:	4718      	bx	r3

08003afc <USBD_LL_DataInStage>:
 8003afc:	b573      	push	{r0, r1, r4, r5, r6, lr}
 8003afe:	4604      	mov	r4, r0
 8003b00:	4616      	mov	r6, r2
 8003b02:	2900      	cmp	r1, #0
 8003b04:	d13f      	bne.n	8003b86 <USBD_LL_DataInStage+0x8a>
 8003b06:	f8d0 2294 	ldr.w	r2, [r0, #660]	; 0x294
 8003b0a:	2a02      	cmp	r2, #2
 8003b0c:	d10f      	bne.n	8003b2e <USBD_LL_DataInStage+0x32>
 8003b0e:	e9d0 5207 	ldrd	r5, r2, [r0, #28]
 8003b12:	4295      	cmp	r5, r2
 8003b14:	d915      	bls.n	8003b42 <USBD_LL_DataInStage+0x46>
 8003b16:	1aaa      	subs	r2, r5, r2
 8003b18:	9101      	str	r1, [sp, #4]
 8003b1a:	61c2      	str	r2, [r0, #28]
 8003b1c:	4631      	mov	r1, r6
 8003b1e:	f000 fb06 	bl	800412e <USBD_CtlContinueSendData>
 8003b22:	9b01      	ldr	r3, [sp, #4]
 8003b24:	461a      	mov	r2, r3
 8003b26:	4619      	mov	r1, r3
 8003b28:	4620      	mov	r0, r4
 8003b2a:	f003 fcb7 	bl	800749c <USBD_LL_PrepareReceive>
 8003b2e:	f894 32a0 	ldrb.w	r3, [r4, #672]	; 0x2a0
 8003b32:	2b01      	cmp	r3, #1
 8003b34:	d102      	bne.n	8003b3c <USBD_LL_DataInStage+0x40>
 8003b36:	2300      	movs	r3, #0
 8003b38:	f884 32a0 	strb.w	r3, [r4, #672]	; 0x2a0
 8003b3c:	2000      	movs	r0, #0
 8003b3e:	b002      	add	sp, #8
 8003b40:	bd70      	pop	{r4, r5, r6, pc}
 8003b42:	d10e      	bne.n	8003b62 <USBD_LL_DataInStage+0x66>
 8003b44:	6982      	ldr	r2, [r0, #24]
 8003b46:	4295      	cmp	r5, r2
 8003b48:	d80b      	bhi.n	8003b62 <USBD_LL_DataInStage+0x66>
 8003b4a:	f8d0 5298 	ldr.w	r5, [r0, #664]	; 0x298
 8003b4e:	42aa      	cmp	r2, r5
 8003b50:	d207      	bcs.n	8003b62 <USBD_LL_DataInStage+0x66>
 8003b52:	460a      	mov	r2, r1
 8003b54:	9101      	str	r1, [sp, #4]
 8003b56:	f000 faea 	bl	800412e <USBD_CtlContinueSendData>
 8003b5a:	9b01      	ldr	r3, [sp, #4]
 8003b5c:	f8c4 3298 	str.w	r3, [r4, #664]	; 0x298
 8003b60:	e7e0      	b.n	8003b24 <USBD_LL_DataInStage+0x28>
 8003b62:	f894 329c 	ldrb.w	r3, [r4, #668]	; 0x29c
 8003b66:	2b03      	cmp	r3, #3
 8003b68:	d105      	bne.n	8003b76 <USBD_LL_DataInStage+0x7a>
 8003b6a:	f8d4 32b8 	ldr.w	r3, [r4, #696]	; 0x2b8
 8003b6e:	68db      	ldr	r3, [r3, #12]
 8003b70:	b10b      	cbz	r3, 8003b76 <USBD_LL_DataInStage+0x7a>
 8003b72:	4620      	mov	r0, r4
 8003b74:	4798      	blx	r3
 8003b76:	2180      	movs	r1, #128	; 0x80
 8003b78:	4620      	mov	r0, r4
 8003b7a:	f003 fc43 	bl	8007404 <USBD_LL_StallEP>
 8003b7e:	4620      	mov	r0, r4
 8003b80:	f000 fafd 	bl	800417e <USBD_CtlReceiveStatus>
 8003b84:	e7d3      	b.n	8003b2e <USBD_LL_DataInStage+0x32>
 8003b86:	f890 329c 	ldrb.w	r3, [r0, #668]	; 0x29c
 8003b8a:	2b03      	cmp	r3, #3
 8003b8c:	d1d6      	bne.n	8003b3c <USBD_LL_DataInStage+0x40>
 8003b8e:	f8d0 32b8 	ldr.w	r3, [r0, #696]	; 0x2b8
 8003b92:	695b      	ldr	r3, [r3, #20]
 8003b94:	2b00      	cmp	r3, #0
 8003b96:	d0d1      	beq.n	8003b3c <USBD_LL_DataInStage+0x40>
 8003b98:	b002      	add	sp, #8
 8003b9a:	e8bd 4070 	ldmia.w	sp!, {r4, r5, r6, lr}
 8003b9e:	4718      	bx	r3

08003ba0 <USBD_LL_Reset>:
 8003ba0:	2301      	movs	r3, #1
 8003ba2:	b570      	push	{r4, r5, r6, lr}
 8003ba4:	f880 329c 	strb.w	r3, [r0, #668]	; 0x29c
 8003ba8:	f8d0 32b8 	ldr.w	r3, [r0, #696]	; 0x2b8
 8003bac:	2100      	movs	r1, #0
 8003bae:	4604      	mov	r4, r0
 8003bb0:	f8c0 1294 	str.w	r1, [r0, #660]	; 0x294
 8003bb4:	6041      	str	r1, [r0, #4]
 8003bb6:	f8c0 12a4 	str.w	r1, [r0, #676]	; 0x2a4
 8003bba:	b1db      	cbz	r3, 8003bf4 <USBD_LL_Reset+0x54>
 8003bbc:	f8d0 22bc 	ldr.w	r2, [r0, #700]	; 0x2bc
 8003bc0:	b112      	cbz	r2, 8003bc8 <USBD_LL_Reset+0x28>
 8003bc2:	685b      	ldr	r3, [r3, #4]
 8003bc4:	b103      	cbz	r3, 8003bc8 <USBD_LL_Reset+0x28>
 8003bc6:	4798      	blx	r3
 8003bc8:	2200      	movs	r2, #0
 8003bca:	4611      	mov	r1, r2
 8003bcc:	2540      	movs	r5, #64	; 0x40
 8003bce:	2340      	movs	r3, #64	; 0x40
 8003bd0:	2601      	movs	r6, #1
 8003bd2:	4620      	mov	r0, r4
 8003bd4:	f003 fbf8 	bl	80073c8 <USBD_LL_OpenEP>
 8003bd8:	f8a4 6164 	strh.w	r6, [r4, #356]	; 0x164
 8003bdc:	f8c4 5160 	str.w	r5, [r4, #352]	; 0x160
 8003be0:	462b      	mov	r3, r5
 8003be2:	2200      	movs	r2, #0
 8003be4:	2180      	movs	r1, #128	; 0x80
 8003be6:	4620      	mov	r0, r4
 8003be8:	f003 fbee 	bl	80073c8 <USBD_LL_OpenEP>
 8003bec:	84a6      	strh	r6, [r4, #36]	; 0x24
 8003bee:	6225      	str	r5, [r4, #32]
 8003bf0:	2000      	movs	r0, #0
 8003bf2:	bd70      	pop	{r4, r5, r6, pc}
 8003bf4:	2003      	movs	r0, #3
 8003bf6:	e7fc      	b.n	8003bf2 <USBD_LL_Reset+0x52>

08003bf8 <USBD_LL_SetSpeed>:
 8003bf8:	7401      	strb	r1, [r0, #16]
 8003bfa:	2000      	movs	r0, #0
 8003bfc:	4770      	bx	lr

08003bfe <USBD_LL_Suspend>:
 8003bfe:	f890 329c 	ldrb.w	r3, [r0, #668]	; 0x29c
 8003c02:	b2db      	uxtb	r3, r3
 8003c04:	f880 329d 	strb.w	r3, [r0, #669]	; 0x29d
 8003c08:	2304      	movs	r3, #4
 8003c0a:	f880 329c 	strb.w	r3, [r0, #668]	; 0x29c
 8003c0e:	2000      	movs	r0, #0
 8003c10:	4770      	bx	lr

08003c12 <USBD_LL_Resume>:
 8003c12:	f890 329c 	ldrb.w	r3, [r0, #668]	; 0x29c
 8003c16:	2b04      	cmp	r3, #4
 8003c18:	bf02      	ittt	eq
 8003c1a:	f890 329d 	ldrbeq.w	r3, [r0, #669]	; 0x29d
 8003c1e:	b2db      	uxtbeq	r3, r3
 8003c20:	f880 329c 	strbeq.w	r3, [r0, #668]	; 0x29c
 8003c24:	2000      	movs	r0, #0
 8003c26:	4770      	bx	lr

08003c28 <USBD_LL_SOF>:
 8003c28:	f8d0 22b8 	ldr.w	r2, [r0, #696]	; 0x2b8
 8003c2c:	b508      	push	{r3, lr}
 8003c2e:	b142      	cbz	r2, 8003c42 <USBD_LL_SOF+0x1a>
 8003c30:	f890 329c 	ldrb.w	r3, [r0, #668]	; 0x29c
 8003c34:	2b03      	cmp	r3, #3
 8003c36:	d102      	bne.n	8003c3e <USBD_LL_SOF+0x16>
 8003c38:	69d3      	ldr	r3, [r2, #28]
 8003c3a:	b123      	cbz	r3, 8003c46 <USBD_LL_SOF+0x1e>
 8003c3c:	4798      	blx	r3
 8003c3e:	2000      	movs	r0, #0
 8003c40:	e000      	b.n	8003c44 <USBD_LL_SOF+0x1c>
 8003c42:	2003      	movs	r0, #3
 8003c44:	bd08      	pop	{r3, pc}
 8003c46:	4618      	mov	r0, r3
 8003c48:	e7fc      	b.n	8003c44 <USBD_LL_SOF+0x1c>

08003c4a <USBD_LL_IsoINIncomplete>:
 8003c4a:	f8d0 22b8 	ldr.w	r2, [r0, #696]	; 0x2b8
 8003c4e:	b508      	push	{r3, lr}
 8003c50:	b142      	cbz	r2, 8003c64 <USBD_LL_IsoINIncomplete+0x1a>
 8003c52:	f890 329c 	ldrb.w	r3, [r0, #668]	; 0x29c
 8003c56:	2b03      	cmp	r3, #3
 8003c58:	d102      	bne.n	8003c60 <USBD_LL_IsoINIncomplete+0x16>
 8003c5a:	6a13      	ldr	r3, [r2, #32]
 8003c5c:	b123      	cbz	r3, 8003c68 <USBD_LL_IsoINIncomplete+0x1e>
 8003c5e:	4798      	blx	r3
 8003c60:	2000      	movs	r0, #0
 8003c62:	e000      	b.n	8003c66 <USBD_LL_IsoINIncomplete+0x1c>
 8003c64:	2003      	movs	r0, #3
 8003c66:	bd08      	pop	{r3, pc}
 8003c68:	4618      	mov	r0, r3
 8003c6a:	e7fc      	b.n	8003c66 <USBD_LL_IsoINIncomplete+0x1c>

08003c6c <USBD_LL_IsoOUTIncomplete>:
 8003c6c:	f8d0 22b8 	ldr.w	r2, [r0, #696]	; 0x2b8
 8003c70:	b508      	push	{r3, lr}
 8003c72:	b142      	cbz	r2, 8003c86 <USBD_LL_IsoOUTIncomplete+0x1a>
 8003c74:	f890 329c 	ldrb.w	r3, [r0, #668]	; 0x29c
 8003c78:	2b03      	cmp	r3, #3
 8003c7a:	d102      	bne.n	8003c82 <USBD_LL_IsoOUTIncomplete+0x16>
 8003c7c:	6a53      	ldr	r3, [r2, #36]	; 0x24
 8003c7e:	b123      	cbz	r3, 8003c8a <USBD_LL_IsoOUTIncomplete+0x1e>
 8003c80:	4798      	blx	r3
 8003c82:	2000      	movs	r0, #0
 8003c84:	e000      	b.n	8003c88 <USBD_LL_IsoOUTIncomplete+0x1c>
 8003c86:	2003      	movs	r0, #3
 8003c88:	bd08      	pop	{r3, pc}
 8003c8a:	4618      	mov	r0, r3
 8003c8c:	e7fc      	b.n	8003c88 <USBD_LL_IsoOUTIncomplete+0x1c>

08003c8e <USBD_LL_DevConnected>:
 8003c8e:	2000      	movs	r0, #0
 8003c90:	4770      	bx	lr

08003c92 <USBD_LL_DevDisconnected>:
 8003c92:	2201      	movs	r2, #1
 8003c94:	b508      	push	{r3, lr}
 8003c96:	f880 229c 	strb.w	r2, [r0, #668]	; 0x29c
 8003c9a:	f8d0 22b8 	ldr.w	r2, [r0, #696]	; 0x2b8
 8003c9e:	b112      	cbz	r2, 8003ca6 <USBD_LL_DevDisconnected+0x14>
 8003ca0:	6852      	ldr	r2, [r2, #4]
 8003ca2:	7901      	ldrb	r1, [r0, #4]
 8003ca4:	4790      	blx	r2
 8003ca6:	2000      	movs	r0, #0
 8003ca8:	bd08      	pop	{r3, pc}

08003caa <USBD_CtlError.constprop.0>:
 8003caa:	b510      	push	{r4, lr}
 8003cac:	2180      	movs	r1, #128	; 0x80
 8003cae:	4604      	mov	r4, r0
 8003cb0:	f003 fba8 	bl	8007404 <USBD_LL_StallEP>
 8003cb4:	4620      	mov	r0, r4
 8003cb6:	2100      	movs	r1, #0
 8003cb8:	e8bd 4010 	ldmia.w	sp!, {r4, lr}
 8003cbc:	f003 bba2 	b.w	8007404 <USBD_LL_StallEP>

08003cc0 <USBD_StdDevReq>:
 8003cc0:	b5f7      	push	{r0, r1, r2, r4, r5, r6, r7, lr}
 8003cc2:	780d      	ldrb	r5, [r1, #0]
 8003cc4:	f005 0560 	and.w	r5, r5, #96	; 0x60
 8003cc8:	2d20      	cmp	r5, #32
 8003cca:	4604      	mov	r4, r0
 8003ccc:	460e      	mov	r6, r1
 8003cce:	d014      	beq.n	8003cfa <USBD_StdDevReq+0x3a>
 8003cd0:	2d40      	cmp	r5, #64	; 0x40
 8003cd2:	d012      	beq.n	8003cfa <USBD_StdDevReq+0x3a>
 8003cd4:	2d00      	cmp	r5, #0
 8003cd6:	f040 8100 	bne.w	8003eda <USBD_StdDevReq+0x21a>
 8003cda:	784f      	ldrb	r7, [r1, #1]
 8003cdc:	2f09      	cmp	r7, #9
 8003cde:	f200 80fc 	bhi.w	8003eda <USBD_StdDevReq+0x21a>
 8003ce2:	e8df f017 	tbh	[pc, r7, lsl #1]
 8003ce6:	0101      	.short	0x0101
 8003ce8:	00fa0121 	.word	0x00fa0121
 8003cec:	00fa0117 	.word	0x00fa0117
 8003cf0:	00130082 	.word	0x00130082
 8003cf4:	00e900fa 	.word	0x00e900fa
 8003cf8:	009e      	.short	0x009e
 8003cfa:	f8d4 32b8 	ldr.w	r3, [r4, #696]	; 0x2b8
 8003cfe:	689b      	ldr	r3, [r3, #8]
 8003d00:	4631      	mov	r1, r6
 8003d02:	4620      	mov	r0, r4
 8003d04:	b003      	add	sp, #12
 8003d06:	e8bd 40f0 	ldmia.w	sp!, {r4, r5, r6, r7, lr}
 8003d0a:	4718      	bx	r3
 8003d0c:	2300      	movs	r3, #0
 8003d0e:	f8ad 3006 	strh.w	r3, [sp, #6]
 8003d12:	884b      	ldrh	r3, [r1, #2]
 8003d14:	0a1a      	lsrs	r2, r3, #8
 8003d16:	3a01      	subs	r2, #1
 8003d18:	2a06      	cmp	r2, #6
 8003d1a:	d837      	bhi.n	8003d8c <USBD_StdDevReq+0xcc>
 8003d1c:	e8df f002 	tbb	[pc, r2]
 8003d20:	36291c04 	.word	0x36291c04
 8003d24:	5036      	.short	0x5036
 8003d26:	5a          	.byte	0x5a
 8003d27:	00          	.byte	0x00
 8003d28:	f8d0 32b4 	ldr.w	r3, [r0, #692]	; 0x2b4
 8003d2c:	681b      	ldr	r3, [r3, #0]
 8003d2e:	7c20      	ldrb	r0, [r4, #16]
 8003d30:	f10d 0106 	add.w	r1, sp, #6
 8003d34:	4798      	blx	r3
 8003d36:	88f2      	ldrh	r2, [r6, #6]
 8003d38:	2a00      	cmp	r2, #0
 8003d3a:	f000 80f1 	beq.w	8003f20 <USBD_StdDevReq+0x260>
 8003d3e:	f8bd 3006 	ldrh.w	r3, [sp, #6]
 8003d42:	b31b      	cbz	r3, 8003d8c <USBD_StdDevReq+0xcc>
 8003d44:	429a      	cmp	r2, r3
 8003d46:	bf28      	it	cs
 8003d48:	461a      	movcs	r2, r3
 8003d4a:	f8ad 2006 	strh.w	r2, [sp, #6]
 8003d4e:	4601      	mov	r1, r0
 8003d50:	4620      	mov	r0, r4
 8003d52:	f000 f9df 	bl	8004114 <USBD_CtlSendData>
 8003d56:	e01c      	b.n	8003d92 <USBD_StdDevReq+0xd2>
 8003d58:	7c02      	ldrb	r2, [r0, #16]
 8003d5a:	f8d0 32b8 	ldr.w	r3, [r0, #696]	; 0x2b8
 8003d5e:	b932      	cbnz	r2, 8003d6e <USBD_StdDevReq+0xae>
 8003d60:	6a9b      	ldr	r3, [r3, #40]	; 0x28
 8003d62:	f10d 0006 	add.w	r0, sp, #6
 8003d66:	4798      	blx	r3
 8003d68:	2302      	movs	r3, #2
 8003d6a:	7043      	strb	r3, [r0, #1]
 8003d6c:	e7e3      	b.n	8003d36 <USBD_StdDevReq+0x76>
 8003d6e:	6adb      	ldr	r3, [r3, #44]	; 0x2c
 8003d70:	e7f7      	b.n	8003d62 <USBD_StdDevReq+0xa2>
 8003d72:	b2db      	uxtb	r3, r3
 8003d74:	2b05      	cmp	r3, #5
 8003d76:	d809      	bhi.n	8003d8c <USBD_StdDevReq+0xcc>
 8003d78:	e8df f003 	tbb	[pc, r3]
 8003d7c:	16120e03 	.word	0x16120e03
 8003d80:	1e1a      	.short	0x1e1a
 8003d82:	f8d0 32b4 	ldr.w	r3, [r0, #692]	; 0x2b4
 8003d86:	685b      	ldr	r3, [r3, #4]
 8003d88:	2b00      	cmp	r3, #0
 8003d8a:	d1d0      	bne.n	8003d2e <USBD_StdDevReq+0x6e>
 8003d8c:	4620      	mov	r0, r4
 8003d8e:	f7ff ff8c 	bl	8003caa <USBD_CtlError.constprop.0>
 8003d92:	4628      	mov	r0, r5
 8003d94:	b003      	add	sp, #12
 8003d96:	bdf0      	pop	{r4, r5, r6, r7, pc}
 8003d98:	f8d0 32b4 	ldr.w	r3, [r0, #692]	; 0x2b4
 8003d9c:	689b      	ldr	r3, [r3, #8]
 8003d9e:	e7f3      	b.n	8003d88 <USBD_StdDevReq+0xc8>
 8003da0:	f8d0 32b4 	ldr.w	r3, [r0, #692]	; 0x2b4
 8003da4:	68db      	ldr	r3, [r3, #12]
 8003da6:	e7ef      	b.n	8003d88 <USBD_StdDevReq+0xc8>
 8003da8:	f8d0 32b4 	ldr.w	r3, [r0, #692]	; 0x2b4
 8003dac:	691b      	ldr	r3, [r3, #16]
 8003dae:	e7eb      	b.n	8003d88 <USBD_StdDevReq+0xc8>
 8003db0:	f8d0 32b4 	ldr.w	r3, [r0, #692]	; 0x2b4
 8003db4:	695b      	ldr	r3, [r3, #20]
 8003db6:	e7e7      	b.n	8003d88 <USBD_StdDevReq+0xc8>
 8003db8:	f8d0 32b4 	ldr.w	r3, [r0, #692]	; 0x2b4
 8003dbc:	699b      	ldr	r3, [r3, #24]
 8003dbe:	e7e3      	b.n	8003d88 <USBD_StdDevReq+0xc8>
 8003dc0:	7c03      	ldrb	r3, [r0, #16]
 8003dc2:	2b00      	cmp	r3, #0
 8003dc4:	d1e2      	bne.n	8003d8c <USBD_StdDevReq+0xcc>
 8003dc6:	f8d0 32b8 	ldr.w	r3, [r0, #696]	; 0x2b8
 8003dca:	f10d 0006 	add.w	r0, sp, #6
 8003dce:	6b5b      	ldr	r3, [r3, #52]	; 0x34
 8003dd0:	4798      	blx	r3
 8003dd2:	e7b0      	b.n	8003d36 <USBD_StdDevReq+0x76>
 8003dd4:	7c03      	ldrb	r3, [r0, #16]
 8003dd6:	2b00      	cmp	r3, #0
 8003dd8:	d1d8      	bne.n	8003d8c <USBD_StdDevReq+0xcc>
 8003dda:	f8d0 32b8 	ldr.w	r3, [r0, #696]	; 0x2b8
 8003dde:	f10d 0006 	add.w	r0, sp, #6
 8003de2:	6b1b      	ldr	r3, [r3, #48]	; 0x30
 8003de4:	4798      	blx	r3
 8003de6:	2307      	movs	r3, #7
 8003de8:	e7bf      	b.n	8003d6a <USBD_StdDevReq+0xaa>
 8003dea:	888b      	ldrh	r3, [r1, #4]
 8003dec:	2b00      	cmp	r3, #0
 8003dee:	d1cd      	bne.n	8003d8c <USBD_StdDevReq+0xcc>
 8003df0:	88cb      	ldrh	r3, [r1, #6]
 8003df2:	2b00      	cmp	r3, #0
 8003df4:	d1ca      	bne.n	8003d8c <USBD_StdDevReq+0xcc>
 8003df6:	884e      	ldrh	r6, [r1, #2]
 8003df8:	2e7f      	cmp	r6, #127	; 0x7f
 8003dfa:	d8c7      	bhi.n	8003d8c <USBD_StdDevReq+0xcc>
 8003dfc:	f890 329c 	ldrb.w	r3, [r0, #668]	; 0x29c
 8003e00:	2b03      	cmp	r3, #3
 8003e02:	d0c3      	beq.n	8003d8c <USBD_StdDevReq+0xcc>
 8003e04:	b2f1      	uxtb	r1, r6
 8003e06:	f880 129e 	strb.w	r1, [r0, #670]	; 0x29e
 8003e0a:	f003 fb2b 	bl	8007464 <USBD_LL_SetUSBAddress>
 8003e0e:	4620      	mov	r0, r4
 8003e10:	f000 f9aa 	bl	8004168 <USBD_CtlSendStatus>
 8003e14:	b11e      	cbz	r6, 8003e1e <USBD_StdDevReq+0x15e>
 8003e16:	2302      	movs	r3, #2
 8003e18:	f884 329c 	strb.w	r3, [r4, #668]	; 0x29c
 8003e1c:	e7b9      	b.n	8003d92 <USBD_StdDevReq+0xd2>
 8003e1e:	2301      	movs	r3, #1
 8003e20:	e7fa      	b.n	8003e18 <USBD_StdDevReq+0x158>
 8003e22:	788e      	ldrb	r6, [r1, #2]
 8003e24:	4f46      	ldr	r7, [pc, #280]	; (8003f40 <USBD_StdDevReq+0x280>)
 8003e26:	2e01      	cmp	r6, #1
 8003e28:	703e      	strb	r6, [r7, #0]
 8003e2a:	d903      	bls.n	8003e34 <USBD_StdDevReq+0x174>
 8003e2c:	f7ff ff3d 	bl	8003caa <USBD_CtlError.constprop.0>
 8003e30:	2503      	movs	r5, #3
 8003e32:	e7ae      	b.n	8003d92 <USBD_StdDevReq+0xd2>
 8003e34:	f890 329c 	ldrb.w	r3, [r0, #668]	; 0x29c
 8003e38:	2b02      	cmp	r3, #2
 8003e3a:	b2da      	uxtb	r2, r3
 8003e3c:	d008      	beq.n	8003e50 <USBD_StdDevReq+0x190>
 8003e3e:	2a03      	cmp	r2, #3
 8003e40:	d014      	beq.n	8003e6c <USBD_StdDevReq+0x1ac>
 8003e42:	f7ff ff32 	bl	8003caa <USBD_CtlError.constprop.0>
 8003e46:	7839      	ldrb	r1, [r7, #0]
 8003e48:	4620      	mov	r0, r4
 8003e4a:	f7ff fdef 	bl	8003a2c <USBD_ClrClassConfig>
 8003e4e:	e7ef      	b.n	8003e30 <USBD_StdDevReq+0x170>
 8003e50:	2e00      	cmp	r6, #0
 8003e52:	d065      	beq.n	8003f20 <USBD_StdDevReq+0x260>
 8003e54:	2101      	movs	r1, #1
 8003e56:	6041      	str	r1, [r0, #4]
 8003e58:	f7ff fde1 	bl	8003a1e <USBD_SetClassConfig>
 8003e5c:	4605      	mov	r5, r0
 8003e5e:	4620      	mov	r0, r4
 8003e60:	2d00      	cmp	r5, #0
 8003e62:	d194      	bne.n	8003d8e <USBD_StdDevReq+0xce>
 8003e64:	f000 f980 	bl	8004168 <USBD_CtlSendStatus>
 8003e68:	2303      	movs	r3, #3
 8003e6a:	e7d5      	b.n	8003e18 <USBD_StdDevReq+0x158>
 8003e6c:	b95e      	cbnz	r6, 8003e86 <USBD_StdDevReq+0x1c6>
 8003e6e:	2302      	movs	r3, #2
 8003e70:	f880 329c 	strb.w	r3, [r0, #668]	; 0x29c
 8003e74:	6046      	str	r6, [r0, #4]
 8003e76:	4631      	mov	r1, r6
 8003e78:	f7ff fdd8 	bl	8003a2c <USBD_ClrClassConfig>
 8003e7c:	4620      	mov	r0, r4
 8003e7e:	f000 f973 	bl	8004168 <USBD_CtlSendStatus>
 8003e82:	4635      	mov	r5, r6
 8003e84:	e785      	b.n	8003d92 <USBD_StdDevReq+0xd2>
 8003e86:	6841      	ldr	r1, [r0, #4]
 8003e88:	2901      	cmp	r1, #1
 8003e8a:	d049      	beq.n	8003f20 <USBD_StdDevReq+0x260>
 8003e8c:	b2c9      	uxtb	r1, r1
 8003e8e:	f7ff fdcd 	bl	8003a2c <USBD_ClrClassConfig>
 8003e92:	7839      	ldrb	r1, [r7, #0]
 8003e94:	6061      	str	r1, [r4, #4]
 8003e96:	4620      	mov	r0, r4
 8003e98:	f7ff fdc1 	bl	8003a1e <USBD_SetClassConfig>
 8003e9c:	4606      	mov	r6, r0
 8003e9e:	2800      	cmp	r0, #0
 8003ea0:	d03e      	beq.n	8003f20 <USBD_StdDevReq+0x260>
 8003ea2:	4620      	mov	r0, r4
 8003ea4:	f7ff ff01 	bl	8003caa <USBD_CtlError.constprop.0>
 8003ea8:	7921      	ldrb	r1, [r4, #4]
 8003eaa:	4620      	mov	r0, r4
 8003eac:	f7ff fdbe 	bl	8003a2c <USBD_ClrClassConfig>
 8003eb0:	2302      	movs	r3, #2
 8003eb2:	f884 329c 	strb.w	r3, [r4, #668]	; 0x29c
 8003eb6:	e7e4      	b.n	8003e82 <USBD_StdDevReq+0x1c2>
 8003eb8:	88ca      	ldrh	r2, [r1, #6]
 8003eba:	2a01      	cmp	r2, #1
 8003ebc:	f47f af66 	bne.w	8003d8c <USBD_StdDevReq+0xcc>
 8003ec0:	f890 129c 	ldrb.w	r1, [r0, #668]	; 0x29c
 8003ec4:	2902      	cmp	r1, #2
 8003ec6:	b2cb      	uxtb	r3, r1
 8003ec8:	d805      	bhi.n	8003ed6 <USBD_StdDevReq+0x216>
 8003eca:	b133      	cbz	r3, 8003eda <USBD_StdDevReq+0x21a>
 8003ecc:	4601      	mov	r1, r0
 8003ece:	2300      	movs	r3, #0
 8003ed0:	f841 3f08 	str.w	r3, [r1, #8]!
 8003ed4:	e73c      	b.n	8003d50 <USBD_StdDevReq+0x90>
 8003ed6:	2b03      	cmp	r3, #3
 8003ed8:	d004      	beq.n	8003ee4 <USBD_StdDevReq+0x224>
 8003eda:	4620      	mov	r0, r4
 8003edc:	f7ff fee5 	bl	8003caa <USBD_CtlError.constprop.0>
 8003ee0:	2500      	movs	r5, #0
 8003ee2:	e756      	b.n	8003d92 <USBD_StdDevReq+0xd2>
 8003ee4:	1d01      	adds	r1, r0, #4
 8003ee6:	e733      	b.n	8003d50 <USBD_StdDevReq+0x90>
 8003ee8:	f890 329c 	ldrb.w	r3, [r0, #668]	; 0x29c
 8003eec:	3b01      	subs	r3, #1
 8003eee:	2b02      	cmp	r3, #2
 8003ef0:	d8f3      	bhi.n	8003eda <USBD_StdDevReq+0x21a>
 8003ef2:	88ca      	ldrh	r2, [r1, #6]
 8003ef4:	2a02      	cmp	r2, #2
 8003ef6:	f47f af49 	bne.w	8003d8c <USBD_StdDevReq+0xcc>
 8003efa:	f8d0 32a4 	ldr.w	r3, [r0, #676]	; 0x2a4
 8003efe:	4601      	mov	r1, r0
 8003f00:	2b00      	cmp	r3, #0
 8003f02:	bf14      	ite	ne
 8003f04:	4613      	movne	r3, r2
 8003f06:	2300      	moveq	r3, #0
 8003f08:	f841 3f0c 	str.w	r3, [r1, #12]!
 8003f0c:	f000 f902 	bl	8004114 <USBD_CtlSendData>
 8003f10:	463d      	mov	r5, r7
 8003f12:	e73e      	b.n	8003d92 <USBD_StdDevReq+0xd2>
 8003f14:	884b      	ldrh	r3, [r1, #2]
 8003f16:	2b01      	cmp	r3, #1
 8003f18:	f47f af3b 	bne.w	8003d92 <USBD_StdDevReq+0xd2>
 8003f1c:	f8c4 32a4 	str.w	r3, [r4, #676]	; 0x2a4
 8003f20:	4620      	mov	r0, r4
 8003f22:	f000 f921 	bl	8004168 <USBD_CtlSendStatus>
 8003f26:	e734      	b.n	8003d92 <USBD_StdDevReq+0xd2>
 8003f28:	f890 329c 	ldrb.w	r3, [r0, #668]	; 0x29c
 8003f2c:	3b01      	subs	r3, #1
 8003f2e:	2b02      	cmp	r3, #2
 8003f30:	d8d3      	bhi.n	8003eda <USBD_StdDevReq+0x21a>
 8003f32:	884b      	ldrh	r3, [r1, #2]
 8003f34:	2b01      	cmp	r3, #1
 8003f36:	f47f af2c 	bne.w	8003d92 <USBD_StdDevReq+0xd2>
 8003f3a:	2300      	movs	r3, #0
 8003f3c:	e7ee      	b.n	8003f1c <USBD_StdDevReq+0x25c>
 8003f3e:	bf00      	nop
 8003f40:	20000210 	.word	0x20000210

08003f44 <USBD_StdItfReq>:
 8003f44:	b570      	push	{r4, r5, r6, lr}
 8003f46:	780b      	ldrb	r3, [r1, #0]
 8003f48:	f003 0260 	and.w	r2, r3, #96	; 0x60
 8003f4c:	2a40      	cmp	r2, #64	; 0x40
 8003f4e:	4604      	mov	r4, r0
 8003f50:	460e      	mov	r6, r1
 8003f52:	d001      	beq.n	8003f58 <USBD_StdItfReq+0x14>
 8003f54:	065b      	lsls	r3, r3, #25
 8003f56:	d416      	bmi.n	8003f86 <USBD_StdItfReq+0x42>
 8003f58:	f894 329c 	ldrb.w	r3, [r4, #668]	; 0x29c
 8003f5c:	3b01      	subs	r3, #1
 8003f5e:	2b02      	cmp	r3, #2
 8003f60:	d811      	bhi.n	8003f86 <USBD_StdItfReq+0x42>
 8003f62:	7933      	ldrb	r3, [r6, #4]
 8003f64:	2b01      	cmp	r3, #1
 8003f66:	d80e      	bhi.n	8003f86 <USBD_StdItfReq+0x42>
 8003f68:	f8d4 32b8 	ldr.w	r3, [r4, #696]	; 0x2b8
 8003f6c:	4631      	mov	r1, r6
 8003f6e:	689b      	ldr	r3, [r3, #8]
 8003f70:	4620      	mov	r0, r4
 8003f72:	4798      	blx	r3
 8003f74:	88f3      	ldrh	r3, [r6, #6]
 8003f76:	4605      	mov	r5, r0
 8003f78:	b91b      	cbnz	r3, 8003f82 <USBD_StdItfReq+0x3e>
 8003f7a:	b910      	cbnz	r0, 8003f82 <USBD_StdItfReq+0x3e>
 8003f7c:	4620      	mov	r0, r4
 8003f7e:	f000 f8f3 	bl	8004168 <USBD_CtlSendStatus>
 8003f82:	4628      	mov	r0, r5
 8003f84:	bd70      	pop	{r4, r5, r6, pc}
 8003f86:	4620      	mov	r0, r4
 8003f88:	f7ff fe8f 	bl	8003caa <USBD_CtlError.constprop.0>
 8003f8c:	2500      	movs	r5, #0
 8003f8e:	e7f8      	b.n	8003f82 <USBD_StdItfReq+0x3e>

08003f90 <USBD_StdEPReq>:
 8003f90:	b570      	push	{r4, r5, r6, lr}
 8003f92:	780b      	ldrb	r3, [r1, #0]
 8003f94:	f003 0360 	and.w	r3, r3, #96	; 0x60
 8003f98:	2b20      	cmp	r3, #32
 8003f9a:	4604      	mov	r4, r0
 8003f9c:	460d      	mov	r5, r1
 8003f9e:	d053      	beq.n	8004048 <USBD_StdEPReq+0xb8>
 8003fa0:	2b40      	cmp	r3, #64	; 0x40
 8003fa2:	d051      	beq.n	8004048 <USBD_StdEPReq+0xb8>
 8003fa4:	bb73      	cbnz	r3, 8004004 <USBD_StdEPReq+0x74>
 8003fa6:	786b      	ldrb	r3, [r5, #1]
 8003fa8:	888a      	ldrh	r2, [r1, #4]
 8003faa:	7909      	ldrb	r1, [r1, #4]
 8003fac:	2b01      	cmp	r3, #1
 8003fae:	d03a      	beq.n	8004026 <USBD_StdEPReq+0x96>
 8003fb0:	2b03      	cmp	r3, #3
 8003fb2:	d020      	beq.n	8003ff6 <USBD_StdEPReq+0x66>
 8003fb4:	bb33      	cbnz	r3, 8004004 <USBD_StdEPReq+0x74>
 8003fb6:	f890 329c 	ldrb.w	r3, [r0, #668]	; 0x29c
 8003fba:	2b02      	cmp	r3, #2
 8003fbc:	b2d8      	uxtb	r0, r3
 8003fbe:	d054      	beq.n	800406a <USBD_StdEPReq+0xda>
 8003fc0:	2803      	cmp	r0, #3
 8003fc2:	d11f      	bne.n	8004004 <USBD_StdEPReq+0x74>
 8003fc4:	f001 030f 	and.w	r3, r1, #15
 8003fc8:	f012 0f80 	tst.w	r2, #128	; 0x80
 8003fcc:	f04f 0214 	mov.w	r2, #20
 8003fd0:	fb02 4303 	mla	r3, r2, r3, r4
 8003fd4:	d058      	beq.n	8004088 <USBD_StdEPReq+0xf8>
 8003fd6:	8c9b      	ldrh	r3, [r3, #36]	; 0x24
 8003fd8:	b1a3      	cbz	r3, 8004004 <USBD_StdEPReq+0x74>
 8003fda:	f001 057f 	and.w	r5, r1, #127	; 0x7f
 8003fde:	3501      	adds	r5, #1
 8003fe0:	eb05 0585 	add.w	r5, r5, r5, lsl #2
 8003fe4:	eb04 0585 	add.w	r5, r4, r5, lsl #2
 8003fe8:	f011 037f 	ands.w	r3, r1, #127	; 0x7f
 8003fec:	d158      	bne.n	80040a0 <USBD_StdEPReq+0x110>
 8003fee:	602b      	str	r3, [r5, #0]
 8003ff0:	2202      	movs	r2, #2
 8003ff2:	4629      	mov	r1, r5
 8003ff4:	e044      	b.n	8004080 <USBD_StdEPReq+0xf0>
 8003ff6:	f890 329c 	ldrb.w	r3, [r0, #668]	; 0x29c
 8003ffa:	2b02      	cmp	r3, #2
 8003ffc:	b2da      	uxtb	r2, r3
 8003ffe:	d02b      	beq.n	8004058 <USBD_StdEPReq+0xc8>
 8004000:	2a03      	cmp	r2, #3
 8004002:	d003      	beq.n	800400c <USBD_StdEPReq+0x7c>
 8004004:	4620      	mov	r0, r4
 8004006:	f7ff fe50 	bl	8003caa <USBD_CtlError.constprop.0>
 800400a:	e00a      	b.n	8004022 <USBD_StdEPReq+0x92>
 800400c:	886b      	ldrh	r3, [r5, #2]
 800400e:	b92b      	cbnz	r3, 800401c <USBD_StdEPReq+0x8c>
 8004010:	064a      	lsls	r2, r1, #25
 8004012:	d003      	beq.n	800401c <USBD_StdEPReq+0x8c>
 8004014:	88eb      	ldrh	r3, [r5, #6]
 8004016:	b90b      	cbnz	r3, 800401c <USBD_StdEPReq+0x8c>
 8004018:	f003 f9f4 	bl	8007404 <USBD_LL_StallEP>
 800401c:	4620      	mov	r0, r4
 800401e:	f000 f8a3 	bl	8004168 <USBD_CtlSendStatus>
 8004022:	2000      	movs	r0, #0
 8004024:	bd70      	pop	{r4, r5, r6, pc}
 8004026:	f890 329c 	ldrb.w	r3, [r0, #668]	; 0x29c
 800402a:	2b02      	cmp	r3, #2
 800402c:	b2da      	uxtb	r2, r3
 800402e:	d013      	beq.n	8004058 <USBD_StdEPReq+0xc8>
 8004030:	2a03      	cmp	r2, #3
 8004032:	d1e7      	bne.n	8004004 <USBD_StdEPReq+0x74>
 8004034:	886b      	ldrh	r3, [r5, #2]
 8004036:	2b00      	cmp	r3, #0
 8004038:	d1f3      	bne.n	8004022 <USBD_StdEPReq+0x92>
 800403a:	064e      	lsls	r6, r1, #25
 800403c:	d001      	beq.n	8004042 <USBD_StdEPReq+0xb2>
 800403e:	f003 f9ef 	bl	8007420 <USBD_LL_ClearStallEP>
 8004042:	4620      	mov	r0, r4
 8004044:	f000 f890 	bl	8004168 <USBD_CtlSendStatus>
 8004048:	f8d4 32b8 	ldr.w	r3, [r4, #696]	; 0x2b8
 800404c:	4629      	mov	r1, r5
 800404e:	4620      	mov	r0, r4
 8004050:	689b      	ldr	r3, [r3, #8]
 8004052:	e8bd 4070 	ldmia.w	sp!, {r4, r5, r6, lr}
 8004056:	4718      	bx	r3
 8004058:	064b      	lsls	r3, r1, #25
 800405a:	d0d3      	beq.n	8004004 <USBD_StdEPReq+0x74>
 800405c:	f003 f9d2 	bl	8007404 <USBD_LL_StallEP>
 8004060:	2180      	movs	r1, #128	; 0x80
 8004062:	4620      	mov	r0, r4
 8004064:	f003 f9ce 	bl	8007404 <USBD_LL_StallEP>
 8004068:	e7db      	b.n	8004022 <USBD_StdEPReq+0x92>
 800406a:	0649      	lsls	r1, r1, #25
 800406c:	d1ca      	bne.n	8004004 <USBD_StdEPReq+0x74>
 800406e:	0613      	lsls	r3, r2, #24
 8004070:	bf4c      	ite	mi
 8004072:	f104 0114 	addmi.w	r1, r4, #20
 8004076:	f504 71aa 	addpl.w	r1, r4, #340	; 0x154
 800407a:	2300      	movs	r3, #0
 800407c:	600b      	str	r3, [r1, #0]
 800407e:	2202      	movs	r2, #2
 8004080:	4620      	mov	r0, r4
 8004082:	f000 f847 	bl	8004114 <USBD_CtlSendData>
 8004086:	e7cc      	b.n	8004022 <USBD_StdEPReq+0x92>
 8004088:	f8b3 3164 	ldrh.w	r3, [r3, #356]	; 0x164
 800408c:	2b00      	cmp	r3, #0
 800408e:	d0b9      	beq.n	8004004 <USBD_StdEPReq+0x74>
 8004090:	f001 057f 	and.w	r5, r1, #127	; 0x7f
 8004094:	2314      	movs	r3, #20
 8004096:	fb03 4505 	mla	r5, r3, r5, r4
 800409a:	f505 75aa 	add.w	r5, r5, #340	; 0x154
 800409e:	e7a3      	b.n	8003fe8 <USBD_StdEPReq+0x58>
 80040a0:	4620      	mov	r0, r4
 80040a2:	f003 f9cb 	bl	800743c <USBD_LL_IsStallEP>
 80040a6:	b108      	cbz	r0, 80040ac <USBD_StdEPReq+0x11c>
 80040a8:	2301      	movs	r3, #1
 80040aa:	e7a0      	b.n	8003fee <USBD_StdEPReq+0x5e>
 80040ac:	6028      	str	r0, [r5, #0]
 80040ae:	e79f      	b.n	8003ff0 <USBD_StdEPReq+0x60>

080040b0 <USBD_ParseSetupRequest>:
 80040b0:	780b      	ldrb	r3, [r1, #0]
 80040b2:	7003      	strb	r3, [r0, #0]
 80040b4:	784b      	ldrb	r3, [r1, #1]
 80040b6:	7043      	strb	r3, [r0, #1]
 80040b8:	884b      	ldrh	r3, [r1, #2]
 80040ba:	8043      	strh	r3, [r0, #2]
 80040bc:	888b      	ldrh	r3, [r1, #4]
 80040be:	8083      	strh	r3, [r0, #4]
 80040c0:	88cb      	ldrh	r3, [r1, #6]
 80040c2:	80c3      	strh	r3, [r0, #6]
 80040c4:	4770      	bx	lr

080040c6 <USBD_CtlError>:
 80040c6:	b510      	push	{r4, lr}
 80040c8:	2180      	movs	r1, #128	; 0x80
 80040ca:	4604      	mov	r4, r0
 80040cc:	f003 f99a 	bl	8007404 <USBD_LL_StallEP>
 80040d0:	4620      	mov	r0, r4
 80040d2:	2100      	movs	r1, #0
 80040d4:	e8bd 4010 	ldmia.w	sp!, {r4, lr}
 80040d8:	f003 b994 	b.w	8007404 <USBD_LL_StallEP>

080040dc <USBD_GetString>:
 80040dc:	b530      	push	{r4, r5, lr}
 80040de:	b188      	cbz	r0, 8004104 <USBD_GetString+0x28>
 80040e0:	2400      	movs	r4, #0
 80040e2:	3801      	subs	r0, #1
 80040e4:	4623      	mov	r3, r4
 80040e6:	3401      	adds	r4, #1
 80040e8:	5d05      	ldrb	r5, [r0, r4]
 80040ea:	2d00      	cmp	r5, #0
 80040ec:	d1fa      	bne.n	80040e4 <USBD_GetString+0x8>
 80040ee:	b2db      	uxtb	r3, r3
 80040f0:	3301      	adds	r3, #1
 80040f2:	005b      	lsls	r3, r3, #1
 80040f4:	8013      	strh	r3, [r2, #0]
 80040f6:	700b      	strb	r3, [r1, #0]
 80040f8:	2303      	movs	r3, #3
 80040fa:	704b      	strb	r3, [r1, #1]
 80040fc:	2302      	movs	r3, #2
 80040fe:	f810 2f01 	ldrb.w	r2, [r0, #1]!
 8004102:	b902      	cbnz	r2, 8004106 <USBD_GetString+0x2a>
 8004104:	bd30      	pop	{r4, r5, pc}
 8004106:	54ca      	strb	r2, [r1, r3]
 8004108:	1c5a      	adds	r2, r3, #1
 800410a:	b2d2      	uxtb	r2, r2
 800410c:	3302      	adds	r3, #2
 800410e:	548d      	strb	r5, [r1, r2]
 8004110:	b2db      	uxtb	r3, r3
 8004112:	e7f4      	b.n	80040fe <USBD_GetString+0x22>

08004114 <USBD_CtlSendData>:
 8004114:	b510      	push	{r4, lr}
 8004116:	2402      	movs	r4, #2
 8004118:	4613      	mov	r3, r2
 800411a:	e9c0 2206 	strd	r2, r2, [r0, #24]
 800411e:	f8c0 4294 	str.w	r4, [r0, #660]	; 0x294
 8004122:	460a      	mov	r2, r1
 8004124:	2100      	movs	r1, #0
 8004126:	f003 f9ab 	bl	8007480 <USBD_LL_Transmit>
 800412a:	2000      	movs	r0, #0
 800412c:	bd10      	pop	{r4, pc}

0800412e <USBD_CtlContinueSendData>:
 800412e:	b508      	push	{r3, lr}
 8004130:	4613      	mov	r3, r2
 8004132:	460a      	mov	r2, r1
 8004134:	2100      	movs	r1, #0
 8004136:	f003 f9a3 	bl	8007480 <USBD_LL_Transmit>
 800413a:	2000      	movs	r0, #0
 800413c:	bd08      	pop	{r3, pc}

0800413e <USBD_CtlPrepareRx>:
 800413e:	b510      	push	{r4, lr}
 8004140:	2403      	movs	r4, #3
 8004142:	4613      	mov	r3, r2
 8004144:	e9c0 2256 	strd	r2, r2, [r0, #344]	; 0x158
 8004148:	f8c0 4294 	str.w	r4, [r0, #660]	; 0x294
 800414c:	460a      	mov	r2, r1
 800414e:	2100      	movs	r1, #0
 8004150:	f003 f9a4 	bl	800749c <USBD_LL_PrepareReceive>
 8004154:	2000      	movs	r0, #0
 8004156:	bd10      	pop	{r4, pc}

08004158 <USBD_CtlContinueRx>:
 8004158:	b508      	push	{r3, lr}
 800415a:	4613      	mov	r3, r2
 800415c:	460a      	mov	r2, r1
 800415e:	2100      	movs	r1, #0
 8004160:	f003 f99c 	bl	800749c <USBD_LL_PrepareReceive>
 8004164:	2000      	movs	r0, #0
 8004166:	bd08      	pop	{r3, pc}

08004168 <USBD_CtlSendStatus>:
 8004168:	b508      	push	{r3, lr}
 800416a:	2204      	movs	r2, #4
 800416c:	2300      	movs	r3, #0
 800416e:	f8c0 2294 	str.w	r2, [r0, #660]	; 0x294
 8004172:	4619      	mov	r1, r3
 8004174:	461a      	mov	r2, r3
 8004176:	f003 f983 	bl	8007480 <USBD_LL_Transmit>
 800417a:	2000      	movs	r0, #0
 800417c:	bd08      	pop	{r3, pc}

0800417e <USBD_CtlReceiveStatus>:
 800417e:	b508      	push	{r3, lr}
 8004180:	2205      	movs	r2, #5
 8004182:	2300      	movs	r3, #0
 8004184:	f8c0 2294 	str.w	r2, [r0, #660]	; 0x294
 8004188:	4619      	mov	r1, r3
 800418a:	461a      	mov	r2, r3
 800418c:	f003 f986 	bl	800749c <USBD_LL_PrepareReceive>
 8004190:	2000      	movs	r0, #0
 8004192:	bd08      	pop	{r3, pc}

08004194 <SysTick_Handler>:
 8004194:	b508      	push	{r3, lr}
 8004196:	f04f 23e0 	mov.w	r3, #3758153728	; 0xe000e000
 800419a:	691b      	ldr	r3, [r3, #16]
 800419c:	f001 fbf2 	bl	8005984 <xTaskGetSchedulerState>
 80041a0:	2801      	cmp	r0, #1
 80041a2:	d003      	beq.n	80041ac <SysTick_Handler+0x18>
 80041a4:	e8bd 4008 	ldmia.w	sp!, {r3, lr}
 80041a8:	f002 b86c 	b.w	8006284 <xPortSysTickHandler>
 80041ac:	bd08      	pop	{r3, pc}
	...

080041b0 <osKernelInitialize>:
 80041b0:	f3ef 8305 	mrs	r3, IPSR
 80041b4:	b92b      	cbnz	r3, 80041c2 <osKernelInitialize+0x12>
 80041b6:	4b06      	ldr	r3, [pc, #24]	; (80041d0 <osKernelInitialize+0x20>)
 80041b8:	6818      	ldr	r0, [r3, #0]
 80041ba:	b928      	cbnz	r0, 80041c8 <osKernelInitialize+0x18>
 80041bc:	2201      	movs	r2, #1
 80041be:	601a      	str	r2, [r3, #0]
 80041c0:	4770      	bx	lr
 80041c2:	f06f 0005 	mvn.w	r0, #5
 80041c6:	4770      	bx	lr
 80041c8:	f04f 30ff 	mov.w	r0, #4294967295
 80041cc:	4770      	bx	lr
 80041ce:	bf00      	nop
 80041d0:	200004d0 	.word	0x200004d0

080041d4 <osKernelStart>:
 80041d4:	b510      	push	{r4, lr}
 80041d6:	f3ef 8405 	mrs	r4, IPSR
 80041da:	b95c      	cbnz	r4, 80041f4 <osKernelStart+0x20>
 80041dc:	4b08      	ldr	r3, [pc, #32]	; (8004200 <osKernelStart+0x2c>)
 80041de:	681a      	ldr	r2, [r3, #0]
 80041e0:	2a01      	cmp	r2, #1
 80041e2:	d10a      	bne.n	80041fa <osKernelStart+0x26>
 80041e4:	4a07      	ldr	r2, [pc, #28]	; (8004204 <osKernelStart+0x30>)
 80041e6:	77d4      	strb	r4, [r2, #31]
 80041e8:	2202      	movs	r2, #2
 80041ea:	601a      	str	r2, [r3, #0]
 80041ec:	f001 f912 	bl	8005414 <vTaskStartScheduler>
 80041f0:	4620      	mov	r0, r4
 80041f2:	bd10      	pop	{r4, pc}
 80041f4:	f06f 0005 	mvn.w	r0, #5
 80041f8:	e7fb      	b.n	80041f2 <osKernelStart+0x1e>
 80041fa:	f04f 30ff 	mov.w	r0, #4294967295
 80041fe:	e7f8      	b.n	80041f2 <osKernelStart+0x1e>
 8004200:	200004d0 	.word	0x200004d0
 8004204:	e000ed00 	.word	0xe000ed00

08004208 <osThreadNew>:
 8004208:	b5f0      	push	{r4, r5, r6, r7, lr}
 800420a:	b087      	sub	sp, #28
 800420c:	4614      	mov	r4, r2
 800420e:	2200      	movs	r2, #0
 8004210:	460b      	mov	r3, r1
 8004212:	9205      	str	r2, [sp, #20]
 8004214:	f3ef 8205 	mrs	r2, IPSR
 8004218:	b9d2      	cbnz	r2, 8004250 <osThreadNew+0x48>
 800421a:	b1c8      	cbz	r0, 8004250 <osThreadNew+0x48>
 800421c:	2c00      	cmp	r4, #0
 800421e:	d02f      	beq.n	8004280 <osThreadNew+0x78>
 8004220:	69a5      	ldr	r5, [r4, #24]
 8004222:	2d00      	cmp	r5, #0
 8004224:	bf08      	it	eq
 8004226:	2518      	moveq	r5, #24
 8004228:	1e69      	subs	r1, r5, #1
 800422a:	2937      	cmp	r1, #55	; 0x37
 800422c:	46ac      	mov	ip, r5
 800422e:	d82b      	bhi.n	8004288 <osThreadNew+0x80>
 8004230:	6861      	ldr	r1, [r4, #4]
 8004232:	07c9      	lsls	r1, r1, #31
 8004234:	d428      	bmi.n	8004288 <osThreadNew+0x80>
 8004236:	6966      	ldr	r6, [r4, #20]
 8004238:	b16e      	cbz	r6, 8004256 <osThreadNew+0x4e>
 800423a:	08b2      	lsrs	r2, r6, #2
 800423c:	e9d4 7e02 	ldrd	r7, lr, [r4, #8]
 8004240:	6821      	ldr	r1, [r4, #0]
 8004242:	b157      	cbz	r7, 800425a <osThreadNew+0x52>
 8004244:	f1be 0fbb 	cmp.w	lr, #187	; 0xbb
 8004248:	d902      	bls.n	8004250 <osThreadNew+0x48>
 800424a:	6924      	ldr	r4, [r4, #16]
 800424c:	b104      	cbz	r4, 8004250 <osThreadNew+0x48>
 800424e:	b9ee      	cbnz	r6, 800428c <osThreadNew+0x84>
 8004250:	9805      	ldr	r0, [sp, #20]
 8004252:	b007      	add	sp, #28
 8004254:	bdf0      	pop	{r4, r5, r6, r7, pc}
 8004256:	2280      	movs	r2, #128	; 0x80
 8004258:	e7f0      	b.n	800423c <osThreadNew+0x34>
 800425a:	f1be 0f00 	cmp.w	lr, #0
 800425e:	d1f7      	bne.n	8004250 <osThreadNew+0x48>
 8004260:	6924      	ldr	r4, [r4, #16]
 8004262:	2c00      	cmp	r4, #0
 8004264:	d1f4      	bne.n	8004250 <osThreadNew+0x48>
 8004266:	460c      	mov	r4, r1
 8004268:	a905      	add	r1, sp, #20
 800426a:	e9cd c100 	strd	ip, r1, [sp]
 800426e:	b292      	uxth	r2, r2
 8004270:	4621      	mov	r1, r4
 8004272:	f001 f8a1 	bl	80053b8 <xTaskCreate>
 8004276:	2801      	cmp	r0, #1
 8004278:	bf1c      	itt	ne
 800427a:	2300      	movne	r3, #0
 800427c:	9305      	strne	r3, [sp, #20]
 800427e:	e7e7      	b.n	8004250 <osThreadNew+0x48>
 8004280:	f04f 0c18 	mov.w	ip, #24
 8004284:	2280      	movs	r2, #128	; 0x80
 8004286:	e7ef      	b.n	8004268 <osThreadNew+0x60>
 8004288:	4610      	mov	r0, r2
 800428a:	e7e2      	b.n	8004252 <osThreadNew+0x4a>
 800428c:	e9cd 4701 	strd	r4, r7, [sp, #4]
 8004290:	9500      	str	r5, [sp, #0]
 8004292:	f001 f859 	bl	8005348 <xTaskCreateStatic>
 8004296:	9005      	str	r0, [sp, #20]
 8004298:	e7da      	b.n	8004250 <osThreadNew+0x48>

0800429a <osThreadFlagsSet>:
 800429a:	b530      	push	{r4, r5, lr}
 800429c:	4604      	mov	r4, r0
 800429e:	b085      	sub	sp, #20
 80042a0:	b108      	cbz	r0, 80042a6 <osThreadFlagsSet+0xc>
 80042a2:	2900      	cmp	r1, #0
 80042a4:	da05      	bge.n	80042b2 <osThreadFlagsSet+0x18>
 80042a6:	f06f 0303 	mvn.w	r3, #3
 80042aa:	9302      	str	r3, [sp, #8]
 80042ac:	9802      	ldr	r0, [sp, #8]
 80042ae:	b005      	add	sp, #20
 80042b0:	bd30      	pop	{r4, r5, pc}
 80042b2:	f04f 33ff 	mov.w	r3, #4294967295
 80042b6:	9302      	str	r3, [sp, #8]
 80042b8:	f3ef 8505 	mrs	r5, IPSR
 80042bc:	b1e5      	cbz	r5, 80042f8 <osThreadFlagsSet+0x5e>
 80042be:	2500      	movs	r5, #0
 80042c0:	ab03      	add	r3, sp, #12
 80042c2:	9300      	str	r3, [sp, #0]
 80042c4:	2201      	movs	r2, #1
 80042c6:	462b      	mov	r3, r5
 80042c8:	9503      	str	r5, [sp, #12]
 80042ca:	f001 fc73 	bl	8005bb4 <xTaskGenericNotifyFromISR>
 80042ce:	ab02      	add	r3, sp, #8
 80042d0:	9500      	str	r5, [sp, #0]
 80042d2:	462a      	mov	r2, r5
 80042d4:	4629      	mov	r1, r5
 80042d6:	4620      	mov	r0, r4
 80042d8:	f001 fc6c 	bl	8005bb4 <xTaskGenericNotifyFromISR>
 80042dc:	9b03      	ldr	r3, [sp, #12]
 80042de:	2b00      	cmp	r3, #0
 80042e0:	d0e4      	beq.n	80042ac <osThreadFlagsSet+0x12>
 80042e2:	f04f 23e0 	mov.w	r3, #3758153728	; 0xe000e000
 80042e6:	f04f 5280 	mov.w	r2, #268435456	; 0x10000000
 80042ea:	f8c3 2d04 	str.w	r2, [r3, #3332]	; 0xd04
 80042ee:	f3bf 8f4f 	dsb	sy
 80042f2:	f3bf 8f6f 	isb	sy
 80042f6:	e7d9      	b.n	80042ac <osThreadFlagsSet+0x12>
 80042f8:	462b      	mov	r3, r5
 80042fa:	2201      	movs	r2, #1
 80042fc:	f001 fbe0 	bl	8005ac0 <xTaskGenericNotify>
 8004300:	ab02      	add	r3, sp, #8
 8004302:	462a      	mov	r2, r5
 8004304:	4629      	mov	r1, r5
 8004306:	4620      	mov	r0, r4
 8004308:	f001 fbda 	bl	8005ac0 <xTaskGenericNotify>
 800430c:	e7ce      	b.n	80042ac <osThreadFlagsSet+0x12>

0800430e <osThreadFlagsWait>:
 800430e:	e92d 4ff7 	stmdb	sp!, {r0, r1, r2, r4, r5, r6, r7, r8, r9, sl, fp, lr}
 8004312:	4606      	mov	r6, r0
 8004314:	4689      	mov	r9, r1
 8004316:	4617      	mov	r7, r2
 8004318:	f3ef 8405 	mrs	r4, IPSR
 800431c:	2c00      	cmp	r4, #0
 800431e:	d13c      	bne.n	800439a <osThreadFlagsWait+0x8c>
 8004320:	2800      	cmp	r0, #0
 8004322:	db3d      	blt.n	80043a0 <osThreadFlagsWait+0x92>
 8004324:	f011 0f02 	tst.w	r1, #2
 8004328:	bf0c      	ite	eq
 800432a:	4683      	moveq	fp, r0
 800432c:	f04f 0b00 	movne.w	fp, #0
 8004330:	f001 f8c8 	bl	80054c4 <xTaskGetTickCount>
 8004334:	2f00      	cmp	r7, #0
 8004336:	4680      	mov	r8, r0
 8004338:	bf0c      	ite	eq
 800433a:	f06f 0a02 	mvneq.w	sl, #2
 800433e:	f06f 0a01 	mvnne.w	sl, #1
 8004342:	463d      	mov	r5, r7
 8004344:	462b      	mov	r3, r5
 8004346:	aa01      	add	r2, sp, #4
 8004348:	4659      	mov	r1, fp
 800434a:	2000      	movs	r0, #0
 800434c:	f001 fb6e 	bl	8005a2c <xTaskNotifyWait>
 8004350:	2801      	cmp	r0, #1
 8004352:	d11e      	bne.n	8004392 <osThreadFlagsWait+0x84>
 8004354:	9b01      	ldr	r3, [sp, #4]
 8004356:	4034      	ands	r4, r6
 8004358:	431c      	orrs	r4, r3
 800435a:	f019 0f01 	tst.w	r9, #1
 800435e:	ea06 0304 	and.w	r3, r6, r4
 8004362:	d007      	beq.n	8004374 <osThreadFlagsWait+0x66>
 8004364:	429e      	cmp	r6, r3
 8004366:	d007      	beq.n	8004378 <osThreadFlagsWait+0x6a>
 8004368:	b957      	cbnz	r7, 8004380 <osThreadFlagsWait+0x72>
 800436a:	f06f 0402 	mvn.w	r4, #2
 800436e:	e003      	b.n	8004378 <osThreadFlagsWait+0x6a>
 8004370:	2500      	movs	r5, #0
 8004372:	e7e7      	b.n	8004344 <osThreadFlagsWait+0x36>
 8004374:	2b00      	cmp	r3, #0
 8004376:	d0f7      	beq.n	8004368 <osThreadFlagsWait+0x5a>
 8004378:	4620      	mov	r0, r4
 800437a:	b003      	add	sp, #12
 800437c:	e8bd 8ff0 	ldmia.w	sp!, {r4, r5, r6, r7, r8, r9, sl, fp, pc}
 8004380:	f001 f8a0 	bl	80054c4 <xTaskGetTickCount>
 8004384:	eba0 0308 	sub.w	r3, r0, r8
 8004388:	429d      	cmp	r5, r3
 800438a:	d3f1      	bcc.n	8004370 <osThreadFlagsWait+0x62>
 800438c:	4445      	add	r5, r8
 800438e:	1a2d      	subs	r5, r5, r0
 8004390:	e7d8      	b.n	8004344 <osThreadFlagsWait+0x36>
 8004392:	4654      	mov	r4, sl
 8004394:	2800      	cmp	r0, #0
 8004396:	d1d5      	bne.n	8004344 <osThreadFlagsWait+0x36>
 8004398:	e7ee      	b.n	8004378 <osThreadFlagsWait+0x6a>
 800439a:	f06f 0405 	mvn.w	r4, #5
 800439e:	e7eb      	b.n	8004378 <osThreadFlagsWait+0x6a>
 80043a0:	f06f 0403 	mvn.w	r4, #3
 80043a4:	e7e8      	b.n	8004378 <osThreadFlagsWait+0x6a>

080043a6 <osDelay>:
 80043a6:	b510      	push	{r4, lr}
 80043a8:	f3ef 8405 	mrs	r4, IPSR
 80043ac:	b924      	cbnz	r4, 80043b8 <osDelay+0x12>
 80043ae:	b110      	cbz	r0, 80043b6 <osDelay+0x10>
 80043b0:	f001 f998 	bl	80056e4 <vTaskDelay>
 80043b4:	4620      	mov	r0, r4
 80043b6:	bd10      	pop	{r4, pc}
 80043b8:	f06f 0005 	mvn.w	r0, #5
 80043bc:	e7fb      	b.n	80043b6 <osDelay+0x10>

080043be <osMessageQueueNew>:
 80043be:	b5f7      	push	{r0, r1, r2, r4, r5, r6, r7, lr}
 80043c0:	4605      	mov	r5, r0
 80043c2:	460e      	mov	r6, r1
 80043c4:	4614      	mov	r4, r2
 80043c6:	f3ef 8705 	mrs	r7, IPSR
 80043ca:	b11f      	cbz	r7, 80043d4 <osMessageQueueNew+0x16>
 80043cc:	2500      	movs	r5, #0
 80043ce:	4628      	mov	r0, r5
 80043d0:	b003      	add	sp, #12
 80043d2:	bdf0      	pop	{r4, r5, r6, r7, pc}
 80043d4:	2800      	cmp	r0, #0
 80043d6:	d0f9      	beq.n	80043cc <osMessageQueueNew+0xe>
 80043d8:	2900      	cmp	r1, #0
 80043da:	d0f7      	beq.n	80043cc <osMessageQueueNew+0xe>
 80043dc:	b1da      	cbz	r2, 8004416 <osMessageQueueNew+0x58>
 80043de:	e9d2 3202 	ldrd	r3, r2, [r2, #8]
 80043e2:	b183      	cbz	r3, 8004406 <osMessageQueueNew+0x48>
 80043e4:	2a4f      	cmp	r2, #79	; 0x4f
 80043e6:	d9f1      	bls.n	80043cc <osMessageQueueNew+0xe>
 80043e8:	6922      	ldr	r2, [r4, #16]
 80043ea:	2a00      	cmp	r2, #0
 80043ec:	d0ee      	beq.n	80043cc <osMessageQueueNew+0xe>
 80043ee:	6966      	ldr	r6, [r4, #20]
 80043f0:	434d      	muls	r5, r1
 80043f2:	42ae      	cmp	r6, r5
 80043f4:	d3ea      	bcc.n	80043cc <osMessageQueueNew+0xe>
 80043f6:	9700      	str	r7, [sp, #0]
 80043f8:	f000 f942 	bl	8004680 <xQueueGenericCreateStatic>
 80043fc:	4605      	mov	r5, r0
 80043fe:	2800      	cmp	r0, #0
 8004400:	d0e4      	beq.n	80043cc <osMessageQueueNew+0xe>
 8004402:	6824      	ldr	r4, [r4, #0]
 8004404:	e011      	b.n	800442a <osMessageQueueNew+0x6c>
 8004406:	2a00      	cmp	r2, #0
 8004408:	d1e0      	bne.n	80043cc <osMessageQueueNew+0xe>
 800440a:	6923      	ldr	r3, [r4, #16]
 800440c:	2b00      	cmp	r3, #0
 800440e:	d1dd      	bne.n	80043cc <osMessageQueueNew+0xe>
 8004410:	6963      	ldr	r3, [r4, #20]
 8004412:	2b00      	cmp	r3, #0
 8004414:	d1da      	bne.n	80043cc <osMessageQueueNew+0xe>
 8004416:	4628      	mov	r0, r5
 8004418:	2200      	movs	r2, #0
 800441a:	4631      	mov	r1, r6
 800441c:	f000 f97e 	bl	800471c <xQueueGenericCreate>
 8004420:	4605      	mov	r5, r0
 8004422:	2800      	cmp	r0, #0
 8004424:	d0d2      	beq.n	80043cc <osMessageQueueNew+0xe>
 8004426:	2c00      	cmp	r4, #0
 8004428:	d1eb      	bne.n	8004402 <osMessageQueueNew+0x44>
 800442a:	4621      	mov	r1, r4
 800442c:	4628      	mov	r0, r5
 800442e:	f000 fb51 	bl	8004ad4 <vQueueAddToRegistry>
 8004432:	e7cc      	b.n	80043ce <osMessageQueueNew+0x10>

08004434 <vApplicationGetIdleTaskMemory>:
 8004434:	4b03      	ldr	r3, [pc, #12]	; (8004444 <vApplicationGetIdleTaskMemory+0x10>)
 8004436:	6003      	str	r3, [r0, #0]
 8004438:	4b03      	ldr	r3, [pc, #12]	; (8004448 <vApplicationGetIdleTaskMemory+0x14>)
 800443a:	600b      	str	r3, [r1, #0]
 800443c:	2380      	movs	r3, #128	; 0x80
 800443e:	6013      	str	r3, [r2, #0]
 8004440:	4770      	bx	lr
 8004442:	bf00      	nop
 8004444:	20000414 	.word	0x20000414
 8004448:	20000214 	.word	0x20000214

0800444c <vApplicationGetTimerTaskMemory>:
 800444c:	4b03      	ldr	r3, [pc, #12]	; (800445c <vApplicationGetTimerTaskMemory+0x10>)
 800444e:	6003      	str	r3, [r0, #0]
 8004450:	4b03      	ldr	r3, [pc, #12]	; (8004460 <vApplicationGetTimerTaskMemory+0x14>)
 8004452:	600b      	str	r3, [r1, #0]
 8004454:	f44f 7380 	mov.w	r3, #256	; 0x100
 8004458:	6013      	str	r3, [r2, #0]
 800445a:	4770      	bx	lr
 800445c:	200008d4 	.word	0x200008d4
 8004460:	200004d4 	.word	0x200004d4

08004464 <vListInitialise>:
 8004464:	f100 0308 	add.w	r3, r0, #8
 8004468:	f04f 32ff 	mov.w	r2, #4294967295
 800446c:	e9c0 2302 	strd	r2, r3, [r0, #8]
 8004470:	6043      	str	r3, [r0, #4]
 8004472:	6103      	str	r3, [r0, #16]
 8004474:	2300      	movs	r3, #0
 8004476:	6003      	str	r3, [r0, #0]
 8004478:	4770      	bx	lr

0800447a <vListInitialiseItem>:
 800447a:	2300      	movs	r3, #0
 800447c:	6103      	str	r3, [r0, #16]
 800447e:	4770      	bx	lr

08004480 <vListInsertEnd>:
 8004480:	6843      	ldr	r3, [r0, #4]
 8004482:	604b      	str	r3, [r1, #4]
 8004484:	689a      	ldr	r2, [r3, #8]
 8004486:	608a      	str	r2, [r1, #8]
 8004488:	689a      	ldr	r2, [r3, #8]
 800448a:	6051      	str	r1, [r2, #4]
 800448c:	6099      	str	r1, [r3, #8]
 800448e:	6803      	ldr	r3, [r0, #0]
 8004490:	6108      	str	r0, [r1, #16]
 8004492:	3301      	adds	r3, #1
 8004494:	6003      	str	r3, [r0, #0]
 8004496:	4770      	bx	lr

08004498 <vListInsert>:
 8004498:	b530      	push	{r4, r5, lr}
 800449a:	680c      	ldr	r4, [r1, #0]
 800449c:	1c63      	adds	r3, r4, #1
 800449e:	d10a      	bne.n	80044b6 <vListInsert+0x1e>
 80044a0:	6903      	ldr	r3, [r0, #16]
 80044a2:	685a      	ldr	r2, [r3, #4]
 80044a4:	604a      	str	r2, [r1, #4]
 80044a6:	6091      	str	r1, [r2, #8]
 80044a8:	608b      	str	r3, [r1, #8]
 80044aa:	6059      	str	r1, [r3, #4]
 80044ac:	6803      	ldr	r3, [r0, #0]
 80044ae:	6108      	str	r0, [r1, #16]
 80044b0:	3301      	adds	r3, #1
 80044b2:	6003      	str	r3, [r0, #0]
 80044b4:	bd30      	pop	{r4, r5, pc}
 80044b6:	f100 0208 	add.w	r2, r0, #8
 80044ba:	4613      	mov	r3, r2
 80044bc:	6852      	ldr	r2, [r2, #4]
 80044be:	6815      	ldr	r5, [r2, #0]
 80044c0:	42a5      	cmp	r5, r4
 80044c2:	d9fa      	bls.n	80044ba <vListInsert+0x22>
 80044c4:	e7ed      	b.n	80044a2 <vListInsert+0xa>

080044c6 <uxListRemove>:
 80044c6:	e9d0 1201 	ldrd	r1, r2, [r0, #4]
 80044ca:	6903      	ldr	r3, [r0, #16]
 80044cc:	608a      	str	r2, [r1, #8]
 80044ce:	6051      	str	r1, [r2, #4]
 80044d0:	6859      	ldr	r1, [r3, #4]
 80044d2:	4281      	cmp	r1, r0
 80044d4:	bf08      	it	eq
 80044d6:	605a      	streq	r2, [r3, #4]
 80044d8:	2200      	movs	r2, #0
 80044da:	6102      	str	r2, [r0, #16]
 80044dc:	681a      	ldr	r2, [r3, #0]
 80044de:	3a01      	subs	r2, #1
 80044e0:	601a      	str	r2, [r3, #0]
 80044e2:	6818      	ldr	r0, [r3, #0]
 80044e4:	4770      	bx	lr

080044e6 <prvIsQueueEmpty>:
 80044e6:	b510      	push	{r4, lr}
 80044e8:	4604      	mov	r4, r0
 80044ea:	f001 fe63 	bl	80061b4 <vPortEnterCritical>
 80044ee:	6ba4      	ldr	r4, [r4, #56]	; 0x38
 80044f0:	f001 fe80 	bl	80061f4 <vPortExitCritical>
 80044f4:	fab4 f084 	clz	r0, r4
 80044f8:	0940      	lsrs	r0, r0, #5
 80044fa:	bd10      	pop	{r4, pc}

080044fc <prvCopyDataToQueue>:
 80044fc:	b5f8      	push	{r3, r4, r5, r6, r7, lr}
 80044fe:	4615      	mov	r5, r2
 8004500:	6c02      	ldr	r2, [r0, #64]	; 0x40
 8004502:	6b86      	ldr	r6, [r0, #56]	; 0x38
 8004504:	4604      	mov	r4, r0
 8004506:	b952      	cbnz	r2, 800451e <prvCopyDataToQueue+0x22>
 8004508:	6807      	ldr	r7, [r0, #0]
 800450a:	bb47      	cbnz	r7, 800455e <prvCopyDataToQueue+0x62>
 800450c:	6880      	ldr	r0, [r0, #8]
 800450e:	f001 fa49 	bl	80059a4 <xTaskPriorityDisinherit>
 8004512:	60a7      	str	r7, [r4, #8]
 8004514:	4605      	mov	r5, r0
 8004516:	3601      	adds	r6, #1
 8004518:	63a6      	str	r6, [r4, #56]	; 0x38
 800451a:	4628      	mov	r0, r5
 800451c:	bdf8      	pop	{r3, r4, r5, r6, r7, pc}
 800451e:	b965      	cbnz	r5, 800453a <prvCopyDataToQueue+0x3e>
 8004520:	6840      	ldr	r0, [r0, #4]
 8004522:	f003 f923 	bl	800776c <memcpy>
 8004526:	6863      	ldr	r3, [r4, #4]
 8004528:	6c22      	ldr	r2, [r4, #64]	; 0x40
 800452a:	4413      	add	r3, r2
 800452c:	68a2      	ldr	r2, [r4, #8]
 800452e:	6063      	str	r3, [r4, #4]
 8004530:	4293      	cmp	r3, r2
 8004532:	d3f0      	bcc.n	8004516 <prvCopyDataToQueue+0x1a>
 8004534:	6823      	ldr	r3, [r4, #0]
 8004536:	6063      	str	r3, [r4, #4]
 8004538:	e7ed      	b.n	8004516 <prvCopyDataToQueue+0x1a>
 800453a:	68c0      	ldr	r0, [r0, #12]
 800453c:	f003 f916 	bl	800776c <memcpy>
 8004540:	6c22      	ldr	r2, [r4, #64]	; 0x40
 8004542:	68e3      	ldr	r3, [r4, #12]
 8004544:	4251      	negs	r1, r2
 8004546:	1a9b      	subs	r3, r3, r2
 8004548:	6822      	ldr	r2, [r4, #0]
 800454a:	60e3      	str	r3, [r4, #12]
 800454c:	4293      	cmp	r3, r2
 800454e:	bf3e      	ittt	cc
 8004550:	68a3      	ldrcc	r3, [r4, #8]
 8004552:	185b      	addcc	r3, r3, r1
 8004554:	60e3      	strcc	r3, [r4, #12]
 8004556:	2d02      	cmp	r5, #2
 8004558:	d101      	bne.n	800455e <prvCopyDataToQueue+0x62>
 800455a:	b116      	cbz	r6, 8004562 <prvCopyDataToQueue+0x66>
 800455c:	3e01      	subs	r6, #1
 800455e:	2500      	movs	r5, #0
 8004560:	e7d9      	b.n	8004516 <prvCopyDataToQueue+0x1a>
 8004562:	4635      	mov	r5, r6
 8004564:	e7d7      	b.n	8004516 <prvCopyDataToQueue+0x1a>

08004566 <prvCopyDataFromQueue>:
 8004566:	4603      	mov	r3, r0
 8004568:	b410      	push	{r4}
 800456a:	6c1a      	ldr	r2, [r3, #64]	; 0x40
 800456c:	4608      	mov	r0, r1
 800456e:	b16a      	cbz	r2, 800458c <prvCopyDataFromQueue+0x26>
 8004570:	68dc      	ldr	r4, [r3, #12]
 8004572:	6899      	ldr	r1, [r3, #8]
 8004574:	4414      	add	r4, r2
 8004576:	428c      	cmp	r4, r1
 8004578:	bf28      	it	cs
 800457a:	6819      	ldrcs	r1, [r3, #0]
 800457c:	60dc      	str	r4, [r3, #12]
 800457e:	bf28      	it	cs
 8004580:	60d9      	strcs	r1, [r3, #12]
 8004582:	68d9      	ldr	r1, [r3, #12]
 8004584:	f85d 4b04 	ldr.w	r4, [sp], #4
 8004588:	f003 b8f0 	b.w	800776c <memcpy>
 800458c:	f85d 4b04 	ldr.w	r4, [sp], #4
 8004590:	4770      	bx	lr

08004592 <prvUnlockQueue>:
 8004592:	b570      	push	{r4, r5, r6, lr}
 8004594:	4604      	mov	r4, r0
 8004596:	f001 fe0d 	bl	80061b4 <vPortEnterCritical>
 800459a:	f894 5045 	ldrb.w	r5, [r4, #69]	; 0x45
 800459e:	f104 0624 	add.w	r6, r4, #36	; 0x24
 80045a2:	b26d      	sxtb	r5, r5
 80045a4:	2d00      	cmp	r5, #0
 80045a6:	dc14      	bgt.n	80045d2 <prvUnlockQueue+0x40>
 80045a8:	23ff      	movs	r3, #255	; 0xff
 80045aa:	f884 3045 	strb.w	r3, [r4, #69]	; 0x45
 80045ae:	f001 fe21 	bl	80061f4 <vPortExitCritical>
 80045b2:	f001 fdff 	bl	80061b4 <vPortEnterCritical>
 80045b6:	f894 5044 	ldrb.w	r5, [r4, #68]	; 0x44
 80045ba:	f104 0610 	add.w	r6, r4, #16
 80045be:	b26d      	sxtb	r5, r5
 80045c0:	2d00      	cmp	r5, #0
 80045c2:	dc12      	bgt.n	80045ea <prvUnlockQueue+0x58>
 80045c4:	23ff      	movs	r3, #255	; 0xff
 80045c6:	f884 3044 	strb.w	r3, [r4, #68]	; 0x44
 80045ca:	e8bd 4070 	ldmia.w	sp!, {r4, r5, r6, lr}
 80045ce:	f001 be11 	b.w	80061f4 <vPortExitCritical>
 80045d2:	6a63      	ldr	r3, [r4, #36]	; 0x24
 80045d4:	2b00      	cmp	r3, #0
 80045d6:	d0e7      	beq.n	80045a8 <prvUnlockQueue+0x16>
 80045d8:	4630      	mov	r0, r6
 80045da:	f001 f91f 	bl	800581c <xTaskRemoveFromEventList>
 80045de:	b108      	cbz	r0, 80045e4 <prvUnlockQueue+0x52>
 80045e0:	f001 f9c4 	bl	800596c <vTaskMissedYield>
 80045e4:	3d01      	subs	r5, #1
 80045e6:	b26d      	sxtb	r5, r5
 80045e8:	e7dc      	b.n	80045a4 <prvUnlockQueue+0x12>
 80045ea:	6923      	ldr	r3, [r4, #16]
 80045ec:	2b00      	cmp	r3, #0
 80045ee:	d0e9      	beq.n	80045c4 <prvUnlockQueue+0x32>
 80045f0:	4630      	mov	r0, r6
 80045f2:	f001 f913 	bl	800581c <xTaskRemoveFromEventList>
 80045f6:	b108      	cbz	r0, 80045fc <prvUnlockQueue+0x6a>
 80045f8:	f001 f9b8 	bl	800596c <vTaskMissedYield>
 80045fc:	3d01      	subs	r5, #1
 80045fe:	b26d      	sxtb	r5, r5
 8004600:	e7de      	b.n	80045c0 <prvUnlockQueue+0x2e>

08004602 <xQueueGenericReset>:
 8004602:	b538      	push	{r3, r4, r5, lr}
 8004604:	460d      	mov	r5, r1
 8004606:	4604      	mov	r4, r0
 8004608:	b940      	cbnz	r0, 800461c <xQueueGenericReset+0x1a>
 800460a:	f04f 0350 	mov.w	r3, #80	; 0x50
 800460e:	f383 8811 	msr	BASEPRI, r3
 8004612:	f3bf 8f6f 	isb	sy
 8004616:	f3bf 8f4f 	dsb	sy
 800461a:	e7fe      	b.n	800461a <xQueueGenericReset+0x18>
 800461c:	f001 fdca 	bl	80061b4 <vPortEnterCritical>
 8004620:	e9d4 310f 	ldrd	r3, r1, [r4, #60]	; 0x3c
 8004624:	6822      	ldr	r2, [r4, #0]
 8004626:	6062      	str	r2, [r4, #4]
 8004628:	434b      	muls	r3, r1
 800462a:	18d0      	adds	r0, r2, r3
 800462c:	1a5b      	subs	r3, r3, r1
 800462e:	4413      	add	r3, r2
 8004630:	60a0      	str	r0, [r4, #8]
 8004632:	60e3      	str	r3, [r4, #12]
 8004634:	2000      	movs	r0, #0
 8004636:	23ff      	movs	r3, #255	; 0xff
 8004638:	63a0      	str	r0, [r4, #56]	; 0x38
 800463a:	f884 3044 	strb.w	r3, [r4, #68]	; 0x44
 800463e:	f884 3045 	strb.w	r3, [r4, #69]	; 0x45
 8004642:	b9a5      	cbnz	r5, 800466e <xQueueGenericReset+0x6c>
 8004644:	6923      	ldr	r3, [r4, #16]
 8004646:	b173      	cbz	r3, 8004666 <xQueueGenericReset+0x64>
 8004648:	f104 0010 	add.w	r0, r4, #16
 800464c:	f001 f8e6 	bl	800581c <xTaskRemoveFromEventList>
 8004650:	b148      	cbz	r0, 8004666 <xQueueGenericReset+0x64>
 8004652:	f04f 23e0 	mov.w	r3, #3758153728	; 0xe000e000
 8004656:	f04f 5280 	mov.w	r2, #268435456	; 0x10000000
 800465a:	f8c3 2d04 	str.w	r2, [r3, #3332]	; 0xd04
 800465e:	f3bf 8f4f 	dsb	sy
 8004662:	f3bf 8f6f 	isb	sy
 8004666:	f001 fdc5 	bl	80061f4 <vPortExitCritical>
 800466a:	2001      	movs	r0, #1
 800466c:	bd38      	pop	{r3, r4, r5, pc}
 800466e:	f104 0010 	add.w	r0, r4, #16
 8004672:	f7ff fef7 	bl	8004464 <vListInitialise>
 8004676:	f104 0024 	add.w	r0, r4, #36	; 0x24
 800467a:	f7ff fef3 	bl	8004464 <vListInitialise>
 800467e:	e7f2      	b.n	8004666 <xQueueGenericReset+0x64>

08004680 <xQueueGenericCreateStatic>:
 8004680:	b513      	push	{r0, r1, r4, lr}
 8004682:	461c      	mov	r4, r3
 8004684:	b940      	cbnz	r0, 8004698 <xQueueGenericCreateStatic+0x18>
 8004686:	f04f 0350 	mov.w	r3, #80	; 0x50
 800468a:	f383 8811 	msr	BASEPRI, r3
 800468e:	f3bf 8f6f 	isb	sy
 8004692:	f3bf 8f4f 	dsb	sy
 8004696:	e7fe      	b.n	8004696 <xQueueGenericCreateStatic+0x16>
 8004698:	b943      	cbnz	r3, 80046ac <xQueueGenericCreateStatic+0x2c>
 800469a:	f04f 0350 	mov.w	r3, #80	; 0x50
 800469e:	f383 8811 	msr	BASEPRI, r3
 80046a2:	f3bf 8f6f 	isb	sy
 80046a6:	f3bf 8f4f 	dsb	sy
 80046aa:	e7fe      	b.n	80046aa <xQueueGenericCreateStatic+0x2a>
 80046ac:	b14a      	cbz	r2, 80046c2 <xQueueGenericCreateStatic+0x42>
 80046ae:	b991      	cbnz	r1, 80046d6 <xQueueGenericCreateStatic+0x56>
 80046b0:	f04f 0350 	mov.w	r3, #80	; 0x50
 80046b4:	f383 8811 	msr	BASEPRI, r3
 80046b8:	f3bf 8f6f 	isb	sy
 80046bc:	f3bf 8f4f 	dsb	sy
 80046c0:	e7fe      	b.n	80046c0 <xQueueGenericCreateStatic+0x40>
 80046c2:	b141      	cbz	r1, 80046d6 <xQueueGenericCreateStatic+0x56>
 80046c4:	f04f 0350 	mov.w	r3, #80	; 0x50
 80046c8:	f383 8811 	msr	BASEPRI, r3
 80046cc:	f3bf 8f6f 	isb	sy
 80046d0:	f3bf 8f4f 	dsb	sy
 80046d4:	e7fe      	b.n	80046d4 <xQueueGenericCreateStatic+0x54>
 80046d6:	2350      	movs	r3, #80	; 0x50
 80046d8:	9301      	str	r3, [sp, #4]
 80046da:	9b01      	ldr	r3, [sp, #4]
 80046dc:	2b50      	cmp	r3, #80	; 0x50
 80046de:	d008      	beq.n	80046f2 <xQueueGenericCreateStatic+0x72>
 80046e0:	f04f 0350 	mov.w	r3, #80	; 0x50
 80046e4:	f383 8811 	msr	BASEPRI, r3
 80046e8:	f3bf 8f6f 	isb	sy
 80046ec:	f3bf 8f4f 	dsb	sy
 80046f0:	e7fe      	b.n	80046f0 <xQueueGenericCreateStatic+0x70>
 80046f2:	2900      	cmp	r1, #0
 80046f4:	bf08      	it	eq
 80046f6:	4622      	moveq	r2, r4
 80046f8:	9b01      	ldr	r3, [sp, #4]
 80046fa:	6022      	str	r2, [r4, #0]
 80046fc:	2301      	movs	r3, #1
 80046fe:	e9c4 010f 	strd	r0, r1, [r4, #60]	; 0x3c
 8004702:	f884 3046 	strb.w	r3, [r4, #70]	; 0x46
 8004706:	4619      	mov	r1, r3
 8004708:	4620      	mov	r0, r4
 800470a:	f7ff ff7a 	bl	8004602 <xQueueGenericReset>
 800470e:	f89d 3010 	ldrb.w	r3, [sp, #16]
 8004712:	f884 304c 	strb.w	r3, [r4, #76]	; 0x4c
 8004716:	4620      	mov	r0, r4
 8004718:	b002      	add	sp, #8
 800471a:	bd10      	pop	{r4, pc}

0800471c <xQueueGenericCreate>:
 800471c:	b5f8      	push	{r3, r4, r5, r6, r7, lr}
 800471e:	460d      	mov	r5, r1
 8004720:	4617      	mov	r7, r2
 8004722:	4606      	mov	r6, r0
 8004724:	b940      	cbnz	r0, 8004738 <xQueueGenericCreate+0x1c>
 8004726:	f04f 0350 	mov.w	r3, #80	; 0x50
 800472a:	f383 8811 	msr	BASEPRI, r3
 800472e:	f3bf 8f6f 	isb	sy
 8004732:	f3bf 8f4f 	dsb	sy
 8004736:	e7fe      	b.n	8004736 <xQueueGenericCreate+0x1a>
 8004738:	4348      	muls	r0, r1
 800473a:	3050      	adds	r0, #80	; 0x50
 800473c:	f001 fea2 	bl	8006484 <pvPortMalloc>
 8004740:	4604      	mov	r4, r0
 8004742:	b170      	cbz	r0, 8004762 <xQueueGenericCreate+0x46>
 8004744:	2300      	movs	r3, #0
 8004746:	f880 3046 	strb.w	r3, [r0, #70]	; 0x46
 800474a:	b165      	cbz	r5, 8004766 <xQueueGenericCreate+0x4a>
 800474c:	f100 0350 	add.w	r3, r0, #80	; 0x50
 8004750:	e9c4 650f 	strd	r6, r5, [r4, #60]	; 0x3c
 8004754:	6023      	str	r3, [r4, #0]
 8004756:	2101      	movs	r1, #1
 8004758:	4620      	mov	r0, r4
 800475a:	f7ff ff52 	bl	8004602 <xQueueGenericReset>
 800475e:	f884 704c 	strb.w	r7, [r4, #76]	; 0x4c
 8004762:	4620      	mov	r0, r4
 8004764:	bdf8      	pop	{r3, r4, r5, r6, r7, pc}
 8004766:	4603      	mov	r3, r0
 8004768:	e7f2      	b.n	8004750 <xQueueGenericCreate+0x34>

0800476a <xQueueGenericSend>:
 800476a:	e92d 43f0 	stmdb	sp!, {r4, r5, r6, r7, r8, r9, lr}
 800476e:	b085      	sub	sp, #20
 8004770:	4688      	mov	r8, r1
 8004772:	9201      	str	r2, [sp, #4]
 8004774:	461f      	mov	r7, r3
 8004776:	4604      	mov	r4, r0
 8004778:	b940      	cbnz	r0, 800478c <xQueueGenericSend+0x22>
 800477a:	f04f 0350 	mov.w	r3, #80	; 0x50
 800477e:	f383 8811 	msr	BASEPRI, r3
 8004782:	f3bf 8f6f 	isb	sy
 8004786:	f3bf 8f4f 	dsb	sy
 800478a:	e7fe      	b.n	800478a <xQueueGenericSend+0x20>
 800478c:	b951      	cbnz	r1, 80047a4 <xQueueGenericSend+0x3a>
 800478e:	6c03      	ldr	r3, [r0, #64]	; 0x40
 8004790:	b143      	cbz	r3, 80047a4 <xQueueGenericSend+0x3a>
 8004792:	f04f 0350 	mov.w	r3, #80	; 0x50
 8004796:	f383 8811 	msr	BASEPRI, r3
 800479a:	f3bf 8f6f 	isb	sy
 800479e:	f3bf 8f4f 	dsb	sy
 80047a2:	e7fe      	b.n	80047a2 <xQueueGenericSend+0x38>
 80047a4:	2f02      	cmp	r7, #2
 80047a6:	d10b      	bne.n	80047c0 <xQueueGenericSend+0x56>
 80047a8:	6be3      	ldr	r3, [r4, #60]	; 0x3c
 80047aa:	2b01      	cmp	r3, #1
 80047ac:	d008      	beq.n	80047c0 <xQueueGenericSend+0x56>
 80047ae:	f04f 0350 	mov.w	r3, #80	; 0x50
 80047b2:	f383 8811 	msr	BASEPRI, r3
 80047b6:	f3bf 8f6f 	isb	sy
 80047ba:	f3bf 8f4f 	dsb	sy
 80047be:	e7fe      	b.n	80047be <xQueueGenericSend+0x54>
 80047c0:	f001 f8e0 	bl	8005984 <xTaskGetSchedulerState>
 80047c4:	4606      	mov	r6, r0
 80047c6:	b950      	cbnz	r0, 80047de <xQueueGenericSend+0x74>
 80047c8:	9b01      	ldr	r3, [sp, #4]
 80047ca:	b14b      	cbz	r3, 80047e0 <xQueueGenericSend+0x76>
 80047cc:	f04f 0350 	mov.w	r3, #80	; 0x50
 80047d0:	f383 8811 	msr	BASEPRI, r3
 80047d4:	f3bf 8f6f 	isb	sy
 80047d8:	f3bf 8f4f 	dsb	sy
 80047dc:	e7fe      	b.n	80047dc <xQueueGenericSend+0x72>
 80047de:	2600      	movs	r6, #0
 80047e0:	f04f 0900 	mov.w	r9, #0
 80047e4:	e037      	b.n	8004856 <xQueueGenericSend+0xec>
 80047e6:	9d01      	ldr	r5, [sp, #4]
 80047e8:	b91d      	cbnz	r5, 80047f2 <xQueueGenericSend+0x88>
 80047ea:	f001 fd03 	bl	80061f4 <vPortExitCritical>
 80047ee:	2000      	movs	r0, #0
 80047f0:	e052      	b.n	8004898 <xQueueGenericSend+0x12e>
 80047f2:	b916      	cbnz	r6, 80047fa <xQueueGenericSend+0x90>
 80047f4:	a802      	add	r0, sp, #8
 80047f6:	f001 f871 	bl	80058dc <vTaskInternalSetTimeOutState>
 80047fa:	f001 fcfb 	bl	80061f4 <vPortExitCritical>
 80047fe:	f000 fe59 	bl	80054b4 <vTaskSuspendAll>
 8004802:	f001 fcd7 	bl	80061b4 <vPortEnterCritical>
 8004806:	f894 3044 	ldrb.w	r3, [r4, #68]	; 0x44
 800480a:	2bff      	cmp	r3, #255	; 0xff
 800480c:	bf08      	it	eq
 800480e:	f884 9044 	strbeq.w	r9, [r4, #68]	; 0x44
 8004812:	f894 3045 	ldrb.w	r3, [r4, #69]	; 0x45
 8004816:	2bff      	cmp	r3, #255	; 0xff
 8004818:	bf08      	it	eq
 800481a:	f884 9045 	strbeq.w	r9, [r4, #69]	; 0x45
 800481e:	f001 fce9 	bl	80061f4 <vPortExitCritical>
 8004822:	a901      	add	r1, sp, #4
 8004824:	a802      	add	r0, sp, #8
 8004826:	f001 f865 	bl	80058f4 <xTaskCheckForTimeOut>
 800482a:	2800      	cmp	r0, #0
 800482c:	d14a      	bne.n	80048c4 <xQueueGenericSend+0x15a>
 800482e:	f001 fcc1 	bl	80061b4 <vPortEnterCritical>
 8004832:	6ba2      	ldr	r2, [r4, #56]	; 0x38
 8004834:	6be3      	ldr	r3, [r4, #60]	; 0x3c
 8004836:	429a      	cmp	r2, r3
 8004838:	d131      	bne.n	800489e <xQueueGenericSend+0x134>
 800483a:	f001 fcdb 	bl	80061f4 <vPortExitCritical>
 800483e:	9901      	ldr	r1, [sp, #4]
 8004840:	f104 0010 	add.w	r0, r4, #16
 8004844:	f000 ffb2 	bl	80057ac <vTaskPlaceOnEventList>
 8004848:	4620      	mov	r0, r4
 800484a:	f7ff fea2 	bl	8004592 <prvUnlockQueue>
 800484e:	f000 fed5 	bl	80055fc <xTaskResumeAll>
 8004852:	b360      	cbz	r0, 80048ae <xQueueGenericSend+0x144>
 8004854:	2601      	movs	r6, #1
 8004856:	f001 fcad 	bl	80061b4 <vPortEnterCritical>
 800485a:	6ba2      	ldr	r2, [r4, #56]	; 0x38
 800485c:	6be3      	ldr	r3, [r4, #60]	; 0x3c
 800485e:	429a      	cmp	r2, r3
 8004860:	d301      	bcc.n	8004866 <xQueueGenericSend+0xfc>
 8004862:	2f02      	cmp	r7, #2
 8004864:	d1bf      	bne.n	80047e6 <xQueueGenericSend+0x7c>
 8004866:	463a      	mov	r2, r7
 8004868:	4641      	mov	r1, r8
 800486a:	4620      	mov	r0, r4
 800486c:	f7ff fe46 	bl	80044fc <prvCopyDataToQueue>
 8004870:	6a63      	ldr	r3, [r4, #36]	; 0x24
 8004872:	b11b      	cbz	r3, 800487c <xQueueGenericSend+0x112>
 8004874:	f104 0024 	add.w	r0, r4, #36	; 0x24
 8004878:	f000 ffd0 	bl	800581c <xTaskRemoveFromEventList>
 800487c:	b148      	cbz	r0, 8004892 <xQueueGenericSend+0x128>
 800487e:	f04f 23e0 	mov.w	r3, #3758153728	; 0xe000e000
 8004882:	f04f 5280 	mov.w	r2, #268435456	; 0x10000000
 8004886:	f8c3 2d04 	str.w	r2, [r3, #3332]	; 0xd04
 800488a:	f3bf 8f4f 	dsb	sy
 800488e:	f3bf 8f6f 	isb	sy
 8004892:	f001 fcaf 	bl	80061f4 <vPortExitCritical>
 8004896:	2001      	movs	r0, #1
 8004898:	b005      	add	sp, #20
 800489a:	e8bd 83f0 	ldmia.w	sp!, {r4, r5, r6, r7, r8, r9, pc}
 800489e:	f001 fca9 	bl	80061f4 <vPortExitCritical>
 80048a2:	4620      	mov	r0, r4
 80048a4:	f7ff fe75 	bl	8004592 <prvUnlockQueue>
 80048a8:	f000 fea8 	bl	80055fc <xTaskResumeAll>
 80048ac:	e7d2      	b.n	8004854 <xQueueGenericSend+0xea>
 80048ae:	f04f 23e0 	mov.w	r3, #3758153728	; 0xe000e000
 80048b2:	f04f 5280 	mov.w	r2, #268435456	; 0x10000000
 80048b6:	f8c3 2d04 	str.w	r2, [r3, #3332]	; 0xd04
 80048ba:	f3bf 8f4f 	dsb	sy
 80048be:	f3bf 8f6f 	isb	sy
 80048c2:	e7c7      	b.n	8004854 <xQueueGenericSend+0xea>
 80048c4:	4620      	mov	r0, r4
 80048c6:	f7ff fe64 	bl	8004592 <prvUnlockQueue>
 80048ca:	f000 fe97 	bl	80055fc <xTaskResumeAll>
 80048ce:	e78e      	b.n	80047ee <xQueueGenericSend+0x84>

080048d0 <xQueueGenericSendFromISR>:
 80048d0:	e92d 43f8 	stmdb	sp!, {r3, r4, r5, r6, r7, r8, r9, lr}
 80048d4:	4689      	mov	r9, r1
 80048d6:	4690      	mov	r8, r2
 80048d8:	461f      	mov	r7, r3
 80048da:	4604      	mov	r4, r0
 80048dc:	b940      	cbnz	r0, 80048f0 <xQueueGenericSendFromISR+0x20>
 80048de:	f04f 0350 	mov.w	r3, #80	; 0x50
 80048e2:	f383 8811 	msr	BASEPRI, r3
 80048e6:	f3bf 8f6f 	isb	sy
 80048ea:	f3bf 8f4f 	dsb	sy
 80048ee:	e7fe      	b.n	80048ee <xQueueGenericSendFromISR+0x1e>
 80048f0:	b951      	cbnz	r1, 8004908 <xQueueGenericSendFromISR+0x38>
 80048f2:	6c03      	ldr	r3, [r0, #64]	; 0x40
 80048f4:	b143      	cbz	r3, 8004908 <xQueueGenericSendFromISR+0x38>
 80048f6:	f04f 0350 	mov.w	r3, #80	; 0x50
 80048fa:	f383 8811 	msr	BASEPRI, r3
 80048fe:	f3bf 8f6f 	isb	sy
 8004902:	f3bf 8f4f 	dsb	sy
 8004906:	e7fe      	b.n	8004906 <xQueueGenericSendFromISR+0x36>
 8004908:	2f02      	cmp	r7, #2
 800490a:	d10b      	bne.n	8004924 <xQueueGenericSendFromISR+0x54>
 800490c:	6be3      	ldr	r3, [r4, #60]	; 0x3c
 800490e:	2b01      	cmp	r3, #1
 8004910:	d008      	beq.n	8004924 <xQueueGenericSendFromISR+0x54>
 8004912:	f04f 0350 	mov.w	r3, #80	; 0x50
 8004916:	f383 8811 	msr	BASEPRI, r3
 800491a:	f3bf 8f6f 	isb	sy
 800491e:	f3bf 8f4f 	dsb	sy
 8004922:	e7fe      	b.n	8004922 <xQueueGenericSendFromISR+0x52>
 8004924:	f001 fd5c 	bl	80063e0 <vPortValidateInterruptPriority>
 8004928:	f3ef 8611 	mrs	r6, BASEPRI
 800492c:	f04f 0350 	mov.w	r3, #80	; 0x50
 8004930:	f383 8811 	msr	BASEPRI, r3
 8004934:	f3bf 8f6f 	isb	sy
 8004938:	f3bf 8f4f 	dsb	sy
 800493c:	6ba2      	ldr	r2, [r4, #56]	; 0x38
 800493e:	6be3      	ldr	r3, [r4, #60]	; 0x3c
 8004940:	429a      	cmp	r2, r3
 8004942:	d301      	bcc.n	8004948 <xQueueGenericSendFromISR+0x78>
 8004944:	2f02      	cmp	r7, #2
 8004946:	d123      	bne.n	8004990 <xQueueGenericSendFromISR+0xc0>
 8004948:	f894 5045 	ldrb.w	r5, [r4, #69]	; 0x45
 800494c:	6ba3      	ldr	r3, [r4, #56]	; 0x38
 800494e:	b26d      	sxtb	r5, r5
 8004950:	463a      	mov	r2, r7
 8004952:	4649      	mov	r1, r9
 8004954:	4620      	mov	r0, r4
 8004956:	f7ff fdd1 	bl	80044fc <prvCopyDataToQueue>
 800495a:	1c6b      	adds	r3, r5, #1
 800495c:	d113      	bne.n	8004986 <xQueueGenericSendFromISR+0xb6>
 800495e:	6a63      	ldr	r3, [r4, #36]	; 0x24
 8004960:	b90b      	cbnz	r3, 8004966 <xQueueGenericSendFromISR+0x96>
 8004962:	2001      	movs	r0, #1
 8004964:	e00b      	b.n	800497e <xQueueGenericSendFromISR+0xae>
 8004966:	f104 0024 	add.w	r0, r4, #36	; 0x24
 800496a:	f000 ff57 	bl	800581c <xTaskRemoveFromEventList>
 800496e:	2800      	cmp	r0, #0
 8004970:	d0f7      	beq.n	8004962 <xQueueGenericSendFromISR+0x92>
 8004972:	f1b8 0f00 	cmp.w	r8, #0
 8004976:	d0f4      	beq.n	8004962 <xQueueGenericSendFromISR+0x92>
 8004978:	2001      	movs	r0, #1
 800497a:	f8c8 0000 	str.w	r0, [r8]
 800497e:	f386 8811 	msr	BASEPRI, r6
 8004982:	e8bd 83f8 	ldmia.w	sp!, {r3, r4, r5, r6, r7, r8, r9, pc}
 8004986:	3501      	adds	r5, #1
 8004988:	b26d      	sxtb	r5, r5
 800498a:	f884 5045 	strb.w	r5, [r4, #69]	; 0x45
 800498e:	e7e8      	b.n	8004962 <xQueueGenericSendFromISR+0x92>
 8004990:	2000      	movs	r0, #0
 8004992:	e7f4      	b.n	800497e <xQueueGenericSendFromISR+0xae>

08004994 <xQueueReceive>:
 8004994:	e92d 41ff 	stmdb	sp!, {r0, r1, r2, r3, r4, r5, r6, r7, r8, lr}
 8004998:	460f      	mov	r7, r1
 800499a:	9201      	str	r2, [sp, #4]
 800499c:	4604      	mov	r4, r0
 800499e:	b940      	cbnz	r0, 80049b2 <xQueueReceive+0x1e>
 80049a0:	f04f 0350 	mov.w	r3, #80	; 0x50
 80049a4:	f383 8811 	msr	BASEPRI, r3
 80049a8:	f3bf 8f6f 	isb	sy
 80049ac:	f3bf 8f4f 	dsb	sy
 80049b0:	e7fe      	b.n	80049b0 <xQueueReceive+0x1c>
 80049b2:	b951      	cbnz	r1, 80049ca <xQueueReceive+0x36>
 80049b4:	6c03      	ldr	r3, [r0, #64]	; 0x40
 80049b6:	b143      	cbz	r3, 80049ca <xQueueReceive+0x36>
 80049b8:	f04f 0350 	mov.w	r3, #80	; 0x50
 80049bc:	f383 8811 	msr	BASEPRI, r3
 80049c0:	f3bf 8f6f 	isb	sy
 80049c4:	f3bf 8f4f 	dsb	sy
 80049c8:	e7fe      	b.n	80049c8 <xQueueReceive+0x34>
 80049ca:	f000 ffdb 	bl	8005984 <xTaskGetSchedulerState>
 80049ce:	4606      	mov	r6, r0
 80049d0:	b950      	cbnz	r0, 80049e8 <xQueueReceive+0x54>
 80049d2:	9b01      	ldr	r3, [sp, #4]
 80049d4:	b14b      	cbz	r3, 80049ea <xQueueReceive+0x56>
 80049d6:	f04f 0350 	mov.w	r3, #80	; 0x50
 80049da:	f383 8811 	msr	BASEPRI, r3
 80049de:	f3bf 8f6f 	isb	sy
 80049e2:	f3bf 8f4f 	dsb	sy
 80049e6:	e7fe      	b.n	80049e6 <xQueueReceive+0x52>
 80049e8:	2600      	movs	r6, #0
 80049ea:	f04f 0800 	mov.w	r8, #0
 80049ee:	e03d      	b.n	8004a6c <xQueueReceive+0xd8>
 80049f0:	9d01      	ldr	r5, [sp, #4]
 80049f2:	b91d      	cbnz	r5, 80049fc <xQueueReceive+0x68>
 80049f4:	f001 fbfe 	bl	80061f4 <vPortExitCritical>
 80049f8:	2000      	movs	r0, #0
 80049fa:	e056      	b.n	8004aaa <xQueueReceive+0x116>
 80049fc:	b916      	cbnz	r6, 8004a04 <xQueueReceive+0x70>
 80049fe:	a802      	add	r0, sp, #8
 8004a00:	f000 ff6c 	bl	80058dc <vTaskInternalSetTimeOutState>
 8004a04:	f001 fbf6 	bl	80061f4 <vPortExitCritical>
 8004a08:	f000 fd54 	bl	80054b4 <vTaskSuspendAll>
 8004a0c:	f001 fbd2 	bl	80061b4 <vPortEnterCritical>
 8004a10:	f894 3044 	ldrb.w	r3, [r4, #68]	; 0x44
 8004a14:	2bff      	cmp	r3, #255	; 0xff
 8004a16:	bf08      	it	eq
 8004a18:	f884 8044 	strbeq.w	r8, [r4, #68]	; 0x44
 8004a1c:	f894 3045 	ldrb.w	r3, [r4, #69]	; 0x45
 8004a20:	2bff      	cmp	r3, #255	; 0xff
 8004a22:	bf08      	it	eq
 8004a24:	f884 8045 	strbeq.w	r8, [r4, #69]	; 0x45
 8004a28:	f001 fbe4 	bl	80061f4 <vPortExitCritical>
 8004a2c:	a901      	add	r1, sp, #4
 8004a2e:	a802      	add	r0, sp, #8
 8004a30:	f000 ff60 	bl	80058f4 <xTaskCheckForTimeOut>
 8004a34:	2800      	cmp	r0, #0
 8004a36:	d141      	bne.n	8004abc <xQueueReceive+0x128>
 8004a38:	4620      	mov	r0, r4
 8004a3a:	f7ff fd54 	bl	80044e6 <prvIsQueueEmpty>
 8004a3e:	b3b8      	cbz	r0, 8004ab0 <xQueueReceive+0x11c>
 8004a40:	9901      	ldr	r1, [sp, #4]
 8004a42:	f104 0024 	add.w	r0, r4, #36	; 0x24
 8004a46:	f000 feb1 	bl	80057ac <vTaskPlaceOnEventList>
 8004a4a:	4620      	mov	r0, r4
 8004a4c:	f7ff fda1 	bl	8004592 <prvUnlockQueue>
 8004a50:	f000 fdd4 	bl	80055fc <xTaskResumeAll>
 8004a54:	b948      	cbnz	r0, 8004a6a <xQueueReceive+0xd6>
 8004a56:	f04f 23e0 	mov.w	r3, #3758153728	; 0xe000e000
 8004a5a:	f04f 5280 	mov.w	r2, #268435456	; 0x10000000
 8004a5e:	f8c3 2d04 	str.w	r2, [r3, #3332]	; 0xd04
 8004a62:	f3bf 8f4f 	dsb	sy
 8004a66:	f3bf 8f6f 	isb	sy
 8004a6a:	2601      	movs	r6, #1
 8004a6c:	f001 fba2 	bl	80061b4 <vPortEnterCritical>
 8004a70:	6ba5      	ldr	r5, [r4, #56]	; 0x38
 8004a72:	2d00      	cmp	r5, #0
 8004a74:	d0bc      	beq.n	80049f0 <xQueueReceive+0x5c>
 8004a76:	4639      	mov	r1, r7
 8004a78:	4620      	mov	r0, r4
 8004a7a:	3d01      	subs	r5, #1
 8004a7c:	f7ff fd73 	bl	8004566 <prvCopyDataFromQueue>
 8004a80:	63a5      	str	r5, [r4, #56]	; 0x38
 8004a82:	6923      	ldr	r3, [r4, #16]
 8004a84:	b173      	cbz	r3, 8004aa4 <xQueueReceive+0x110>
 8004a86:	f104 0010 	add.w	r0, r4, #16
 8004a8a:	f000 fec7 	bl	800581c <xTaskRemoveFromEventList>
 8004a8e:	b148      	cbz	r0, 8004aa4 <xQueueReceive+0x110>
 8004a90:	f04f 23e0 	mov.w	r3, #3758153728	; 0xe000e000
 8004a94:	f04f 5280 	mov.w	r2, #268435456	; 0x10000000
 8004a98:	f8c3 2d04 	str.w	r2, [r3, #3332]	; 0xd04
 8004a9c:	f3bf 8f4f 	dsb	sy
 8004aa0:	f3bf 8f6f 	isb	sy
 8004aa4:	f001 fba6 	bl	80061f4 <vPortExitCritical>
 8004aa8:	2001      	movs	r0, #1
 8004aaa:	b004      	add	sp, #16
 8004aac:	e8bd 81f0 	ldmia.w	sp!, {r4, r5, r6, r7, r8, pc}
 8004ab0:	4620      	mov	r0, r4
 8004ab2:	f7ff fd6e 	bl	8004592 <prvUnlockQueue>
 8004ab6:	f000 fda1 	bl	80055fc <xTaskResumeAll>
 8004aba:	e7d6      	b.n	8004a6a <xQueueReceive+0xd6>
 8004abc:	4620      	mov	r0, r4
 8004abe:	f7ff fd68 	bl	8004592 <prvUnlockQueue>
 8004ac2:	f000 fd9b 	bl	80055fc <xTaskResumeAll>
 8004ac6:	4620      	mov	r0, r4
 8004ac8:	f7ff fd0d 	bl	80044e6 <prvIsQueueEmpty>
 8004acc:	2800      	cmp	r0, #0
 8004ace:	d0cc      	beq.n	8004a6a <xQueueReceive+0xd6>
 8004ad0:	e792      	b.n	80049f8 <xQueueReceive+0x64>
	...

08004ad4 <vQueueAddToRegistry>:
 8004ad4:	b510      	push	{r4, lr}
 8004ad6:	4a07      	ldr	r2, [pc, #28]	; (8004af4 <vQueueAddToRegistry+0x20>)
 8004ad8:	2300      	movs	r3, #0
 8004ada:	f852 4033 	ldr.w	r4, [r2, r3, lsl #3]
 8004ade:	b92c      	cbnz	r4, 8004aec <vQueueAddToRegistry+0x18>
 8004ae0:	f842 1033 	str.w	r1, [r2, r3, lsl #3]
 8004ae4:	eb02 03c3 	add.w	r3, r2, r3, lsl #3
 8004ae8:	6058      	str	r0, [r3, #4]
 8004aea:	bd10      	pop	{r4, pc}
 8004aec:	3301      	adds	r3, #1
 8004aee:	2b08      	cmp	r3, #8
 8004af0:	d1f3      	bne.n	8004ada <vQueueAddToRegistry+0x6>
 8004af2:	e7fa      	b.n	8004aea <vQueueAddToRegistry+0x16>
 8004af4:	20000990 	.word	0x20000990

08004af8 <vQueueWaitForMessageRestricted>:
 8004af8:	b570      	push	{r4, r5, r6, lr}
 8004afa:	4604      	mov	r4, r0
 8004afc:	460d      	mov	r5, r1
 8004afe:	4616      	mov	r6, r2
 8004b00:	f001 fb58 	bl	80061b4 <vPortEnterCritical>
 8004b04:	f894 3044 	ldrb.w	r3, [r4, #68]	; 0x44
 8004b08:	2bff      	cmp	r3, #255	; 0xff
 8004b0a:	bf04      	itt	eq
 8004b0c:	2300      	moveq	r3, #0
 8004b0e:	f884 3044 	strbeq.w	r3, [r4, #68]	; 0x44
 8004b12:	f894 3045 	ldrb.w	r3, [r4, #69]	; 0x45
 8004b16:	2bff      	cmp	r3, #255	; 0xff
 8004b18:	bf04      	itt	eq
 8004b1a:	2300      	moveq	r3, #0
 8004b1c:	f884 3045 	strbeq.w	r3, [r4, #69]	; 0x45
 8004b20:	f001 fb68 	bl	80061f4 <vPortExitCritical>
 8004b24:	6ba3      	ldr	r3, [r4, #56]	; 0x38
 8004b26:	b92b      	cbnz	r3, 8004b34 <vQueueWaitForMessageRestricted+0x3c>
 8004b28:	4632      	mov	r2, r6
 8004b2a:	4629      	mov	r1, r5
 8004b2c:	f104 0024 	add.w	r0, r4, #36	; 0x24
 8004b30:	f000 fe56 	bl	80057e0 <vTaskPlaceOnEventListRestricted>
 8004b34:	4620      	mov	r0, r4
 8004b36:	e8bd 4070 	ldmia.w	sp!, {r4, r5, r6, lr}
 8004b3a:	f7ff bd2a 	b.w	8004592 <prvUnlockQueue>

08004b3e <prvBytesInBuffer>:
 8004b3e:	6882      	ldr	r2, [r0, #8]
 8004b40:	6843      	ldr	r3, [r0, #4]
 8004b42:	6800      	ldr	r0, [r0, #0]
 8004b44:	4413      	add	r3, r2
 8004b46:	1a18      	subs	r0, r3, r0
 8004b48:	4282      	cmp	r2, r0
 8004b4a:	bf98      	it	ls
 8004b4c:	1a80      	subls	r0, r0, r2
 8004b4e:	4770      	bx	lr

08004b50 <prvReadBytesFromBuffer>:
 8004b50:	4293      	cmp	r3, r2
 8004b52:	e92d 43f8 	stmdb	sp!, {r3, r4, r5, r6, r7, r8, r9, lr}
 8004b56:	bf28      	it	cs
 8004b58:	4613      	movcs	r3, r2
 8004b5a:	4606      	mov	r6, r0
 8004b5c:	4689      	mov	r9, r1
 8004b5e:	4690      	mov	r8, r2
 8004b60:	461c      	mov	r4, r3
 8004b62:	2b00      	cmp	r3, #0
 8004b64:	d03b      	beq.n	8004bde <prvReadBytesFromBuffer+0x8e>
 8004b66:	6805      	ldr	r5, [r0, #0]
 8004b68:	6883      	ldr	r3, [r0, #8]
 8004b6a:	1b5f      	subs	r7, r3, r5
 8004b6c:	42a7      	cmp	r7, r4
 8004b6e:	bf28      	it	cs
 8004b70:	4627      	movcs	r7, r4
 8004b72:	42ba      	cmp	r2, r7
 8004b74:	d208      	bcs.n	8004b88 <prvReadBytesFromBuffer+0x38>
 8004b76:	f04f 0350 	mov.w	r3, #80	; 0x50
 8004b7a:	f383 8811 	msr	BASEPRI, r3
 8004b7e:	f3bf 8f6f 	isb	sy
 8004b82:	f3bf 8f4f 	dsb	sy
 8004b86:	e7fe      	b.n	8004b86 <prvReadBytesFromBuffer+0x36>
 8004b88:	19ea      	adds	r2, r5, r7
 8004b8a:	4293      	cmp	r3, r2
 8004b8c:	d208      	bcs.n	8004ba0 <prvReadBytesFromBuffer+0x50>
 8004b8e:	f04f 0350 	mov.w	r3, #80	; 0x50
 8004b92:	f383 8811 	msr	BASEPRI, r3
 8004b96:	f3bf 8f6f 	isb	sy
 8004b9a:	f3bf 8f4f 	dsb	sy
 8004b9e:	e7fe      	b.n	8004b9e <prvReadBytesFromBuffer+0x4e>
 8004ba0:	6981      	ldr	r1, [r0, #24]
 8004ba2:	463a      	mov	r2, r7
 8004ba4:	4429      	add	r1, r5
 8004ba6:	4648      	mov	r0, r9
 8004ba8:	f002 fde0 	bl	800776c <memcpy>
 8004bac:	42bc      	cmp	r4, r7
 8004bae:	d910      	bls.n	8004bd2 <prvReadBytesFromBuffer+0x82>
 8004bb0:	45a0      	cmp	r8, r4
 8004bb2:	d208      	bcs.n	8004bc6 <prvReadBytesFromBuffer+0x76>
 8004bb4:	f04f 0350 	mov.w	r3, #80	; 0x50
 8004bb8:	f383 8811 	msr	BASEPRI, r3
 8004bbc:	f3bf 8f6f 	isb	sy
 8004bc0:	f3bf 8f4f 	dsb	sy
 8004bc4:	e7fe      	b.n	8004bc4 <prvReadBytesFromBuffer+0x74>
 8004bc6:	69b1      	ldr	r1, [r6, #24]
 8004bc8:	1be2      	subs	r2, r4, r7
 8004bca:	eb09 0007 	add.w	r0, r9, r7
 8004bce:	f002 fdcd 	bl	800776c <memcpy>
 8004bd2:	68b3      	ldr	r3, [r6, #8]
 8004bd4:	4425      	add	r5, r4
 8004bd6:	42ab      	cmp	r3, r5
 8004bd8:	bf98      	it	ls
 8004bda:	1aed      	subls	r5, r5, r3
 8004bdc:	6035      	str	r5, [r6, #0]
 8004bde:	4620      	mov	r0, r4
 8004be0:	e8bd 83f8 	ldmia.w	sp!, {r3, r4, r5, r6, r7, r8, r9, pc}

08004be4 <prvInitialiseNewStreamBuffer>:
 8004be4:	e92d 41f0 	stmdb	sp!, {r4, r5, r6, r7, r8, lr}
 8004be8:	460e      	mov	r6, r1
 8004bea:	4604      	mov	r4, r0
 8004bec:	2155      	movs	r1, #85	; 0x55
 8004bee:	4630      	mov	r0, r6
 8004bf0:	4690      	mov	r8, r2
 8004bf2:	461f      	mov	r7, r3
 8004bf4:	f002 fdc8 	bl	8007788 <memset>
 8004bf8:	42b0      	cmp	r0, r6
 8004bfa:	4605      	mov	r5, r0
 8004bfc:	d008      	beq.n	8004c10 <prvInitialiseNewStreamBuffer+0x2c>
 8004bfe:	f04f 0350 	mov.w	r3, #80	; 0x50
 8004c02:	f383 8811 	msr	BASEPRI, r3
 8004c06:	f3bf 8f6f 	isb	sy
 8004c0a:	f3bf 8f4f 	dsb	sy
 8004c0e:	e7fe      	b.n	8004c0e <prvInitialiseNewStreamBuffer+0x2a>
 8004c10:	2224      	movs	r2, #36	; 0x24
 8004c12:	2100      	movs	r1, #0
 8004c14:	4620      	mov	r0, r4
 8004c16:	f002 fdb7 	bl	8007788 <memset>
 8004c1a:	f89d 3018 	ldrb.w	r3, [sp, #24]
 8004c1e:	61a5      	str	r5, [r4, #24]
 8004c20:	e9c4 8702 	strd	r8, r7, [r4, #8]
 8004c24:	7723      	strb	r3, [r4, #28]
 8004c26:	e8bd 81f0 	ldmia.w	sp!, {r4, r5, r6, r7, r8, pc}

08004c2a <prvWriteBytesToBuffer.part.0>:
 8004c2a:	e92d 41f0 	stmdb	sp!, {r4, r5, r6, r7, r8, lr}
 8004c2e:	6883      	ldr	r3, [r0, #8]
 8004c30:	6845      	ldr	r5, [r0, #4]
 8004c32:	1b5f      	subs	r7, r3, r5
 8004c34:	4297      	cmp	r7, r2
 8004c36:	bf28      	it	cs
 8004c38:	4617      	movcs	r7, r2
 8004c3a:	4616      	mov	r6, r2
 8004c3c:	19ea      	adds	r2, r5, r7
 8004c3e:	4293      	cmp	r3, r2
 8004c40:	4604      	mov	r4, r0
 8004c42:	4688      	mov	r8, r1
 8004c44:	d208      	bcs.n	8004c58 <prvWriteBytesToBuffer.part.0+0x2e>
 8004c46:	f04f 0350 	mov.w	r3, #80	; 0x50
 8004c4a:	f383 8811 	msr	BASEPRI, r3
 8004c4e:	f3bf 8f6f 	isb	sy
 8004c52:	f3bf 8f4f 	dsb	sy
 8004c56:	e7fe      	b.n	8004c56 <prvWriteBytesToBuffer.part.0+0x2c>
 8004c58:	6980      	ldr	r0, [r0, #24]
 8004c5a:	463a      	mov	r2, r7
 8004c5c:	4428      	add	r0, r5
 8004c5e:	f002 fd85 	bl	800776c <memcpy>
 8004c62:	42be      	cmp	r6, r7
 8004c64:	d911      	bls.n	8004c8a <prvWriteBytesToBuffer.part.0+0x60>
 8004c66:	68a3      	ldr	r3, [r4, #8]
 8004c68:	1bf2      	subs	r2, r6, r7
 8004c6a:	429a      	cmp	r2, r3
 8004c6c:	d908      	bls.n	8004c80 <prvWriteBytesToBuffer.part.0+0x56>
 8004c6e:	f04f 0350 	mov.w	r3, #80	; 0x50
 8004c72:	f383 8811 	msr	BASEPRI, r3
 8004c76:	f3bf 8f6f 	isb	sy
 8004c7a:	f3bf 8f4f 	dsb	sy
 8004c7e:	e7fe      	b.n	8004c7e <prvWriteBytesToBuffer.part.0+0x54>
 8004c80:	69a0      	ldr	r0, [r4, #24]
 8004c82:	eb08 0107 	add.w	r1, r8, r7
 8004c86:	f002 fd71 	bl	800776c <memcpy>
 8004c8a:	68a3      	ldr	r3, [r4, #8]
 8004c8c:	4435      	add	r5, r6
 8004c8e:	429d      	cmp	r5, r3
 8004c90:	bf28      	it	cs
 8004c92:	1aed      	subcs	r5, r5, r3
 8004c94:	6065      	str	r5, [r4, #4]
 8004c96:	4630      	mov	r0, r6
 8004c98:	e8bd 81f0 	ldmia.w	sp!, {r4, r5, r6, r7, r8, pc}

08004c9c <prvWriteMessageToBuffer>:
 8004c9c:	b537      	push	{r0, r1, r2, r4, r5, lr}
 8004c9e:	4604      	mov	r4, r0
 8004ca0:	460d      	mov	r5, r1
 8004ca2:	9201      	str	r2, [sp, #4]
 8004ca4:	b1fb      	cbz	r3, 8004ce6 <prvWriteMessageToBuffer+0x4a>
 8004ca6:	7f01      	ldrb	r1, [r0, #28]
 8004ca8:	07c9      	lsls	r1, r1, #31
 8004caa:	d40e      	bmi.n	8004cca <prvWriteMessageToBuffer+0x2e>
 8004cac:	429a      	cmp	r2, r3
 8004cae:	bf94      	ite	ls
 8004cb0:	9201      	strls	r2, [sp, #4]
 8004cb2:	9301      	strhi	r3, [sp, #4]
 8004cb4:	9a01      	ldr	r2, [sp, #4]
 8004cb6:	b98a      	cbnz	r2, 8004cdc <prvWriteMessageToBuffer+0x40>
 8004cb8:	f04f 0350 	mov.w	r3, #80	; 0x50
 8004cbc:	f383 8811 	msr	BASEPRI, r3
 8004cc0:	f3bf 8f6f 	isb	sy
 8004cc4:	f3bf 8f4f 	dsb	sy
 8004cc8:	e7fe      	b.n	8004cc8 <prvWriteMessageToBuffer+0x2c>
 8004cca:	9a06      	ldr	r2, [sp, #24]
 8004ccc:	4293      	cmp	r3, r2
 8004cce:	d30d      	bcc.n	8004cec <prvWriteMessageToBuffer+0x50>
 8004cd0:	2204      	movs	r2, #4
 8004cd2:	eb0d 0102 	add.w	r1, sp, r2
 8004cd6:	f7ff ffa8 	bl	8004c2a <prvWriteBytesToBuffer.part.0>
 8004cda:	e7eb      	b.n	8004cb4 <prvWriteMessageToBuffer+0x18>
 8004cdc:	4629      	mov	r1, r5
 8004cde:	4620      	mov	r0, r4
 8004ce0:	f7ff ffa3 	bl	8004c2a <prvWriteBytesToBuffer.part.0>
 8004ce4:	4603      	mov	r3, r0
 8004ce6:	4618      	mov	r0, r3
 8004ce8:	b003      	add	sp, #12
 8004cea:	bd30      	pop	{r4, r5, pc}
 8004cec:	2300      	movs	r3, #0
 8004cee:	e7fa      	b.n	8004ce6 <prvWriteMessageToBuffer+0x4a>

08004cf0 <xStreamBufferGenericCreateStatic>:
 8004cf0:	b530      	push	{r4, r5, lr}
 8004cf2:	b085      	sub	sp, #20
 8004cf4:	460d      	mov	r5, r1
 8004cf6:	9c08      	ldr	r4, [sp, #32]
 8004cf8:	4619      	mov	r1, r3
 8004cfa:	b943      	cbnz	r3, 8004d0e <xStreamBufferGenericCreateStatic+0x1e>
 8004cfc:	f04f 0350 	mov.w	r3, #80	; 0x50
 8004d00:	f383 8811 	msr	BASEPRI, r3
 8004d04:	f3bf 8f6f 	isb	sy
 8004d08:	f3bf 8f4f 	dsb	sy
 8004d0c:	e7fe      	b.n	8004d0c <xStreamBufferGenericCreateStatic+0x1c>
 8004d0e:	b944      	cbnz	r4, 8004d22 <xStreamBufferGenericCreateStatic+0x32>
 8004d10:	f04f 0350 	mov.w	r3, #80	; 0x50
 8004d14:	f383 8811 	msr	BASEPRI, r3
 8004d18:	f3bf 8f6f 	isb	sy
 8004d1c:	f3bf 8f4f 	dsb	sy
 8004d20:	e7fe      	b.n	8004d20 <xStreamBufferGenericCreateStatic+0x30>
 8004d22:	4285      	cmp	r5, r0
 8004d24:	d908      	bls.n	8004d38 <xStreamBufferGenericCreateStatic+0x48>
 8004d26:	f04f 0350 	mov.w	r3, #80	; 0x50
 8004d2a:	f383 8811 	msr	BASEPRI, r3
 8004d2e:	f3bf 8f6f 	isb	sy
 8004d32:	f3bf 8f4f 	dsb	sy
 8004d36:	e7fe      	b.n	8004d36 <xStreamBufferGenericCreateStatic+0x46>
 8004d38:	2a00      	cmp	r2, #0
 8004d3a:	bf14      	ite	ne
 8004d3c:	2303      	movne	r3, #3
 8004d3e:	2302      	moveq	r3, #2
 8004d40:	2804      	cmp	r0, #4
 8004d42:	d808      	bhi.n	8004d56 <xStreamBufferGenericCreateStatic+0x66>
 8004d44:	f04f 0350 	mov.w	r3, #80	; 0x50
 8004d48:	f383 8811 	msr	BASEPRI, r3
 8004d4c:	f3bf 8f6f 	isb	sy
 8004d50:	f3bf 8f4f 	dsb	sy
 8004d54:	e7fe      	b.n	8004d54 <xStreamBufferGenericCreateStatic+0x64>
 8004d56:	2224      	movs	r2, #36	; 0x24
 8004d58:	9203      	str	r2, [sp, #12]
 8004d5a:	9a03      	ldr	r2, [sp, #12]
 8004d5c:	2a24      	cmp	r2, #36	; 0x24
 8004d5e:	d008      	beq.n	8004d72 <xStreamBufferGenericCreateStatic+0x82>
 8004d60:	f04f 0350 	mov.w	r3, #80	; 0x50
 8004d64:	f383 8811 	msr	BASEPRI, r3
 8004d68:	f3bf 8f6f 	isb	sy
 8004d6c:	f3bf 8f4f 	dsb	sy
 8004d70:	e7fe      	b.n	8004d70 <xStreamBufferGenericCreateStatic+0x80>
 8004d72:	2d01      	cmp	r5, #1
 8004d74:	9300      	str	r3, [sp, #0]
 8004d76:	4602      	mov	r2, r0
 8004d78:	462b      	mov	r3, r5
 8004d7a:	4620      	mov	r0, r4
 8004d7c:	bf38      	it	cc
 8004d7e:	2301      	movcc	r3, #1
 8004d80:	f7ff ff30 	bl	8004be4 <prvInitialiseNewStreamBuffer>
 8004d84:	7f23      	ldrb	r3, [r4, #28]
 8004d86:	4620      	mov	r0, r4
 8004d88:	f043 0302 	orr.w	r3, r3, #2
 8004d8c:	7723      	strb	r3, [r4, #28]
 8004d8e:	b005      	add	sp, #20
 8004d90:	bd30      	pop	{r4, r5, pc}

08004d92 <xStreamBufferSpacesAvailable>:
 8004d92:	b940      	cbnz	r0, 8004da6 <xStreamBufferSpacesAvailable+0x14>
 8004d94:	f04f 0350 	mov.w	r3, #80	; 0x50
 8004d98:	f383 8811 	msr	BASEPRI, r3
 8004d9c:	f3bf 8f6f 	isb	sy
 8004da0:	f3bf 8f4f 	dsb	sy
 8004da4:	e7fe      	b.n	8004da4 <xStreamBufferSpacesAvailable+0x12>
 8004da6:	6882      	ldr	r2, [r0, #8]
 8004da8:	6803      	ldr	r3, [r0, #0]
 8004daa:	6841      	ldr	r1, [r0, #4]
 8004dac:	18d0      	adds	r0, r2, r3
 8004dae:	3801      	subs	r0, #1
 8004db0:	1a40      	subs	r0, r0, r1
 8004db2:	4282      	cmp	r2, r0
 8004db4:	bf98      	it	ls
 8004db6:	1a80      	subls	r0, r0, r2
 8004db8:	4770      	bx	lr

08004dba <xStreamBufferSend>:
 8004dba:	e92d 43f0 	stmdb	sp!, {r4, r5, r6, r7, r8, r9, lr}
 8004dbe:	b087      	sub	sp, #28
 8004dc0:	4604      	mov	r4, r0
 8004dc2:	4616      	mov	r6, r2
 8004dc4:	9303      	str	r3, [sp, #12]
 8004dc6:	4688      	mov	r8, r1
 8004dc8:	b941      	cbnz	r1, 8004ddc <xStreamBufferSend+0x22>
 8004dca:	f04f 0350 	mov.w	r3, #80	; 0x50
 8004dce:	f383 8811 	msr	BASEPRI, r3
 8004dd2:	f3bf 8f6f 	isb	sy
 8004dd6:	f3bf 8f4f 	dsb	sy
 8004dda:	e7fe      	b.n	8004dda <xStreamBufferSend+0x20>
 8004ddc:	b940      	cbnz	r0, 8004df0 <xStreamBufferSend+0x36>
 8004dde:	f04f 0350 	mov.w	r3, #80	; 0x50
 8004de2:	f383 8811 	msr	BASEPRI, r3
 8004de6:	f3bf 8f6f 	isb	sy
 8004dea:	f3bf 8f4f 	dsb	sy
 8004dee:	e7fe      	b.n	8004dee <xStreamBufferSend+0x34>
 8004df0:	7f03      	ldrb	r3, [r0, #28]
 8004df2:	07db      	lsls	r3, r3, #31
 8004df4:	d50c      	bpl.n	8004e10 <xStreamBufferSend+0x56>
 8004df6:	f102 0904 	add.w	r9, r2, #4
 8004dfa:	454a      	cmp	r2, r9
 8004dfc:	d309      	bcc.n	8004e12 <xStreamBufferSend+0x58>
 8004dfe:	f04f 0350 	mov.w	r3, #80	; 0x50
 8004e02:	f383 8811 	msr	BASEPRI, r3
 8004e06:	f3bf 8f6f 	isb	sy
 8004e0a:	f3bf 8f4f 	dsb	sy
 8004e0e:	e7fe      	b.n	8004e0e <xStreamBufferSend+0x54>
 8004e10:	4691      	mov	r9, r2
 8004e12:	9b03      	ldr	r3, [sp, #12]
 8004e14:	bb2b      	cbnz	r3, 8004e62 <xStreamBufferSend+0xa8>
 8004e16:	4620      	mov	r0, r4
 8004e18:	f7ff ffbb 	bl	8004d92 <xStreamBufferSpacesAvailable>
 8004e1c:	4605      	mov	r5, r0
 8004e1e:	462b      	mov	r3, r5
 8004e20:	f8cd 9000 	str.w	r9, [sp]
 8004e24:	4632      	mov	r2, r6
 8004e26:	4641      	mov	r1, r8
 8004e28:	4620      	mov	r0, r4
 8004e2a:	f7ff ff37 	bl	8004c9c <prvWriteMessageToBuffer>
 8004e2e:	4605      	mov	r5, r0
 8004e30:	b198      	cbz	r0, 8004e5a <xStreamBufferSend+0xa0>
 8004e32:	4620      	mov	r0, r4
 8004e34:	f7ff fe83 	bl	8004b3e <prvBytesInBuffer>
 8004e38:	68e3      	ldr	r3, [r4, #12]
 8004e3a:	4298      	cmp	r0, r3
 8004e3c:	d30d      	bcc.n	8004e5a <xStreamBufferSend+0xa0>
 8004e3e:	f000 fb39 	bl	80054b4 <vTaskSuspendAll>
 8004e42:	6923      	ldr	r3, [r4, #16]
 8004e44:	b13b      	cbz	r3, 8004e56 <xStreamBufferSend+0x9c>
 8004e46:	2300      	movs	r3, #0
 8004e48:	461a      	mov	r2, r3
 8004e4a:	4619      	mov	r1, r3
 8004e4c:	6920      	ldr	r0, [r4, #16]
 8004e4e:	f000 fe37 	bl	8005ac0 <xTaskGenericNotify>
 8004e52:	2300      	movs	r3, #0
 8004e54:	6123      	str	r3, [r4, #16]
 8004e56:	f000 fbd1 	bl	80055fc <xTaskResumeAll>
 8004e5a:	4628      	mov	r0, r5
 8004e5c:	b007      	add	sp, #28
 8004e5e:	e8bd 83f0 	ldmia.w	sp!, {r4, r5, r6, r7, r8, r9, pc}
 8004e62:	a804      	add	r0, sp, #16
 8004e64:	f000 fd1e 	bl	80058a4 <vTaskSetTimeOutState>
 8004e68:	f001 f9a4 	bl	80061b4 <vPortEnterCritical>
 8004e6c:	4620      	mov	r0, r4
 8004e6e:	f7ff ff90 	bl	8004d92 <xStreamBufferSpacesAvailable>
 8004e72:	4581      	cmp	r9, r0
 8004e74:	4605      	mov	r5, r0
 8004e76:	d922      	bls.n	8004ebe <xStreamBufferSend+0x104>
 8004e78:	2000      	movs	r0, #0
 8004e7a:	f000 ff2d 	bl	8005cd8 <xTaskNotifyStateClear>
 8004e7e:	6967      	ldr	r7, [r4, #20]
 8004e80:	b147      	cbz	r7, 8004e94 <xStreamBufferSend+0xda>
 8004e82:	f04f 0350 	mov.w	r3, #80	; 0x50
 8004e86:	f383 8811 	msr	BASEPRI, r3
 8004e8a:	f3bf 8f6f 	isb	sy
 8004e8e:	f3bf 8f4f 	dsb	sy
 8004e92:	e7fe      	b.n	8004e92 <xStreamBufferSend+0xd8>
 8004e94:	f000 fd70 	bl	8005978 <xTaskGetCurrentTaskHandle>
 8004e98:	6160      	str	r0, [r4, #20]
 8004e9a:	f001 f9ab 	bl	80061f4 <vPortExitCritical>
 8004e9e:	4639      	mov	r1, r7
 8004ea0:	9b03      	ldr	r3, [sp, #12]
 8004ea2:	463a      	mov	r2, r7
 8004ea4:	4638      	mov	r0, r7
 8004ea6:	f000 fdc1 	bl	8005a2c <xTaskNotifyWait>
 8004eaa:	6167      	str	r7, [r4, #20]
 8004eac:	a903      	add	r1, sp, #12
 8004eae:	a804      	add	r0, sp, #16
 8004eb0:	f000 fd20 	bl	80058f4 <xTaskCheckForTimeOut>
 8004eb4:	2800      	cmp	r0, #0
 8004eb6:	d0d7      	beq.n	8004e68 <xStreamBufferSend+0xae>
 8004eb8:	2d00      	cmp	r5, #0
 8004eba:	d0ac      	beq.n	8004e16 <xStreamBufferSend+0x5c>
 8004ebc:	e7af      	b.n	8004e1e <xStreamBufferSend+0x64>
 8004ebe:	f001 f999 	bl	80061f4 <vPortExitCritical>
 8004ec2:	e7f9      	b.n	8004eb8 <xStreamBufferSend+0xfe>

08004ec4 <xStreamBufferSendFromISR>:
 8004ec4:	e92d 41f3 	stmdb	sp!, {r0, r1, r4, r5, r6, r7, r8, lr}
 8004ec8:	4604      	mov	r4, r0
 8004eca:	4615      	mov	r5, r2
 8004ecc:	461f      	mov	r7, r3
 8004ece:	460e      	mov	r6, r1
 8004ed0:	b941      	cbnz	r1, 8004ee4 <xStreamBufferSendFromISR+0x20>
 8004ed2:	f04f 0350 	mov.w	r3, #80	; 0x50
 8004ed6:	f383 8811 	msr	BASEPRI, r3
 8004eda:	f3bf 8f6f 	isb	sy
 8004ede:	f3bf 8f4f 	dsb	sy
 8004ee2:	e7fe      	b.n	8004ee2 <xStreamBufferSendFromISR+0x1e>
 8004ee4:	b940      	cbnz	r0, 8004ef8 <xStreamBufferSendFromISR+0x34>
 8004ee6:	f04f 0350 	mov.w	r3, #80	; 0x50
 8004eea:	f383 8811 	msr	BASEPRI, r3
 8004eee:	f3bf 8f6f 	isb	sy
 8004ef2:	f3bf 8f4f 	dsb	sy
 8004ef6:	e7fe      	b.n	8004ef6 <xStreamBufferSendFromISR+0x32>
 8004ef8:	7f03      	ldrb	r3, [r0, #28]
 8004efa:	07db      	lsls	r3, r3, #31
 8004efc:	bf4c      	ite	mi
 8004efe:	f102 0804 	addmi.w	r8, r2, #4
 8004f02:	4690      	movpl	r8, r2
 8004f04:	f7ff ff45 	bl	8004d92 <xStreamBufferSpacesAvailable>
 8004f08:	462a      	mov	r2, r5
 8004f0a:	4603      	mov	r3, r0
 8004f0c:	f8cd 8000 	str.w	r8, [sp]
 8004f10:	4631      	mov	r1, r6
 8004f12:	4620      	mov	r0, r4
 8004f14:	f7ff fec2 	bl	8004c9c <prvWriteMessageToBuffer>
 8004f18:	4605      	mov	r5, r0
 8004f1a:	b1e0      	cbz	r0, 8004f56 <xStreamBufferSendFromISR+0x92>
 8004f1c:	4620      	mov	r0, r4
 8004f1e:	f7ff fe0e 	bl	8004b3e <prvBytesInBuffer>
 8004f22:	68e3      	ldr	r3, [r4, #12]
 8004f24:	4298      	cmp	r0, r3
 8004f26:	d316      	bcc.n	8004f56 <xStreamBufferSendFromISR+0x92>
 8004f28:	f3ef 8611 	mrs	r6, BASEPRI
 8004f2c:	f04f 0350 	mov.w	r3, #80	; 0x50
 8004f30:	f383 8811 	msr	BASEPRI, r3
 8004f34:	f3bf 8f6f 	isb	sy
 8004f38:	f3bf 8f4f 	dsb	sy
 8004f3c:	6923      	ldr	r3, [r4, #16]
 8004f3e:	b143      	cbz	r3, 8004f52 <xStreamBufferSendFromISR+0x8e>
 8004f40:	2300      	movs	r3, #0
 8004f42:	461a      	mov	r2, r3
 8004f44:	4619      	mov	r1, r3
 8004f46:	6920      	ldr	r0, [r4, #16]
 8004f48:	9700      	str	r7, [sp, #0]
 8004f4a:	f000 fe33 	bl	8005bb4 <xTaskGenericNotifyFromISR>
 8004f4e:	2300      	movs	r3, #0
 8004f50:	6123      	str	r3, [r4, #16]
 8004f52:	f386 8811 	msr	BASEPRI, r6
 8004f56:	4628      	mov	r0, r5
 8004f58:	b002      	add	sp, #8
 8004f5a:	e8bd 81f0 	ldmia.w	sp!, {r4, r5, r6, r7, r8, pc}

08004f5e <xStreamBufferReceive>:
 8004f5e:	e92d 43f7 	stmdb	sp!, {r0, r1, r2, r4, r5, r6, r7, r8, r9, lr}
 8004f62:	4604      	mov	r4, r0
 8004f64:	4616      	mov	r6, r2
 8004f66:	4699      	mov	r9, r3
 8004f68:	4688      	mov	r8, r1
 8004f6a:	b941      	cbnz	r1, 8004f7e <xStreamBufferReceive+0x20>
 8004f6c:	f04f 0350 	mov.w	r3, #80	; 0x50
 8004f70:	f383 8811 	msr	BASEPRI, r3
 8004f74:	f3bf 8f6f 	isb	sy
 8004f78:	f3bf 8f4f 	dsb	sy
 8004f7c:	e7fe      	b.n	8004f7c <xStreamBufferReceive+0x1e>
 8004f7e:	b940      	cbnz	r0, 8004f92 <xStreamBufferReceive+0x34>
 8004f80:	f04f 0350 	mov.w	r3, #80	; 0x50
 8004f84:	f383 8811 	msr	BASEPRI, r3
 8004f88:	f3bf 8f6f 	isb	sy
 8004f8c:	f3bf 8f4f 	dsb	sy
 8004f90:	e7fe      	b.n	8004f90 <xStreamBufferReceive+0x32>
 8004f92:	7f03      	ldrb	r3, [r0, #28]
 8004f94:	f013 0f01 	tst.w	r3, #1
 8004f98:	bf14      	ite	ne
 8004f9a:	2704      	movne	r7, #4
 8004f9c:	2700      	moveq	r7, #0
 8004f9e:	f1b9 0f00 	cmp.w	r9, #0
 8004fa2:	d025      	beq.n	8004ff0 <xStreamBufferReceive+0x92>
 8004fa4:	f001 f906 	bl	80061b4 <vPortEnterCritical>
 8004fa8:	4620      	mov	r0, r4
 8004faa:	f7ff fdc8 	bl	8004b3e <prvBytesInBuffer>
 8004fae:	4287      	cmp	r7, r0
 8004fb0:	4605      	mov	r5, r0
 8004fb2:	d310      	bcc.n	8004fd6 <xStreamBufferReceive+0x78>
 8004fb4:	2000      	movs	r0, #0
 8004fb6:	f000 fe8f 	bl	8005cd8 <xTaskNotifyStateClear>
 8004fba:	6923      	ldr	r3, [r4, #16]
 8004fbc:	b143      	cbz	r3, 8004fd0 <xStreamBufferReceive+0x72>
 8004fbe:	f04f 0350 	mov.w	r3, #80	; 0x50
 8004fc2:	f383 8811 	msr	BASEPRI, r3
 8004fc6:	f3bf 8f6f 	isb	sy
 8004fca:	f3bf 8f4f 	dsb	sy
 8004fce:	e7fe      	b.n	8004fce <xStreamBufferReceive+0x70>
 8004fd0:	f000 fcd2 	bl	8005978 <xTaskGetCurrentTaskHandle>
 8004fd4:	6120      	str	r0, [r4, #16]
 8004fd6:	f001 f90d 	bl	80061f4 <vPortExitCritical>
 8004fda:	42af      	cmp	r7, r5
 8004fdc:	d312      	bcc.n	8005004 <xStreamBufferReceive+0xa6>
 8004fde:	2200      	movs	r2, #0
 8004fe0:	464b      	mov	r3, r9
 8004fe2:	4611      	mov	r1, r2
 8004fe4:	4610      	mov	r0, r2
 8004fe6:	f000 fd21 	bl	8005a2c <xTaskNotifyWait>
 8004fea:	2300      	movs	r3, #0
 8004fec:	6123      	str	r3, [r4, #16]
 8004fee:	4620      	mov	r0, r4
 8004ff0:	f7ff fda5 	bl	8004b3e <prvBytesInBuffer>
 8004ff4:	42b8      	cmp	r0, r7
 8004ff6:	4605      	mov	r5, r0
 8004ff8:	d804      	bhi.n	8005004 <xStreamBufferReceive+0xa6>
 8004ffa:	2500      	movs	r5, #0
 8004ffc:	4628      	mov	r0, r5
 8004ffe:	b003      	add	sp, #12
 8005000:	e8bd 83f0 	ldmia.w	sp!, {r4, r5, r6, r7, r8, r9, pc}
 8005004:	b187      	cbz	r7, 8005028 <xStreamBufferReceive+0xca>
 8005006:	462b      	mov	r3, r5
 8005008:	463a      	mov	r2, r7
 800500a:	a901      	add	r1, sp, #4
 800500c:	4620      	mov	r0, r4
 800500e:	f8d4 9000 	ldr.w	r9, [r4]
 8005012:	f7ff fd9d 	bl	8004b50 <prvReadBytesFromBuffer>
 8005016:	9b01      	ldr	r3, [sp, #4]
 8005018:	429e      	cmp	r6, r3
 800501a:	eba5 0507 	sub.w	r5, r5, r7
 800501e:	bf3a      	itte	cc
 8005020:	f8c4 9000 	strcc.w	r9, [r4]
 8005024:	2600      	movcc	r6, #0
 8005026:	461e      	movcs	r6, r3
 8005028:	462b      	mov	r3, r5
 800502a:	4632      	mov	r2, r6
 800502c:	4641      	mov	r1, r8
 800502e:	4620      	mov	r0, r4
 8005030:	f7ff fd8e 	bl	8004b50 <prvReadBytesFromBuffer>
 8005034:	4605      	mov	r5, r0
 8005036:	2800      	cmp	r0, #0
 8005038:	d0df      	beq.n	8004ffa <xStreamBufferReceive+0x9c>
 800503a:	f000 fa3b 	bl	80054b4 <vTaskSuspendAll>
 800503e:	6963      	ldr	r3, [r4, #20]
 8005040:	b13b      	cbz	r3, 8005052 <xStreamBufferReceive+0xf4>
 8005042:	2300      	movs	r3, #0
 8005044:	461a      	mov	r2, r3
 8005046:	4619      	mov	r1, r3
 8005048:	6960      	ldr	r0, [r4, #20]
 800504a:	f000 fd39 	bl	8005ac0 <xTaskGenericNotify>
 800504e:	2300      	movs	r3, #0
 8005050:	6163      	str	r3, [r4, #20]
 8005052:	f000 fad3 	bl	80055fc <xTaskResumeAll>
 8005056:	e7d1      	b.n	8004ffc <xStreamBufferReceive+0x9e>

08005058 <prvAddNewTaskToReadyList>:
 8005058:	e92d 41f0 	stmdb	sp!, {r4, r5, r6, r7, r8, lr}
 800505c:	4604      	mov	r4, r0
 800505e:	f001 f8a9 	bl	80061b4 <vPortEnterCritical>
 8005062:	4b30      	ldr	r3, [pc, #192]	; (8005124 <prvAddNewTaskToReadyList+0xcc>)
 8005064:	4e30      	ldr	r6, [pc, #192]	; (8005128 <prvAddNewTaskToReadyList+0xd0>)
 8005066:	681a      	ldr	r2, [r3, #0]
 8005068:	4f30      	ldr	r7, [pc, #192]	; (800512c <prvAddNewTaskToReadyList+0xd4>)
 800506a:	3201      	adds	r2, #1
 800506c:	601a      	str	r2, [r3, #0]
 800506e:	6835      	ldr	r5, [r6, #0]
 8005070:	2d00      	cmp	r5, #0
 8005072:	d14b      	bne.n	800510c <prvAddNewTaskToReadyList+0xb4>
 8005074:	6034      	str	r4, [r6, #0]
 8005076:	681b      	ldr	r3, [r3, #0]
 8005078:	2b01      	cmp	r3, #1
 800507a:	d11f      	bne.n	80050bc <prvAddNewTaskToReadyList+0x64>
 800507c:	46b8      	mov	r8, r7
 800507e:	4640      	mov	r0, r8
 8005080:	3501      	adds	r5, #1
 8005082:	f7ff f9ef 	bl	8004464 <vListInitialise>
 8005086:	2d38      	cmp	r5, #56	; 0x38
 8005088:	f108 0814 	add.w	r8, r8, #20
 800508c:	d1f7      	bne.n	800507e <prvAddNewTaskToReadyList+0x26>
 800508e:	f8df 80c4 	ldr.w	r8, [pc, #196]	; 8005154 <prvAddNewTaskToReadyList+0xfc>
 8005092:	4d27      	ldr	r5, [pc, #156]	; (8005130 <prvAddNewTaskToReadyList+0xd8>)
 8005094:	4640      	mov	r0, r8
 8005096:	f7ff f9e5 	bl	8004464 <vListInitialise>
 800509a:	4628      	mov	r0, r5
 800509c:	f7ff f9e2 	bl	8004464 <vListInitialise>
 80050a0:	4824      	ldr	r0, [pc, #144]	; (8005134 <prvAddNewTaskToReadyList+0xdc>)
 80050a2:	f7ff f9df 	bl	8004464 <vListInitialise>
 80050a6:	4824      	ldr	r0, [pc, #144]	; (8005138 <prvAddNewTaskToReadyList+0xe0>)
 80050a8:	f7ff f9dc 	bl	8004464 <vListInitialise>
 80050ac:	4823      	ldr	r0, [pc, #140]	; (800513c <prvAddNewTaskToReadyList+0xe4>)
 80050ae:	f7ff f9d9 	bl	8004464 <vListInitialise>
 80050b2:	4b23      	ldr	r3, [pc, #140]	; (8005140 <prvAddNewTaskToReadyList+0xe8>)
 80050b4:	f8c3 8000 	str.w	r8, [r3]
 80050b8:	4b22      	ldr	r3, [pc, #136]	; (8005144 <prvAddNewTaskToReadyList+0xec>)
 80050ba:	601d      	str	r5, [r3, #0]
 80050bc:	4a22      	ldr	r2, [pc, #136]	; (8005148 <prvAddNewTaskToReadyList+0xf0>)
 80050be:	6813      	ldr	r3, [r2, #0]
 80050c0:	3301      	adds	r3, #1
 80050c2:	6013      	str	r3, [r2, #0]
 80050c4:	4a21      	ldr	r2, [pc, #132]	; (800514c <prvAddNewTaskToReadyList+0xf4>)
 80050c6:	6463      	str	r3, [r4, #68]	; 0x44
 80050c8:	6811      	ldr	r1, [r2, #0]
 80050ca:	6ae3      	ldr	r3, [r4, #44]	; 0x2c
 80050cc:	2014      	movs	r0, #20
 80050ce:	428b      	cmp	r3, r1
 80050d0:	fb00 7003 	mla	r0, r0, r3, r7
 80050d4:	f104 0104 	add.w	r1, r4, #4
 80050d8:	bf88      	it	hi
 80050da:	6013      	strhi	r3, [r2, #0]
 80050dc:	f7ff f9d0 	bl	8004480 <vListInsertEnd>
 80050e0:	f001 f888 	bl	80061f4 <vPortExitCritical>
 80050e4:	4b1a      	ldr	r3, [pc, #104]	; (8005150 <prvAddNewTaskToReadyList+0xf8>)
 80050e6:	681b      	ldr	r3, [r3, #0]
 80050e8:	b173      	cbz	r3, 8005108 <prvAddNewTaskToReadyList+0xb0>
 80050ea:	6833      	ldr	r3, [r6, #0]
 80050ec:	6ada      	ldr	r2, [r3, #44]	; 0x2c
 80050ee:	6ae3      	ldr	r3, [r4, #44]	; 0x2c
 80050f0:	429a      	cmp	r2, r3
 80050f2:	d209      	bcs.n	8005108 <prvAddNewTaskToReadyList+0xb0>
 80050f4:	f04f 23e0 	mov.w	r3, #3758153728	; 0xe000e000
 80050f8:	f04f 5280 	mov.w	r2, #268435456	; 0x10000000
 80050fc:	f8c3 2d04 	str.w	r2, [r3, #3332]	; 0xd04
 8005100:	f3bf 8f4f 	dsb	sy
 8005104:	f3bf 8f6f 	isb	sy
 8005108:	e8bd 81f0 	ldmia.w	sp!, {r4, r5, r6, r7, r8, pc}
 800510c:	4b10      	ldr	r3, [pc, #64]	; (8005150 <prvAddNewTaskToReadyList+0xf8>)
 800510e:	681b      	ldr	r3, [r3, #0]
 8005110:	2b00      	cmp	r3, #0
 8005112:	d1d3      	bne.n	80050bc <prvAddNewTaskToReadyList+0x64>
 8005114:	6833      	ldr	r3, [r6, #0]
 8005116:	6ada      	ldr	r2, [r3, #44]	; 0x2c
 8005118:	6ae3      	ldr	r3, [r4, #44]	; 0x2c
 800511a:	429a      	cmp	r2, r3
 800511c:	bf98      	it	ls
 800511e:	6034      	strls	r4, [r6, #0]
 8005120:	e7cc      	b.n	80050bc <prvAddNewTaskToReadyList+0x64>
 8005122:	bf00      	nop
 8005124:	20000e3c 	.word	0x20000e3c
 8005128:	200009d0 	.word	0x200009d0
 800512c:	200009dc 	.word	0x200009dc
 8005130:	20000e64 	.word	0x20000e64
 8005134:	20000e84 	.word	0x20000e84
 8005138:	20000eb0 	.word	0x20000eb0
 800513c:	20000e9c 	.word	0x20000e9c
 8005140:	200009d4 	.word	0x200009d4
 8005144:	200009d8 	.word	0x200009d8
 8005148:	20000e48 	.word	0x20000e48
 800514c:	20000e4c 	.word	0x20000e4c
 8005150:	20000e98 	.word	0x20000e98
 8005154:	20000e50 	.word	0x20000e50

08005158 <prvAddCurrentTaskToDelayedList>:
 8005158:	b5f8      	push	{r3, r4, r5, r6, r7, lr}
 800515a:	4b15      	ldr	r3, [pc, #84]	; (80051b0 <prvAddCurrentTaskToDelayedList+0x58>)
 800515c:	4e15      	ldr	r6, [pc, #84]	; (80051b4 <prvAddCurrentTaskToDelayedList+0x5c>)
 800515e:	681d      	ldr	r5, [r3, #0]
 8005160:	4604      	mov	r4, r0
 8005162:	6830      	ldr	r0, [r6, #0]
 8005164:	3004      	adds	r0, #4
 8005166:	460f      	mov	r7, r1
 8005168:	f7ff f9ad 	bl	80044c6 <uxListRemove>
 800516c:	1c63      	adds	r3, r4, #1
 800516e:	d107      	bne.n	8005180 <prvAddCurrentTaskToDelayedList+0x28>
 8005170:	b137      	cbz	r7, 8005180 <prvAddCurrentTaskToDelayedList+0x28>
 8005172:	6831      	ldr	r1, [r6, #0]
 8005174:	4810      	ldr	r0, [pc, #64]	; (80051b8 <prvAddCurrentTaskToDelayedList+0x60>)
 8005176:	e8bd 40f8 	ldmia.w	sp!, {r3, r4, r5, r6, r7, lr}
 800517a:	3104      	adds	r1, #4
 800517c:	f7ff b980 	b.w	8004480 <vListInsertEnd>
 8005180:	6833      	ldr	r3, [r6, #0]
 8005182:	192c      	adds	r4, r5, r4
 8005184:	605c      	str	r4, [r3, #4]
 8005186:	d307      	bcc.n	8005198 <prvAddCurrentTaskToDelayedList+0x40>
 8005188:	4b0c      	ldr	r3, [pc, #48]	; (80051bc <prvAddCurrentTaskToDelayedList+0x64>)
 800518a:	6818      	ldr	r0, [r3, #0]
 800518c:	6831      	ldr	r1, [r6, #0]
 800518e:	e8bd 40f8 	ldmia.w	sp!, {r3, r4, r5, r6, r7, lr}
 8005192:	3104      	adds	r1, #4
 8005194:	f7ff b980 	b.w	8004498 <vListInsert>
 8005198:	4b09      	ldr	r3, [pc, #36]	; (80051c0 <prvAddCurrentTaskToDelayedList+0x68>)
 800519a:	6818      	ldr	r0, [r3, #0]
 800519c:	6831      	ldr	r1, [r6, #0]
 800519e:	3104      	adds	r1, #4
 80051a0:	f7ff f97a 	bl	8004498 <vListInsert>
 80051a4:	4b07      	ldr	r3, [pc, #28]	; (80051c4 <prvAddCurrentTaskToDelayedList+0x6c>)
 80051a6:	681a      	ldr	r2, [r3, #0]
 80051a8:	42a2      	cmp	r2, r4
 80051aa:	bf88      	it	hi
 80051ac:	601c      	strhi	r4, [r3, #0]
 80051ae:	bdf8      	pop	{r3, r4, r5, r6, r7, pc}
 80051b0:	20000ec4 	.word	0x20000ec4
 80051b4:	200009d0 	.word	0x200009d0
 80051b8:	20000e9c 	.word	0x20000e9c
 80051bc:	200009d8 	.word	0x200009d8
 80051c0:	200009d4 	.word	0x200009d4
 80051c4:	20000e78 	.word	0x20000e78

080051c8 <prvResetNextTaskUnblockTime>:
 80051c8:	4a06      	ldr	r2, [pc, #24]	; (80051e4 <prvResetNextTaskUnblockTime+0x1c>)
 80051ca:	6813      	ldr	r3, [r2, #0]
 80051cc:	6819      	ldr	r1, [r3, #0]
 80051ce:	4b06      	ldr	r3, [pc, #24]	; (80051e8 <prvResetNextTaskUnblockTime+0x20>)
 80051d0:	b919      	cbnz	r1, 80051da <prvResetNextTaskUnblockTime+0x12>
 80051d2:	f04f 32ff 	mov.w	r2, #4294967295
 80051d6:	601a      	str	r2, [r3, #0]
 80051d8:	4770      	bx	lr
 80051da:	6812      	ldr	r2, [r2, #0]
 80051dc:	68d2      	ldr	r2, [r2, #12]
 80051de:	68d2      	ldr	r2, [r2, #12]
 80051e0:	6852      	ldr	r2, [r2, #4]
 80051e2:	e7f8      	b.n	80051d6 <prvResetNextTaskUnblockTime+0xe>
 80051e4:	200009d4 	.word	0x200009d4
 80051e8:	20000e78 	.word	0x20000e78

080051ec <prvDeleteTCB>:
 80051ec:	b510      	push	{r4, lr}
 80051ee:	4604      	mov	r4, r0
 80051f0:	3054      	adds	r0, #84	; 0x54
 80051f2:	f002 fadf 	bl	80077b4 <_reclaim_reent>
 80051f6:	f894 30b9 	ldrb.w	r3, [r4, #185]	; 0xb9
 80051fa:	b93b      	cbnz	r3, 800520c <prvDeleteTCB+0x20>
 80051fc:	6b20      	ldr	r0, [r4, #48]	; 0x30
 80051fe:	f001 f9d9 	bl	80065b4 <vPortFree>
 8005202:	4620      	mov	r0, r4
 8005204:	e8bd 4010 	ldmia.w	sp!, {r4, lr}
 8005208:	f001 b9d4 	b.w	80065b4 <vPortFree>
 800520c:	2b01      	cmp	r3, #1
 800520e:	d0f8      	beq.n	8005202 <prvDeleteTCB+0x16>
 8005210:	2b02      	cmp	r3, #2
 8005212:	d008      	beq.n	8005226 <prvDeleteTCB+0x3a>
 8005214:	f04f 0350 	mov.w	r3, #80	; 0x50
 8005218:	f383 8811 	msr	BASEPRI, r3
 800521c:	f3bf 8f6f 	isb	sy
 8005220:	f3bf 8f4f 	dsb	sy
 8005224:	e7fe      	b.n	8005224 <prvDeleteTCB+0x38>
 8005226:	bd10      	pop	{r4, pc}

08005228 <prvIdleTask>:
 8005228:	b580      	push	{r7, lr}
 800522a:	4c13      	ldr	r4, [pc, #76]	; (8005278 <prvIdleTask+0x50>)
 800522c:	4f13      	ldr	r7, [pc, #76]	; (800527c <prvIdleTask+0x54>)
 800522e:	4d14      	ldr	r5, [pc, #80]	; (8005280 <prvIdleTask+0x58>)
 8005230:	6823      	ldr	r3, [r4, #0]
 8005232:	b973      	cbnz	r3, 8005252 <prvIdleTask+0x2a>
 8005234:	4b13      	ldr	r3, [pc, #76]	; (8005284 <prvIdleTask+0x5c>)
 8005236:	681b      	ldr	r3, [r3, #0]
 8005238:	2b01      	cmp	r3, #1
 800523a:	d9f8      	bls.n	800522e <prvIdleTask+0x6>
 800523c:	f04f 23e0 	mov.w	r3, #3758153728	; 0xe000e000
 8005240:	f04f 5280 	mov.w	r2, #268435456	; 0x10000000
 8005244:	f8c3 2d04 	str.w	r2, [r3, #3332]	; 0xd04
 8005248:	f3bf 8f4f 	dsb	sy
 800524c:	f3bf 8f6f 	isb	sy
 8005250:	e7ed      	b.n	800522e <prvIdleTask+0x6>
 8005252:	f000 ffaf 	bl	80061b4 <vPortEnterCritical>
 8005256:	68fb      	ldr	r3, [r7, #12]
 8005258:	68de      	ldr	r6, [r3, #12]
 800525a:	1d30      	adds	r0, r6, #4
 800525c:	f7ff f933 	bl	80044c6 <uxListRemove>
 8005260:	682b      	ldr	r3, [r5, #0]
 8005262:	3b01      	subs	r3, #1
 8005264:	602b      	str	r3, [r5, #0]
 8005266:	6823      	ldr	r3, [r4, #0]
 8005268:	3b01      	subs	r3, #1
 800526a:	6023      	str	r3, [r4, #0]
 800526c:	f000 ffc2 	bl	80061f4 <vPortExitCritical>
 8005270:	4630      	mov	r0, r6
 8005272:	f7ff ffbb 	bl	80051ec <prvDeleteTCB>
 8005276:	e7db      	b.n	8005230 <prvIdleTask+0x8>
 8005278:	20000e40 	.word	0x20000e40
 800527c:	20000eb0 	.word	0x20000eb0
 8005280:	20000e3c 	.word	0x20000e3c
 8005284:	200009dc 	.word	0x200009dc

08005288 <prvInitialiseNewTask.constprop.0>:
 8005288:	e92d 47f0 	stmdb	sp!, {r4, r5, r6, r7, r8, r9, sl, lr}
 800528c:	e9dd 8409 	ldrd	r8, r4, [sp, #36]	; 0x24
 8005290:	ea4f 0982 	mov.w	r9, r2, lsl #2
 8005294:	464a      	mov	r2, r9
 8005296:	4606      	mov	r6, r0
 8005298:	460d      	mov	r5, r1
 800529a:	6b20      	ldr	r0, [r4, #48]	; 0x30
 800529c:	21a5      	movs	r1, #165	; 0xa5
 800529e:	461f      	mov	r7, r3
 80052a0:	f002 fa72 	bl	8007788 <memset>
 80052a4:	6b22      	ldr	r2, [r4, #48]	; 0x30
 80052a6:	f1a9 0904 	sub.w	r9, r9, #4
 80052aa:	4491      	add	r9, r2
 80052ac:	f029 0907 	bic.w	r9, r9, #7
 80052b0:	2d00      	cmp	r5, #0
 80052b2:	d040      	beq.n	8005336 <prvInitialiseNewTask.constprop.0+0xae>
 80052b4:	1e6b      	subs	r3, r5, #1
 80052b6:	f104 0234 	add.w	r2, r4, #52	; 0x34
 80052ba:	350f      	adds	r5, #15
 80052bc:	f813 0f01 	ldrb.w	r0, [r3, #1]!
 80052c0:	f802 0b01 	strb.w	r0, [r2], #1
 80052c4:	b108      	cbz	r0, 80052ca <prvInitialiseNewTask.constprop.0+0x42>
 80052c6:	42ab      	cmp	r3, r5
 80052c8:	d1f8      	bne.n	80052bc <prvInitialiseNewTask.constprop.0+0x34>
 80052ca:	2300      	movs	r3, #0
 80052cc:	f884 3043 	strb.w	r3, [r4, #67]	; 0x43
 80052d0:	9d08      	ldr	r5, [sp, #32]
 80052d2:	2d37      	cmp	r5, #55	; 0x37
 80052d4:	bf28      	it	cs
 80052d6:	2537      	movcs	r5, #55	; 0x37
 80052d8:	f04f 0a00 	mov.w	sl, #0
 80052dc:	62e5      	str	r5, [r4, #44]	; 0x2c
 80052de:	64e5      	str	r5, [r4, #76]	; 0x4c
 80052e0:	1d20      	adds	r0, r4, #4
 80052e2:	f8c4 a050 	str.w	sl, [r4, #80]	; 0x50
 80052e6:	f7ff f8c8 	bl	800447a <vListInitialiseItem>
 80052ea:	f1c5 0538 	rsb	r5, r5, #56	; 0x38
 80052ee:	f104 0018 	add.w	r0, r4, #24
 80052f2:	f7ff f8c2 	bl	800447a <vListInitialiseItem>
 80052f6:	f8c4 a0b4 	str.w	sl, [r4, #180]	; 0xb4
 80052fa:	2260      	movs	r2, #96	; 0x60
 80052fc:	4651      	mov	r1, sl
 80052fe:	6124      	str	r4, [r4, #16]
 8005300:	61a5      	str	r5, [r4, #24]
 8005302:	6264      	str	r4, [r4, #36]	; 0x24
 8005304:	f884 a0b8 	strb.w	sl, [r4, #184]	; 0xb8
 8005308:	f104 0054 	add.w	r0, r4, #84	; 0x54
 800530c:	f002 fa3c 	bl	8007788 <memset>
 8005310:	4b0a      	ldr	r3, [pc, #40]	; (800533c <prvInitialiseNewTask.constprop.0+0xb4>)
 8005312:	65a3      	str	r3, [r4, #88]	; 0x58
 8005314:	4b0a      	ldr	r3, [pc, #40]	; (8005340 <prvInitialiseNewTask.constprop.0+0xb8>)
 8005316:	65e3      	str	r3, [r4, #92]	; 0x5c
 8005318:	4b0a      	ldr	r3, [pc, #40]	; (8005344 <prvInitialiseNewTask.constprop.0+0xbc>)
 800531a:	6623      	str	r3, [r4, #96]	; 0x60
 800531c:	463a      	mov	r2, r7
 800531e:	4631      	mov	r1, r6
 8005320:	4648      	mov	r0, r9
 8005322:	f000 ff19 	bl	8006158 <pxPortInitialiseStack>
 8005326:	6020      	str	r0, [r4, #0]
 8005328:	f1b8 0f00 	cmp.w	r8, #0
 800532c:	d001      	beq.n	8005332 <prvInitialiseNewTask.constprop.0+0xaa>
 800532e:	f8c8 4000 	str.w	r4, [r8]
 8005332:	e8bd 87f0 	ldmia.w	sp!, {r4, r5, r6, r7, r8, r9, sl, pc}
 8005336:	f884 5034 	strb.w	r5, [r4, #52]	; 0x34
 800533a:	e7c9      	b.n	80052d0 <prvInitialiseNewTask.constprop.0+0x48>
 800533c:	08007af4 	.word	0x08007af4
 8005340:	08007b14 	.word	0x08007b14
 8005344:	08007ad4 	.word	0x08007ad4

08005348 <xTaskCreateStatic>:
 8005348:	b570      	push	{r4, r5, r6, lr}
 800534a:	b086      	sub	sp, #24
 800534c:	e9dd 540b 	ldrd	r5, r4, [sp, #44]	; 0x2c
 8005350:	b945      	cbnz	r5, 8005364 <xTaskCreateStatic+0x1c>
 8005352:	f04f 0350 	mov.w	r3, #80	; 0x50
 8005356:	f383 8811 	msr	BASEPRI, r3
 800535a:	f3bf 8f6f 	isb	sy
 800535e:	f3bf 8f4f 	dsb	sy
 8005362:	e7fe      	b.n	8005362 <xTaskCreateStatic+0x1a>
 8005364:	b944      	cbnz	r4, 8005378 <xTaskCreateStatic+0x30>
 8005366:	f04f 0350 	mov.w	r3, #80	; 0x50
 800536a:	f383 8811 	msr	BASEPRI, r3
 800536e:	f3bf 8f6f 	isb	sy
 8005372:	f3bf 8f4f 	dsb	sy
 8005376:	e7fe      	b.n	8005376 <xTaskCreateStatic+0x2e>
 8005378:	26bc      	movs	r6, #188	; 0xbc
 800537a:	9605      	str	r6, [sp, #20]
 800537c:	9e05      	ldr	r6, [sp, #20]
 800537e:	2ebc      	cmp	r6, #188	; 0xbc
 8005380:	d008      	beq.n	8005394 <xTaskCreateStatic+0x4c>
 8005382:	f04f 0350 	mov.w	r3, #80	; 0x50
 8005386:	f383 8811 	msr	BASEPRI, r3
 800538a:	f3bf 8f6f 	isb	sy
 800538e:	f3bf 8f4f 	dsb	sy
 8005392:	e7fe      	b.n	8005392 <xTaskCreateStatic+0x4a>
 8005394:	6325      	str	r5, [r4, #48]	; 0x30
 8005396:	2502      	movs	r5, #2
 8005398:	f884 50b9 	strb.w	r5, [r4, #185]	; 0xb9
 800539c:	ad04      	add	r5, sp, #16
 800539e:	9501      	str	r5, [sp, #4]
 80053a0:	9d0a      	ldr	r5, [sp, #40]	; 0x28
 80053a2:	9402      	str	r4, [sp, #8]
 80053a4:	9500      	str	r5, [sp, #0]
 80053a6:	9e05      	ldr	r6, [sp, #20]
 80053a8:	f7ff ff6e 	bl	8005288 <prvInitialiseNewTask.constprop.0>
 80053ac:	4620      	mov	r0, r4
 80053ae:	f7ff fe53 	bl	8005058 <prvAddNewTaskToReadyList>
 80053b2:	9804      	ldr	r0, [sp, #16]
 80053b4:	b006      	add	sp, #24
 80053b6:	bd70      	pop	{r4, r5, r6, pc}

080053b8 <xTaskCreate>:
 80053b8:	e92d 43f0 	stmdb	sp!, {r4, r5, r6, r7, r8, r9, lr}
 80053bc:	4607      	mov	r7, r0
 80053be:	b085      	sub	sp, #20
 80053c0:	0090      	lsls	r0, r2, #2
 80053c2:	4688      	mov	r8, r1
 80053c4:	4616      	mov	r6, r2
 80053c6:	4699      	mov	r9, r3
 80053c8:	f001 f85c 	bl	8006484 <pvPortMalloc>
 80053cc:	4605      	mov	r5, r0
 80053ce:	b1e8      	cbz	r0, 800540c <xTaskCreate+0x54>
 80053d0:	20bc      	movs	r0, #188	; 0xbc
 80053d2:	f001 f857 	bl	8006484 <pvPortMalloc>
 80053d6:	4604      	mov	r4, r0
 80053d8:	b1a8      	cbz	r0, 8005406 <xTaskCreate+0x4e>
 80053da:	2300      	movs	r3, #0
 80053dc:	f880 30b9 	strb.w	r3, [r0, #185]	; 0xb9
 80053e0:	9b0d      	ldr	r3, [sp, #52]	; 0x34
 80053e2:	6305      	str	r5, [r0, #48]	; 0x30
 80053e4:	9301      	str	r3, [sp, #4]
 80053e6:	9b0c      	ldr	r3, [sp, #48]	; 0x30
 80053e8:	9002      	str	r0, [sp, #8]
 80053ea:	9300      	str	r3, [sp, #0]
 80053ec:	4632      	mov	r2, r6
 80053ee:	464b      	mov	r3, r9
 80053f0:	4641      	mov	r1, r8
 80053f2:	4638      	mov	r0, r7
 80053f4:	f7ff ff48 	bl	8005288 <prvInitialiseNewTask.constprop.0>
 80053f8:	4620      	mov	r0, r4
 80053fa:	f7ff fe2d 	bl	8005058 <prvAddNewTaskToReadyList>
 80053fe:	2001      	movs	r0, #1
 8005400:	b005      	add	sp, #20
 8005402:	e8bd 83f0 	ldmia.w	sp!, {r4, r5, r6, r7, r8, r9, pc}
 8005406:	4628      	mov	r0, r5
 8005408:	f001 f8d4 	bl	80065b4 <vPortFree>
 800540c:	f04f 30ff 	mov.w	r0, #4294967295
 8005410:	e7f6      	b.n	8005400 <xTaskCreate+0x48>
	...

08005414 <vTaskStartScheduler>:
 8005414:	b510      	push	{r4, lr}
 8005416:	b088      	sub	sp, #32
 8005418:	2400      	movs	r4, #0
 800541a:	aa07      	add	r2, sp, #28
 800541c:	a906      	add	r1, sp, #24
 800541e:	a805      	add	r0, sp, #20
 8005420:	e9cd 4405 	strd	r4, r4, [sp, #20]
 8005424:	f7ff f806 	bl	8004434 <vApplicationGetIdleTaskMemory>
 8005428:	9b05      	ldr	r3, [sp, #20]
 800542a:	9302      	str	r3, [sp, #8]
 800542c:	9b06      	ldr	r3, [sp, #24]
 800542e:	9a07      	ldr	r2, [sp, #28]
 8005430:	4919      	ldr	r1, [pc, #100]	; (8005498 <vTaskStartScheduler+0x84>)
 8005432:	481a      	ldr	r0, [pc, #104]	; (800549c <vTaskStartScheduler+0x88>)
 8005434:	e9cd 4300 	strd	r4, r3, [sp]
 8005438:	4623      	mov	r3, r4
 800543a:	f7ff ff85 	bl	8005348 <xTaskCreateStatic>
 800543e:	b340      	cbz	r0, 8005492 <vTaskStartScheduler+0x7e>
 8005440:	f000 fcb2 	bl	8005da8 <xTimerCreateTimerTask>
 8005444:	2801      	cmp	r0, #1
 8005446:	d119      	bne.n	800547c <vTaskStartScheduler+0x68>
 8005448:	f04f 0350 	mov.w	r3, #80	; 0x50
 800544c:	f383 8811 	msr	BASEPRI, r3
 8005450:	f3bf 8f6f 	isb	sy
 8005454:	f3bf 8f4f 	dsb	sy
 8005458:	4b11      	ldr	r3, [pc, #68]	; (80054a0 <vTaskStartScheduler+0x8c>)
 800545a:	4a12      	ldr	r2, [pc, #72]	; (80054a4 <vTaskStartScheduler+0x90>)
 800545c:	681b      	ldr	r3, [r3, #0]
 800545e:	3354      	adds	r3, #84	; 0x54
 8005460:	6013      	str	r3, [r2, #0]
 8005462:	4b11      	ldr	r3, [pc, #68]	; (80054a8 <vTaskStartScheduler+0x94>)
 8005464:	f04f 32ff 	mov.w	r2, #4294967295
 8005468:	601a      	str	r2, [r3, #0]
 800546a:	4b10      	ldr	r3, [pc, #64]	; (80054ac <vTaskStartScheduler+0x98>)
 800546c:	6018      	str	r0, [r3, #0]
 800546e:	4b10      	ldr	r3, [pc, #64]	; (80054b0 <vTaskStartScheduler+0x9c>)
 8005470:	601c      	str	r4, [r3, #0]
 8005472:	b008      	add	sp, #32
 8005474:	e8bd 4010 	ldmia.w	sp!, {r4, lr}
 8005478:	f000 bf2c 	b.w	80062d4 <xPortStartScheduler>
 800547c:	3001      	adds	r0, #1
 800547e:	d108      	bne.n	8005492 <vTaskStartScheduler+0x7e>
 8005480:	f04f 0350 	mov.w	r3, #80	; 0x50
 8005484:	f383 8811 	msr	BASEPRI, r3
 8005488:	f3bf 8f6f 	isb	sy
 800548c:	f3bf 8f4f 	dsb	sy
 8005490:	e7fe      	b.n	8005490 <vTaskStartScheduler+0x7c>
 8005492:	b008      	add	sp, #32
 8005494:	bd10      	pop	{r4, pc}
 8005496:	bf00      	nop
 8005498:	08007934 	.word	0x08007934
 800549c:	08005229 	.word	0x08005229
 80054a0:	200009d0 	.word	0x200009d0
 80054a4:	2000018c 	.word	0x2000018c
 80054a8:	20000e78 	.word	0x20000e78
 80054ac:	20000e98 	.word	0x20000e98
 80054b0:	20000ec4 	.word	0x20000ec4

080054b4 <vTaskSuspendAll>:
 80054b4:	4a02      	ldr	r2, [pc, #8]	; (80054c0 <vTaskSuspendAll+0xc>)
 80054b6:	6813      	ldr	r3, [r2, #0]
 80054b8:	3301      	adds	r3, #1
 80054ba:	6013      	str	r3, [r2, #0]
 80054bc:	4770      	bx	lr
 80054be:	bf00      	nop
 80054c0:	20000e44 	.word	0x20000e44

080054c4 <xTaskGetTickCount>:
 80054c4:	4b01      	ldr	r3, [pc, #4]	; (80054cc <xTaskGetTickCount+0x8>)
 80054c6:	6818      	ldr	r0, [r3, #0]
 80054c8:	4770      	bx	lr
 80054ca:	bf00      	nop
 80054cc:	20000ec4 	.word	0x20000ec4

080054d0 <xTaskIncrementTick>:
 80054d0:	4b3f      	ldr	r3, [pc, #252]	; (80055d0 <xTaskIncrementTick+0x100>)
 80054d2:	681b      	ldr	r3, [r3, #0]
 80054d4:	e92d 4ff7 	stmdb	sp!, {r0, r1, r2, r4, r5, r6, r7, r8, r9, sl, fp, lr}
 80054d8:	2b00      	cmp	r3, #0
 80054da:	d173      	bne.n	80055c4 <xTaskIncrementTick+0xf4>
 80054dc:	4b3d      	ldr	r3, [pc, #244]	; (80055d4 <xTaskIncrementTick+0x104>)
 80054de:	681d      	ldr	r5, [r3, #0]
 80054e0:	3501      	adds	r5, #1
 80054e2:	601d      	str	r5, [r3, #0]
 80054e4:	b9bd      	cbnz	r5, 8005516 <xTaskIncrementTick+0x46>
 80054e6:	4b3c      	ldr	r3, [pc, #240]	; (80055d8 <xTaskIncrementTick+0x108>)
 80054e8:	681a      	ldr	r2, [r3, #0]
 80054ea:	6812      	ldr	r2, [r2, #0]
 80054ec:	b142      	cbz	r2, 8005500 <xTaskIncrementTick+0x30>
 80054ee:	f04f 0350 	mov.w	r3, #80	; 0x50
 80054f2:	f383 8811 	msr	BASEPRI, r3
 80054f6:	f3bf 8f6f 	isb	sy
 80054fa:	f3bf 8f4f 	dsb	sy
 80054fe:	e7fe      	b.n	80054fe <xTaskIncrementTick+0x2e>
 8005500:	4a36      	ldr	r2, [pc, #216]	; (80055dc <xTaskIncrementTick+0x10c>)
 8005502:	6819      	ldr	r1, [r3, #0]
 8005504:	6810      	ldr	r0, [r2, #0]
 8005506:	6018      	str	r0, [r3, #0]
 8005508:	6011      	str	r1, [r2, #0]
 800550a:	4a35      	ldr	r2, [pc, #212]	; (80055e0 <xTaskIncrementTick+0x110>)
 800550c:	6813      	ldr	r3, [r2, #0]
 800550e:	3301      	adds	r3, #1
 8005510:	6013      	str	r3, [r2, #0]
 8005512:	f7ff fe59 	bl	80051c8 <prvResetNextTaskUnblockTime>
 8005516:	4e33      	ldr	r6, [pc, #204]	; (80055e4 <xTaskIncrementTick+0x114>)
 8005518:	4f33      	ldr	r7, [pc, #204]	; (80055e8 <xTaskIncrementTick+0x118>)
 800551a:	6833      	ldr	r3, [r6, #0]
 800551c:	f8df 80d4 	ldr.w	r8, [pc, #212]	; 80055f4 <xTaskIncrementTick+0x124>
 8005520:	429d      	cmp	r5, r3
 8005522:	f04f 0400 	mov.w	r4, #0
 8005526:	d211      	bcs.n	800554c <xTaskIncrementTick+0x7c>
 8005528:	f8d8 3000 	ldr.w	r3, [r8]
 800552c:	6adb      	ldr	r3, [r3, #44]	; 0x2c
 800552e:	2214      	movs	r2, #20
 8005530:	4353      	muls	r3, r2
 8005532:	58fb      	ldr	r3, [r7, r3]
 8005534:	2b02      	cmp	r3, #2
 8005536:	4b2d      	ldr	r3, [pc, #180]	; (80055ec <xTaskIncrementTick+0x11c>)
 8005538:	681b      	ldr	r3, [r3, #0]
 800553a:	bf28      	it	cs
 800553c:	2401      	movcs	r4, #1
 800553e:	2b00      	cmp	r3, #0
 8005540:	bf18      	it	ne
 8005542:	2401      	movne	r4, #1
 8005544:	4620      	mov	r0, r4
 8005546:	b003      	add	sp, #12
 8005548:	e8bd 8ff0 	ldmia.w	sp!, {r4, r5, r6, r7, r8, r9, sl, fp, pc}
 800554c:	f8df 9088 	ldr.w	r9, [pc, #136]	; 80055d8 <xTaskIncrementTick+0x108>
 8005550:	f8df a0a4 	ldr.w	sl, [pc, #164]	; 80055f8 <xTaskIncrementTick+0x128>
 8005554:	f8d9 3000 	ldr.w	r3, [r9]
 8005558:	681b      	ldr	r3, [r3, #0]
 800555a:	b91b      	cbnz	r3, 8005564 <xTaskIncrementTick+0x94>
 800555c:	f04f 33ff 	mov.w	r3, #4294967295
 8005560:	6033      	str	r3, [r6, #0]
 8005562:	e7e1      	b.n	8005528 <xTaskIncrementTick+0x58>
 8005564:	f8d9 3000 	ldr.w	r3, [r9]
 8005568:	68db      	ldr	r3, [r3, #12]
 800556a:	f8d3 b00c 	ldr.w	fp, [r3, #12]
 800556e:	f8db 2004 	ldr.w	r2, [fp, #4]
 8005572:	4295      	cmp	r5, r2
 8005574:	d201      	bcs.n	800557a <xTaskIncrementTick+0xaa>
 8005576:	6032      	str	r2, [r6, #0]
 8005578:	e7d6      	b.n	8005528 <xTaskIncrementTick+0x58>
 800557a:	f10b 0104 	add.w	r1, fp, #4
 800557e:	4608      	mov	r0, r1
 8005580:	9101      	str	r1, [sp, #4]
 8005582:	f7fe ffa0 	bl	80044c6 <uxListRemove>
 8005586:	f8db 2028 	ldr.w	r2, [fp, #40]	; 0x28
 800558a:	9901      	ldr	r1, [sp, #4]
 800558c:	b122      	cbz	r2, 8005598 <xTaskIncrementTick+0xc8>
 800558e:	f10b 0018 	add.w	r0, fp, #24
 8005592:	f7fe ff98 	bl	80044c6 <uxListRemove>
 8005596:	9901      	ldr	r1, [sp, #4]
 8005598:	f8db 002c 	ldr.w	r0, [fp, #44]	; 0x2c
 800559c:	f8da 2000 	ldr.w	r2, [sl]
 80055a0:	2314      	movs	r3, #20
 80055a2:	4290      	cmp	r0, r2
 80055a4:	bf88      	it	hi
 80055a6:	f8ca 0000 	strhi.w	r0, [sl]
 80055aa:	fb03 7000 	mla	r0, r3, r0, r7
 80055ae:	f7fe ff67 	bl	8004480 <vListInsertEnd>
 80055b2:	f8d8 1000 	ldr.w	r1, [r8]
 80055b6:	f8db 202c 	ldr.w	r2, [fp, #44]	; 0x2c
 80055ba:	6acb      	ldr	r3, [r1, #44]	; 0x2c
 80055bc:	429a      	cmp	r2, r3
 80055be:	bf28      	it	cs
 80055c0:	2401      	movcs	r4, #1
 80055c2:	e7c7      	b.n	8005554 <xTaskIncrementTick+0x84>
 80055c4:	4a0a      	ldr	r2, [pc, #40]	; (80055f0 <xTaskIncrementTick+0x120>)
 80055c6:	6813      	ldr	r3, [r2, #0]
 80055c8:	3301      	adds	r3, #1
 80055ca:	6013      	str	r3, [r2, #0]
 80055cc:	2400      	movs	r4, #0
 80055ce:	e7b9      	b.n	8005544 <xTaskIncrementTick+0x74>
 80055d0:	20000e44 	.word	0x20000e44
 80055d4:	20000ec4 	.word	0x20000ec4
 80055d8:	200009d4 	.word	0x200009d4
 80055dc:	200009d8 	.word	0x200009d8
 80055e0:	20000e7c 	.word	0x20000e7c
 80055e4:	20000e78 	.word	0x20000e78
 80055e8:	200009dc 	.word	0x200009dc
 80055ec:	20000ec8 	.word	0x20000ec8
 80055f0:	20000e80 	.word	0x20000e80
 80055f4:	200009d0 	.word	0x200009d0
 80055f8:	20000e4c 	.word	0x20000e4c

080055fc <xTaskResumeAll>:
 80055fc:	b5f7      	push	{r0, r1, r2, r4, r5, r6, r7, lr}
 80055fe:	4c31      	ldr	r4, [pc, #196]	; (80056c4 <xTaskResumeAll+0xc8>)
 8005600:	6823      	ldr	r3, [r4, #0]
 8005602:	b943      	cbnz	r3, 8005616 <xTaskResumeAll+0x1a>
 8005604:	f04f 0350 	mov.w	r3, #80	; 0x50
 8005608:	f383 8811 	msr	BASEPRI, r3
 800560c:	f3bf 8f6f 	isb	sy
 8005610:	f3bf 8f4f 	dsb	sy
 8005614:	e7fe      	b.n	8005614 <xTaskResumeAll+0x18>
 8005616:	f000 fdcd 	bl	80061b4 <vPortEnterCritical>
 800561a:	6823      	ldr	r3, [r4, #0]
 800561c:	3b01      	subs	r3, #1
 800561e:	6023      	str	r3, [r4, #0]
 8005620:	6824      	ldr	r4, [r4, #0]
 8005622:	b12c      	cbz	r4, 8005630 <xTaskResumeAll+0x34>
 8005624:	2400      	movs	r4, #0
 8005626:	f000 fde5 	bl	80061f4 <vPortExitCritical>
 800562a:	4620      	mov	r0, r4
 800562c:	b003      	add	sp, #12
 800562e:	bdf0      	pop	{r4, r5, r6, r7, pc}
 8005630:	4b25      	ldr	r3, [pc, #148]	; (80056c8 <xTaskResumeAll+0xcc>)
 8005632:	681b      	ldr	r3, [r3, #0]
 8005634:	2b00      	cmp	r3, #0
 8005636:	d0f5      	beq.n	8005624 <xTaskResumeAll+0x28>
 8005638:	4d24      	ldr	r5, [pc, #144]	; (80056cc <xTaskResumeAll+0xd0>)
 800563a:	4e25      	ldr	r6, [pc, #148]	; (80056d0 <xTaskResumeAll+0xd4>)
 800563c:	4f25      	ldr	r7, [pc, #148]	; (80056d4 <xTaskResumeAll+0xd8>)
 800563e:	e01e      	b.n	800567e <xTaskResumeAll+0x82>
 8005640:	68eb      	ldr	r3, [r5, #12]
 8005642:	68dc      	ldr	r4, [r3, #12]
 8005644:	f104 0018 	add.w	r0, r4, #24
 8005648:	f7fe ff3d 	bl	80044c6 <uxListRemove>
 800564c:	1d21      	adds	r1, r4, #4
 800564e:	4608      	mov	r0, r1
 8005650:	9101      	str	r1, [sp, #4]
 8005652:	f7fe ff38 	bl	80044c6 <uxListRemove>
 8005656:	6ae3      	ldr	r3, [r4, #44]	; 0x2c
 8005658:	6832      	ldr	r2, [r6, #0]
 800565a:	9901      	ldr	r1, [sp, #4]
 800565c:	2014      	movs	r0, #20
 800565e:	4293      	cmp	r3, r2
 8005660:	fb00 7003 	mla	r0, r0, r3, r7
 8005664:	bf88      	it	hi
 8005666:	6033      	strhi	r3, [r6, #0]
 8005668:	f7fe ff0a 	bl	8004480 <vListInsertEnd>
 800566c:	4b1a      	ldr	r3, [pc, #104]	; (80056d8 <xTaskResumeAll+0xdc>)
 800566e:	6ae2      	ldr	r2, [r4, #44]	; 0x2c
 8005670:	681b      	ldr	r3, [r3, #0]
 8005672:	6adb      	ldr	r3, [r3, #44]	; 0x2c
 8005674:	429a      	cmp	r2, r3
 8005676:	d302      	bcc.n	800567e <xTaskResumeAll+0x82>
 8005678:	4b18      	ldr	r3, [pc, #96]	; (80056dc <xTaskResumeAll+0xe0>)
 800567a:	2201      	movs	r2, #1
 800567c:	601a      	str	r2, [r3, #0]
 800567e:	682b      	ldr	r3, [r5, #0]
 8005680:	2b00      	cmp	r3, #0
 8005682:	d1dd      	bne.n	8005640 <xTaskResumeAll+0x44>
 8005684:	b10c      	cbz	r4, 800568a <xTaskResumeAll+0x8e>
 8005686:	f7ff fd9f 	bl	80051c8 <prvResetNextTaskUnblockTime>
 800568a:	4d15      	ldr	r5, [pc, #84]	; (80056e0 <xTaskResumeAll+0xe4>)
 800568c:	682c      	ldr	r4, [r5, #0]
 800568e:	b144      	cbz	r4, 80056a2 <xTaskResumeAll+0xa6>
 8005690:	4e12      	ldr	r6, [pc, #72]	; (80056dc <xTaskResumeAll+0xe0>)
 8005692:	2701      	movs	r7, #1
 8005694:	f7ff ff1c 	bl	80054d0 <xTaskIncrementTick>
 8005698:	b100      	cbz	r0, 800569c <xTaskResumeAll+0xa0>
 800569a:	6037      	str	r7, [r6, #0]
 800569c:	3c01      	subs	r4, #1
 800569e:	d1f9      	bne.n	8005694 <xTaskResumeAll+0x98>
 80056a0:	602c      	str	r4, [r5, #0]
 80056a2:	4b0e      	ldr	r3, [pc, #56]	; (80056dc <xTaskResumeAll+0xe0>)
 80056a4:	681b      	ldr	r3, [r3, #0]
 80056a6:	2b00      	cmp	r3, #0
 80056a8:	d0bc      	beq.n	8005624 <xTaskResumeAll+0x28>
 80056aa:	f04f 23e0 	mov.w	r3, #3758153728	; 0xe000e000
 80056ae:	f04f 5280 	mov.w	r2, #268435456	; 0x10000000
 80056b2:	f8c3 2d04 	str.w	r2, [r3, #3332]	; 0xd04
 80056b6:	f3bf 8f4f 	dsb	sy
 80056ba:	f3bf 8f6f 	isb	sy
 80056be:	2401      	movs	r4, #1
 80056c0:	e7b1      	b.n	8005626 <xTaskResumeAll+0x2a>
 80056c2:	bf00      	nop
 80056c4:	20000e44 	.word	0x20000e44
 80056c8:	20000e3c 	.word	0x20000e3c
 80056cc:	20000e84 	.word	0x20000e84
 80056d0:	20000e4c 	.word	0x20000e4c
 80056d4:	200009dc 	.word	0x200009dc
 80056d8:	200009d0 	.word	0x200009d0
 80056dc:	20000ec8 	.word	0x20000ec8
 80056e0:	20000e80 	.word	0x20000e80

080056e4 <vTaskDelay>:
 80056e4:	b508      	push	{r3, lr}
 80056e6:	b950      	cbnz	r0, 80056fe <vTaskDelay+0x1a>
 80056e8:	f04f 23e0 	mov.w	r3, #3758153728	; 0xe000e000
 80056ec:	f04f 5280 	mov.w	r2, #268435456	; 0x10000000
 80056f0:	f8c3 2d04 	str.w	r2, [r3, #3332]	; 0xd04
 80056f4:	f3bf 8f4f 	dsb	sy
 80056f8:	f3bf 8f6f 	isb	sy
 80056fc:	bd08      	pop	{r3, pc}
 80056fe:	4b0a      	ldr	r3, [pc, #40]	; (8005728 <vTaskDelay+0x44>)
 8005700:	6819      	ldr	r1, [r3, #0]
 8005702:	b141      	cbz	r1, 8005716 <vTaskDelay+0x32>
 8005704:	f04f 0350 	mov.w	r3, #80	; 0x50
 8005708:	f383 8811 	msr	BASEPRI, r3
 800570c:	f3bf 8f6f 	isb	sy
 8005710:	f3bf 8f4f 	dsb	sy
 8005714:	e7fe      	b.n	8005714 <vTaskDelay+0x30>
 8005716:	f7ff fecd 	bl	80054b4 <vTaskSuspendAll>
 800571a:	f7ff fd1d 	bl	8005158 <prvAddCurrentTaskToDelayedList>
 800571e:	f7ff ff6d 	bl	80055fc <xTaskResumeAll>
 8005722:	2800      	cmp	r0, #0
 8005724:	d0e0      	beq.n	80056e8 <vTaskDelay+0x4>
 8005726:	e7e9      	b.n	80056fc <vTaskDelay+0x18>
 8005728:	20000e44 	.word	0x20000e44

0800572c <vTaskSwitchContext>:
 800572c:	4b19      	ldr	r3, [pc, #100]	; (8005794 <vTaskSwitchContext+0x68>)
 800572e:	681a      	ldr	r2, [r3, #0]
 8005730:	4b19      	ldr	r3, [pc, #100]	; (8005798 <vTaskSwitchContext+0x6c>)
 8005732:	b570      	push	{r4, r5, r6, lr}
 8005734:	b112      	cbz	r2, 800573c <vTaskSwitchContext+0x10>
 8005736:	2201      	movs	r2, #1
 8005738:	601a      	str	r2, [r3, #0]
 800573a:	bd70      	pop	{r4, r5, r6, pc}
 800573c:	4d17      	ldr	r5, [pc, #92]	; (800579c <vTaskSwitchContext+0x70>)
 800573e:	601a      	str	r2, [r3, #0]
 8005740:	682a      	ldr	r2, [r5, #0]
 8005742:	4917      	ldr	r1, [pc, #92]	; (80057a0 <vTaskSwitchContext+0x74>)
 8005744:	2614      	movs	r6, #20
 8005746:	fb06 f302 	mul.w	r3, r6, r2
 800574a:	18c8      	adds	r0, r1, r3
 800574c:	58cc      	ldr	r4, [r1, r3]
 800574e:	b1ac      	cbz	r4, 800577c <vTaskSwitchContext+0x50>
 8005750:	6844      	ldr	r4, [r0, #4]
 8005752:	3308      	adds	r3, #8
 8005754:	6864      	ldr	r4, [r4, #4]
 8005756:	6044      	str	r4, [r0, #4]
 8005758:	440b      	add	r3, r1
 800575a:	429c      	cmp	r4, r3
 800575c:	bf04      	itt	eq
 800575e:	6863      	ldreq	r3, [r4, #4]
 8005760:	6043      	streq	r3, [r0, #4]
 8005762:	2314      	movs	r3, #20
 8005764:	fb03 1102 	mla	r1, r3, r2, r1
 8005768:	684b      	ldr	r3, [r1, #4]
 800576a:	68d9      	ldr	r1, [r3, #12]
 800576c:	4b0d      	ldr	r3, [pc, #52]	; (80057a4 <vTaskSwitchContext+0x78>)
 800576e:	6019      	str	r1, [r3, #0]
 8005770:	602a      	str	r2, [r5, #0]
 8005772:	681b      	ldr	r3, [r3, #0]
 8005774:	4a0c      	ldr	r2, [pc, #48]	; (80057a8 <vTaskSwitchContext+0x7c>)
 8005776:	3354      	adds	r3, #84	; 0x54
 8005778:	6013      	str	r3, [r2, #0]
 800577a:	e7de      	b.n	800573a <vTaskSwitchContext+0xe>
 800577c:	b942      	cbnz	r2, 8005790 <vTaskSwitchContext+0x64>
 800577e:	f04f 0350 	mov.w	r3, #80	; 0x50
 8005782:	f383 8811 	msr	BASEPRI, r3
 8005786:	f3bf 8f6f 	isb	sy
 800578a:	f3bf 8f4f 	dsb	sy
 800578e:	e7fe      	b.n	800578e <vTaskSwitchContext+0x62>
 8005790:	3a01      	subs	r2, #1
 8005792:	e7d8      	b.n	8005746 <vTaskSwitchContext+0x1a>
 8005794:	20000e44 	.word	0x20000e44
 8005798:	20000ec8 	.word	0x20000ec8
 800579c:	20000e4c 	.word	0x20000e4c
 80057a0:	200009dc 	.word	0x200009dc
 80057a4:	200009d0 	.word	0x200009d0
 80057a8:	2000018c 	.word	0x2000018c

080057ac <vTaskPlaceOnEventList>:
 80057ac:	b510      	push	{r4, lr}
 80057ae:	460c      	mov	r4, r1
 80057b0:	b940      	cbnz	r0, 80057c4 <vTaskPlaceOnEventList+0x18>
 80057b2:	f04f 0350 	mov.w	r3, #80	; 0x50
 80057b6:	f383 8811 	msr	BASEPRI, r3
 80057ba:	f3bf 8f6f 	isb	sy
 80057be:	f3bf 8f4f 	dsb	sy
 80057c2:	e7fe      	b.n	80057c2 <vTaskPlaceOnEventList+0x16>
 80057c4:	4b05      	ldr	r3, [pc, #20]	; (80057dc <vTaskPlaceOnEventList+0x30>)
 80057c6:	6819      	ldr	r1, [r3, #0]
 80057c8:	3118      	adds	r1, #24
 80057ca:	f7fe fe65 	bl	8004498 <vListInsert>
 80057ce:	4620      	mov	r0, r4
 80057d0:	2101      	movs	r1, #1
 80057d2:	e8bd 4010 	ldmia.w	sp!, {r4, lr}
 80057d6:	f7ff bcbf 	b.w	8005158 <prvAddCurrentTaskToDelayedList>
 80057da:	bf00      	nop
 80057dc:	200009d0 	.word	0x200009d0

080057e0 <vTaskPlaceOnEventListRestricted>:
 80057e0:	b538      	push	{r3, r4, r5, lr}
 80057e2:	460d      	mov	r5, r1
 80057e4:	4614      	mov	r4, r2
 80057e6:	b940      	cbnz	r0, 80057fa <vTaskPlaceOnEventListRestricted+0x1a>
 80057e8:	f04f 0350 	mov.w	r3, #80	; 0x50
 80057ec:	f383 8811 	msr	BASEPRI, r3
 80057f0:	f3bf 8f6f 	isb	sy
 80057f4:	f3bf 8f4f 	dsb	sy
 80057f8:	e7fe      	b.n	80057f8 <vTaskPlaceOnEventListRestricted+0x18>
 80057fa:	4b07      	ldr	r3, [pc, #28]	; (8005818 <vTaskPlaceOnEventListRestricted+0x38>)
 80057fc:	6819      	ldr	r1, [r3, #0]
 80057fe:	3118      	adds	r1, #24
 8005800:	f7fe fe3e 	bl	8004480 <vListInsertEnd>
 8005804:	2c00      	cmp	r4, #0
 8005806:	4621      	mov	r1, r4
 8005808:	bf0c      	ite	eq
 800580a:	4628      	moveq	r0, r5
 800580c:	f04f 30ff 	movne.w	r0, #4294967295
 8005810:	e8bd 4038 	ldmia.w	sp!, {r3, r4, r5, lr}
 8005814:	f7ff bca0 	b.w	8005158 <prvAddCurrentTaskToDelayedList>
 8005818:	200009d0 	.word	0x200009d0

0800581c <xTaskRemoveFromEventList>:
 800581c:	68c3      	ldr	r3, [r0, #12]
 800581e:	b513      	push	{r0, r1, r4, lr}
 8005820:	68dc      	ldr	r4, [r3, #12]
 8005822:	b944      	cbnz	r4, 8005836 <xTaskRemoveFromEventList+0x1a>
 8005824:	f04f 0350 	mov.w	r3, #80	; 0x50
 8005828:	f383 8811 	msr	BASEPRI, r3
 800582c:	f3bf 8f6f 	isb	sy
 8005830:	f3bf 8f4f 	dsb	sy
 8005834:	e7fe      	b.n	8005834 <xTaskRemoveFromEventList+0x18>
 8005836:	f104 0118 	add.w	r1, r4, #24
 800583a:	4608      	mov	r0, r1
 800583c:	9101      	str	r1, [sp, #4]
 800583e:	f7fe fe42 	bl	80044c6 <uxListRemove>
 8005842:	4b12      	ldr	r3, [pc, #72]	; (800588c <xTaskRemoveFromEventList+0x70>)
 8005844:	9901      	ldr	r1, [sp, #4]
 8005846:	681b      	ldr	r3, [r3, #0]
 8005848:	b9eb      	cbnz	r3, 8005886 <xTaskRemoveFromEventList+0x6a>
 800584a:	1d21      	adds	r1, r4, #4
 800584c:	4608      	mov	r0, r1
 800584e:	9101      	str	r1, [sp, #4]
 8005850:	f7fe fe39 	bl	80044c6 <uxListRemove>
 8005854:	4a0e      	ldr	r2, [pc, #56]	; (8005890 <xTaskRemoveFromEventList+0x74>)
 8005856:	6ae3      	ldr	r3, [r4, #44]	; 0x2c
 8005858:	6810      	ldr	r0, [r2, #0]
 800585a:	9901      	ldr	r1, [sp, #4]
 800585c:	4283      	cmp	r3, r0
 800585e:	bf88      	it	hi
 8005860:	6013      	strhi	r3, [r2, #0]
 8005862:	4a0c      	ldr	r2, [pc, #48]	; (8005894 <xTaskRemoveFromEventList+0x78>)
 8005864:	2014      	movs	r0, #20
 8005866:	fb00 2003 	mla	r0, r0, r3, r2
 800586a:	f7fe fe09 	bl	8004480 <vListInsertEnd>
 800586e:	4b0a      	ldr	r3, [pc, #40]	; (8005898 <xTaskRemoveFromEventList+0x7c>)
 8005870:	6ae2      	ldr	r2, [r4, #44]	; 0x2c
 8005872:	681b      	ldr	r3, [r3, #0]
 8005874:	6adb      	ldr	r3, [r3, #44]	; 0x2c
 8005876:	429a      	cmp	r2, r3
 8005878:	bf85      	ittet	hi
 800587a:	4b08      	ldrhi	r3, [pc, #32]	; (800589c <xTaskRemoveFromEventList+0x80>)
 800587c:	2001      	movhi	r0, #1
 800587e:	2000      	movls	r0, #0
 8005880:	6018      	strhi	r0, [r3, #0]
 8005882:	b002      	add	sp, #8
 8005884:	bd10      	pop	{r4, pc}
 8005886:	4806      	ldr	r0, [pc, #24]	; (80058a0 <xTaskRemoveFromEventList+0x84>)
 8005888:	e7ef      	b.n	800586a <xTaskRemoveFromEventList+0x4e>
 800588a:	bf00      	nop
 800588c:	20000e44 	.word	0x20000e44
 8005890:	20000e4c 	.word	0x20000e4c
 8005894:	200009dc 	.word	0x200009dc
 8005898:	200009d0 	.word	0x200009d0
 800589c:	20000ec8 	.word	0x20000ec8
 80058a0:	20000e84 	.word	0x20000e84

080058a4 <vTaskSetTimeOutState>:
 80058a4:	b510      	push	{r4, lr}
 80058a6:	4604      	mov	r4, r0
 80058a8:	b940      	cbnz	r0, 80058bc <vTaskSetTimeOutState+0x18>
 80058aa:	f04f 0350 	mov.w	r3, #80	; 0x50
 80058ae:	f383 8811 	msr	BASEPRI, r3
 80058b2:	f3bf 8f6f 	isb	sy
 80058b6:	f3bf 8f4f 	dsb	sy
 80058ba:	e7fe      	b.n	80058ba <vTaskSetTimeOutState+0x16>
 80058bc:	f000 fc7a 	bl	80061b4 <vPortEnterCritical>
 80058c0:	4b04      	ldr	r3, [pc, #16]	; (80058d4 <vTaskSetTimeOutState+0x30>)
 80058c2:	681b      	ldr	r3, [r3, #0]
 80058c4:	6023      	str	r3, [r4, #0]
 80058c6:	4b04      	ldr	r3, [pc, #16]	; (80058d8 <vTaskSetTimeOutState+0x34>)
 80058c8:	681b      	ldr	r3, [r3, #0]
 80058ca:	6063      	str	r3, [r4, #4]
 80058cc:	e8bd 4010 	ldmia.w	sp!, {r4, lr}
 80058d0:	f000 bc90 	b.w	80061f4 <vPortExitCritical>
 80058d4:	20000e7c 	.word	0x20000e7c
 80058d8:	20000ec4 	.word	0x20000ec4

080058dc <vTaskInternalSetTimeOutState>:
 80058dc:	4b03      	ldr	r3, [pc, #12]	; (80058ec <vTaskInternalSetTimeOutState+0x10>)
 80058de:	681b      	ldr	r3, [r3, #0]
 80058e0:	6003      	str	r3, [r0, #0]
 80058e2:	4b03      	ldr	r3, [pc, #12]	; (80058f0 <vTaskInternalSetTimeOutState+0x14>)
 80058e4:	681b      	ldr	r3, [r3, #0]
 80058e6:	6043      	str	r3, [r0, #4]
 80058e8:	4770      	bx	lr
 80058ea:	bf00      	nop
 80058ec:	20000e7c 	.word	0x20000e7c
 80058f0:	20000ec4 	.word	0x20000ec4

080058f4 <xTaskCheckForTimeOut>:
 80058f4:	b570      	push	{r4, r5, r6, lr}
 80058f6:	460c      	mov	r4, r1
 80058f8:	4605      	mov	r5, r0
 80058fa:	b940      	cbnz	r0, 800590e <xTaskCheckForTimeOut+0x1a>
 80058fc:	f04f 0350 	mov.w	r3, #80	; 0x50
 8005900:	f383 8811 	msr	BASEPRI, r3
 8005904:	f3bf 8f6f 	isb	sy
 8005908:	f3bf 8f4f 	dsb	sy
 800590c:	e7fe      	b.n	800590c <xTaskCheckForTimeOut+0x18>
 800590e:	b941      	cbnz	r1, 8005922 <xTaskCheckForTimeOut+0x2e>
 8005910:	f04f 0350 	mov.w	r3, #80	; 0x50
 8005914:	f383 8811 	msr	BASEPRI, r3
 8005918:	f3bf 8f6f 	isb	sy
 800591c:	f3bf 8f4f 	dsb	sy
 8005920:	e7fe      	b.n	8005920 <xTaskCheckForTimeOut+0x2c>
 8005922:	f000 fc47 	bl	80061b4 <vPortEnterCritical>
 8005926:	4b0f      	ldr	r3, [pc, #60]	; (8005964 <xTaskCheckForTimeOut+0x70>)
 8005928:	6819      	ldr	r1, [r3, #0]
 800592a:	6823      	ldr	r3, [r4, #0]
 800592c:	1c5a      	adds	r2, r3, #1
 800592e:	d010      	beq.n	8005952 <xTaskCheckForTimeOut+0x5e>
 8005930:	480d      	ldr	r0, [pc, #52]	; (8005968 <xTaskCheckForTimeOut+0x74>)
 8005932:	682e      	ldr	r6, [r5, #0]
 8005934:	6800      	ldr	r0, [r0, #0]
 8005936:	686a      	ldr	r2, [r5, #4]
 8005938:	4286      	cmp	r6, r0
 800593a:	d001      	beq.n	8005940 <xTaskCheckForTimeOut+0x4c>
 800593c:	428a      	cmp	r2, r1
 800593e:	d90f      	bls.n	8005960 <xTaskCheckForTimeOut+0x6c>
 8005940:	1a88      	subs	r0, r1, r2
 8005942:	4283      	cmp	r3, r0
 8005944:	d90a      	bls.n	800595c <xTaskCheckForTimeOut+0x68>
 8005946:	1a5b      	subs	r3, r3, r1
 8005948:	4413      	add	r3, r2
 800594a:	6023      	str	r3, [r4, #0]
 800594c:	4628      	mov	r0, r5
 800594e:	f7ff ffc5 	bl	80058dc <vTaskInternalSetTimeOutState>
 8005952:	2400      	movs	r4, #0
 8005954:	f000 fc4e 	bl	80061f4 <vPortExitCritical>
 8005958:	4620      	mov	r0, r4
 800595a:	bd70      	pop	{r4, r5, r6, pc}
 800595c:	2300      	movs	r3, #0
 800595e:	6023      	str	r3, [r4, #0]
 8005960:	2401      	movs	r4, #1
 8005962:	e7f7      	b.n	8005954 <xTaskCheckForTimeOut+0x60>
 8005964:	20000ec4 	.word	0x20000ec4
 8005968:	20000e7c 	.word	0x20000e7c

0800596c <vTaskMissedYield>:
 800596c:	4b01      	ldr	r3, [pc, #4]	; (8005974 <vTaskMissedYield+0x8>)
 800596e:	2201      	movs	r2, #1
 8005970:	601a      	str	r2, [r3, #0]
 8005972:	4770      	bx	lr
 8005974:	20000ec8 	.word	0x20000ec8

08005978 <xTaskGetCurrentTaskHandle>:
 8005978:	4b01      	ldr	r3, [pc, #4]	; (8005980 <xTaskGetCurrentTaskHandle+0x8>)
 800597a:	6818      	ldr	r0, [r3, #0]
 800597c:	4770      	bx	lr
 800597e:	bf00      	nop
 8005980:	200009d0 	.word	0x200009d0

08005984 <xTaskGetSchedulerState>:
 8005984:	4b05      	ldr	r3, [pc, #20]	; (800599c <xTaskGetSchedulerState+0x18>)
 8005986:	681b      	ldr	r3, [r3, #0]
 8005988:	b133      	cbz	r3, 8005998 <xTaskGetSchedulerState+0x14>
 800598a:	4b05      	ldr	r3, [pc, #20]	; (80059a0 <xTaskGetSchedulerState+0x1c>)
 800598c:	681b      	ldr	r3, [r3, #0]
 800598e:	2b00      	cmp	r3, #0
 8005990:	bf0c      	ite	eq
 8005992:	2002      	moveq	r0, #2
 8005994:	2000      	movne	r0, #0
 8005996:	4770      	bx	lr
 8005998:	2001      	movs	r0, #1
 800599a:	4770      	bx	lr
 800599c:	20000e98 	.word	0x20000e98
 80059a0:	20000e44 	.word	0x20000e44

080059a4 <xTaskPriorityDisinherit>:
 80059a4:	b513      	push	{r0, r1, r4, lr}
 80059a6:	b910      	cbnz	r0, 80059ae <xTaskPriorityDisinherit+0xa>
 80059a8:	2000      	movs	r0, #0
 80059aa:	b002      	add	sp, #8
 80059ac:	bd10      	pop	{r4, pc}
 80059ae:	4b1c      	ldr	r3, [pc, #112]	; (8005a20 <xTaskPriorityDisinherit+0x7c>)
 80059b0:	681c      	ldr	r4, [r3, #0]
 80059b2:	4284      	cmp	r4, r0
 80059b4:	d008      	beq.n	80059c8 <xTaskPriorityDisinherit+0x24>
 80059b6:	f04f 0350 	mov.w	r3, #80	; 0x50
 80059ba:	f383 8811 	msr	BASEPRI, r3
 80059be:	f3bf 8f6f 	isb	sy
 80059c2:	f3bf 8f4f 	dsb	sy
 80059c6:	e7fe      	b.n	80059c6 <xTaskPriorityDisinherit+0x22>
 80059c8:	6d23      	ldr	r3, [r4, #80]	; 0x50
 80059ca:	b943      	cbnz	r3, 80059de <xTaskPriorityDisinherit+0x3a>
 80059cc:	f04f 0350 	mov.w	r3, #80	; 0x50
 80059d0:	f383 8811 	msr	BASEPRI, r3
 80059d4:	f3bf 8f6f 	isb	sy
 80059d8:	f3bf 8f4f 	dsb	sy
 80059dc:	e7fe      	b.n	80059dc <xTaskPriorityDisinherit+0x38>
 80059de:	6ae1      	ldr	r1, [r4, #44]	; 0x2c
 80059e0:	6ce2      	ldr	r2, [r4, #76]	; 0x4c
 80059e2:	3b01      	subs	r3, #1
 80059e4:	4291      	cmp	r1, r2
 80059e6:	6523      	str	r3, [r4, #80]	; 0x50
 80059e8:	d0de      	beq.n	80059a8 <xTaskPriorityDisinherit+0x4>
 80059ea:	2b00      	cmp	r3, #0
 80059ec:	d1dc      	bne.n	80059a8 <xTaskPriorityDisinherit+0x4>
 80059ee:	1d21      	adds	r1, r4, #4
 80059f0:	4608      	mov	r0, r1
 80059f2:	9101      	str	r1, [sp, #4]
 80059f4:	f7fe fd67 	bl	80044c6 <uxListRemove>
 80059f8:	6ce3      	ldr	r3, [r4, #76]	; 0x4c
 80059fa:	9901      	ldr	r1, [sp, #4]
 80059fc:	62e3      	str	r3, [r4, #44]	; 0x2c
 80059fe:	f1c3 0238 	rsb	r2, r3, #56	; 0x38
 8005a02:	61a2      	str	r2, [r4, #24]
 8005a04:	4a07      	ldr	r2, [pc, #28]	; (8005a24 <xTaskPriorityDisinherit+0x80>)
 8005a06:	6810      	ldr	r0, [r2, #0]
 8005a08:	4283      	cmp	r3, r0
 8005a0a:	bf88      	it	hi
 8005a0c:	6013      	strhi	r3, [r2, #0]
 8005a0e:	4a06      	ldr	r2, [pc, #24]	; (8005a28 <xTaskPriorityDisinherit+0x84>)
 8005a10:	2014      	movs	r0, #20
 8005a12:	fb00 2003 	mla	r0, r0, r3, r2
 8005a16:	f7fe fd33 	bl	8004480 <vListInsertEnd>
 8005a1a:	2001      	movs	r0, #1
 8005a1c:	e7c5      	b.n	80059aa <xTaskPriorityDisinherit+0x6>
 8005a1e:	bf00      	nop
 8005a20:	200009d0 	.word	0x200009d0
 8005a24:	20000e4c 	.word	0x20000e4c
 8005a28:	200009dc 	.word	0x200009dc

08005a2c <xTaskNotifyWait>:
 8005a2c:	e92d 41f0 	stmdb	sp!, {r4, r5, r6, r7, r8, lr}
 8005a30:	4c22      	ldr	r4, [pc, #136]	; (8005abc <xTaskNotifyWait+0x90>)
 8005a32:	461e      	mov	r6, r3
 8005a34:	4680      	mov	r8, r0
 8005a36:	460f      	mov	r7, r1
 8005a38:	4615      	mov	r5, r2
 8005a3a:	f000 fbbb 	bl	80061b4 <vPortEnterCritical>
 8005a3e:	6823      	ldr	r3, [r4, #0]
 8005a40:	f893 30b8 	ldrb.w	r3, [r3, #184]	; 0xb8
 8005a44:	2b02      	cmp	r3, #2
 8005a46:	d018      	beq.n	8005a7a <xTaskNotifyWait+0x4e>
 8005a48:	6822      	ldr	r2, [r4, #0]
 8005a4a:	f8d2 30b4 	ldr.w	r3, [r2, #180]	; 0xb4
 8005a4e:	ea23 0308 	bic.w	r3, r3, r8
 8005a52:	f8c2 30b4 	str.w	r3, [r2, #180]	; 0xb4
 8005a56:	6823      	ldr	r3, [r4, #0]
 8005a58:	2101      	movs	r1, #1
 8005a5a:	f883 10b8 	strb.w	r1, [r3, #184]	; 0xb8
 8005a5e:	b166      	cbz	r6, 8005a7a <xTaskNotifyWait+0x4e>
 8005a60:	4630      	mov	r0, r6
 8005a62:	f7ff fb79 	bl	8005158 <prvAddCurrentTaskToDelayedList>
 8005a66:	f04f 23e0 	mov.w	r3, #3758153728	; 0xe000e000
 8005a6a:	f04f 5280 	mov.w	r2, #268435456	; 0x10000000
 8005a6e:	f8c3 2d04 	str.w	r2, [r3, #3332]	; 0xd04
 8005a72:	f3bf 8f4f 	dsb	sy
 8005a76:	f3bf 8f6f 	isb	sy
 8005a7a:	f000 fbbb 	bl	80061f4 <vPortExitCritical>
 8005a7e:	f000 fb99 	bl	80061b4 <vPortEnterCritical>
 8005a82:	b11d      	cbz	r5, 8005a8c <xTaskNotifyWait+0x60>
 8005a84:	6823      	ldr	r3, [r4, #0]
 8005a86:	f8d3 30b4 	ldr.w	r3, [r3, #180]	; 0xb4
 8005a8a:	602b      	str	r3, [r5, #0]
 8005a8c:	6823      	ldr	r3, [r4, #0]
 8005a8e:	f893 30b8 	ldrb.w	r3, [r3, #184]	; 0xb8
 8005a92:	2b02      	cmp	r3, #2
 8005a94:	bf01      	itttt	eq
 8005a96:	6822      	ldreq	r2, [r4, #0]
 8005a98:	f8d2 30b4 	ldreq.w	r3, [r2, #180]	; 0xb4
 8005a9c:	43bb      	biceq	r3, r7
 8005a9e:	f8c2 30b4 	streq.w	r3, [r2, #180]	; 0xb4
 8005aa2:	6823      	ldr	r3, [r4, #0]
 8005aa4:	f04f 0200 	mov.w	r2, #0
 8005aa8:	bf0c      	ite	eq
 8005aaa:	2501      	moveq	r5, #1
 8005aac:	2500      	movne	r5, #0
 8005aae:	f883 20b8 	strb.w	r2, [r3, #184]	; 0xb8
 8005ab2:	f000 fb9f 	bl	80061f4 <vPortExitCritical>
 8005ab6:	4628      	mov	r0, r5
 8005ab8:	e8bd 81f0 	ldmia.w	sp!, {r4, r5, r6, r7, r8, pc}
 8005abc:	200009d0 	.word	0x200009d0

08005ac0 <xTaskGenericNotify>:
 8005ac0:	b5f7      	push	{r0, r1, r2, r4, r5, r6, r7, lr}
 8005ac2:	460d      	mov	r5, r1
 8005ac4:	4616      	mov	r6, r2
 8005ac6:	461f      	mov	r7, r3
 8005ac8:	4604      	mov	r4, r0
 8005aca:	b940      	cbnz	r0, 8005ade <xTaskGenericNotify+0x1e>
 8005acc:	f04f 0350 	mov.w	r3, #80	; 0x50
 8005ad0:	f383 8811 	msr	BASEPRI, r3
 8005ad4:	f3bf 8f6f 	isb	sy
 8005ad8:	f3bf 8f4f 	dsb	sy
 8005adc:	e7fe      	b.n	8005adc <xTaskGenericNotify+0x1c>
 8005ade:	f000 fb69 	bl	80061b4 <vPortEnterCritical>
 8005ae2:	b117      	cbz	r7, 8005aea <xTaskGenericNotify+0x2a>
 8005ae4:	f8d4 30b4 	ldr.w	r3, [r4, #180]	; 0xb4
 8005ae8:	603b      	str	r3, [r7, #0]
 8005aea:	f894 30b8 	ldrb.w	r3, [r4, #184]	; 0xb8
 8005aee:	2202      	movs	r2, #2
 8005af0:	b2db      	uxtb	r3, r3
 8005af2:	f884 20b8 	strb.w	r2, [r4, #184]	; 0xb8
 8005af6:	2e04      	cmp	r6, #4
 8005af8:	d81b      	bhi.n	8005b32 <xTaskGenericNotify+0x72>
 8005afa:	e8df f006 	tbb	[pc, r6]
 8005afe:	030e      	.short	0x030e
 8005b00:	0609      	.short	0x0609
 8005b02:	16          	.byte	0x16
 8005b03:	00          	.byte	0x00
 8005b04:	f8d4 10b4 	ldr.w	r1, [r4, #180]	; 0xb4
 8005b08:	430d      	orrs	r5, r1
 8005b0a:	f8c4 50b4 	str.w	r5, [r4, #180]	; 0xb4
 8005b0e:	e004      	b.n	8005b1a <xTaskGenericNotify+0x5a>
 8005b10:	f8d4 20b4 	ldr.w	r2, [r4, #180]	; 0xb4
 8005b14:	3201      	adds	r2, #1
 8005b16:	f8c4 20b4 	str.w	r2, [r4, #180]	; 0xb4
 8005b1a:	2b01      	cmp	r3, #1
 8005b1c:	d016      	beq.n	8005b4c <xTaskGenericNotify+0x8c>
 8005b1e:	2401      	movs	r4, #1
 8005b20:	f000 fb68 	bl	80061f4 <vPortExitCritical>
 8005b24:	4620      	mov	r0, r4
 8005b26:	b003      	add	sp, #12
 8005b28:	bdf0      	pop	{r4, r5, r6, r7, pc}
 8005b2a:	2b02      	cmp	r3, #2
 8005b2c:	d1ed      	bne.n	8005b0a <xTaskGenericNotify+0x4a>
 8005b2e:	2400      	movs	r4, #0
 8005b30:	e7f6      	b.n	8005b20 <xTaskGenericNotify+0x60>
 8005b32:	f8d4 20b4 	ldr.w	r2, [r4, #180]	; 0xb4
 8005b36:	3201      	adds	r2, #1
 8005b38:	d0ef      	beq.n	8005b1a <xTaskGenericNotify+0x5a>
 8005b3a:	f04f 0350 	mov.w	r3, #80	; 0x50
 8005b3e:	f383 8811 	msr	BASEPRI, r3
 8005b42:	f3bf 8f6f 	isb	sy
 8005b46:	f3bf 8f4f 	dsb	sy
 8005b4a:	e7fe      	b.n	8005b4a <xTaskGenericNotify+0x8a>
 8005b4c:	1d21      	adds	r1, r4, #4
 8005b4e:	4608      	mov	r0, r1
 8005b50:	9101      	str	r1, [sp, #4]
 8005b52:	f7fe fcb8 	bl	80044c6 <uxListRemove>
 8005b56:	4a14      	ldr	r2, [pc, #80]	; (8005ba8 <xTaskGenericNotify+0xe8>)
 8005b58:	6ae3      	ldr	r3, [r4, #44]	; 0x2c
 8005b5a:	6810      	ldr	r0, [r2, #0]
 8005b5c:	9901      	ldr	r1, [sp, #4]
 8005b5e:	4283      	cmp	r3, r0
 8005b60:	bf88      	it	hi
 8005b62:	6013      	strhi	r3, [r2, #0]
 8005b64:	4a11      	ldr	r2, [pc, #68]	; (8005bac <xTaskGenericNotify+0xec>)
 8005b66:	2014      	movs	r0, #20
 8005b68:	fb00 2003 	mla	r0, r0, r3, r2
 8005b6c:	f7fe fc88 	bl	8004480 <vListInsertEnd>
 8005b70:	6aa3      	ldr	r3, [r4, #40]	; 0x28
 8005b72:	b143      	cbz	r3, 8005b86 <xTaskGenericNotify+0xc6>
 8005b74:	f04f 0350 	mov.w	r3, #80	; 0x50
 8005b78:	f383 8811 	msr	BASEPRI, r3
 8005b7c:	f3bf 8f6f 	isb	sy
 8005b80:	f3bf 8f4f 	dsb	sy
 8005b84:	e7fe      	b.n	8005b84 <xTaskGenericNotify+0xc4>
 8005b86:	4b0a      	ldr	r3, [pc, #40]	; (8005bb0 <xTaskGenericNotify+0xf0>)
 8005b88:	6ae2      	ldr	r2, [r4, #44]	; 0x2c
 8005b8a:	681b      	ldr	r3, [r3, #0]
 8005b8c:	6adb      	ldr	r3, [r3, #44]	; 0x2c
 8005b8e:	429a      	cmp	r2, r3
 8005b90:	d9c5      	bls.n	8005b1e <xTaskGenericNotify+0x5e>
 8005b92:	f04f 23e0 	mov.w	r3, #3758153728	; 0xe000e000
 8005b96:	f04f 5280 	mov.w	r2, #268435456	; 0x10000000
 8005b9a:	f8c3 2d04 	str.w	r2, [r3, #3332]	; 0xd04
 8005b9e:	f3bf 8f4f 	dsb	sy
 8005ba2:	f3bf 8f6f 	isb	sy
 8005ba6:	e7ba      	b.n	8005b1e <xTaskGenericNotify+0x5e>
 8005ba8:	20000e4c 	.word	0x20000e4c
 8005bac:	200009dc 	.word	0x200009dc
 8005bb0:	200009d0 	.word	0x200009d0

08005bb4 <xTaskGenericNotifyFromISR>:
 8005bb4:	e92d 43f7 	stmdb	sp!, {r0, r1, r2, r4, r5, r6, r7, r8, r9, lr}
 8005bb8:	f8dd 9028 	ldr.w	r9, [sp, #40]	; 0x28
 8005bbc:	460d      	mov	r5, r1
 8005bbe:	4616      	mov	r6, r2
 8005bc0:	461f      	mov	r7, r3
 8005bc2:	4604      	mov	r4, r0
 8005bc4:	b940      	cbnz	r0, 8005bd8 <xTaskGenericNotifyFromISR+0x24>
 8005bc6:	f04f 0350 	mov.w	r3, #80	; 0x50
 8005bca:	f383 8811 	msr	BASEPRI, r3
 8005bce:	f3bf 8f6f 	isb	sy
 8005bd2:	f3bf 8f4f 	dsb	sy
 8005bd6:	e7fe      	b.n	8005bd6 <xTaskGenericNotifyFromISR+0x22>
 8005bd8:	f000 fc02 	bl	80063e0 <vPortValidateInterruptPriority>
 8005bdc:	f3ef 8811 	mrs	r8, BASEPRI
 8005be0:	f04f 0350 	mov.w	r3, #80	; 0x50
 8005be4:	f383 8811 	msr	BASEPRI, r3
 8005be8:	f3bf 8f6f 	isb	sy
 8005bec:	f3bf 8f4f 	dsb	sy
 8005bf0:	b117      	cbz	r7, 8005bf8 <xTaskGenericNotifyFromISR+0x44>
 8005bf2:	f8d4 30b4 	ldr.w	r3, [r4, #180]	; 0xb4
 8005bf6:	603b      	str	r3, [r7, #0]
 8005bf8:	f894 30b8 	ldrb.w	r3, [r4, #184]	; 0xb8
 8005bfc:	2202      	movs	r2, #2
 8005bfe:	b2db      	uxtb	r3, r3
 8005c00:	f884 20b8 	strb.w	r2, [r4, #184]	; 0xb8
 8005c04:	2e04      	cmp	r6, #4
 8005c06:	d81b      	bhi.n	8005c40 <xTaskGenericNotifyFromISR+0x8c>
 8005c08:	e8df f006 	tbb	[pc, r6]
 8005c0c:	0609030e 	.word	0x0609030e
 8005c10:	16          	.byte	0x16
 8005c11:	00          	.byte	0x00
 8005c12:	f8d4 10b4 	ldr.w	r1, [r4, #180]	; 0xb4
 8005c16:	430d      	orrs	r5, r1
 8005c18:	f8c4 50b4 	str.w	r5, [r4, #180]	; 0xb4
 8005c1c:	e004      	b.n	8005c28 <xTaskGenericNotifyFromISR+0x74>
 8005c1e:	f8d4 20b4 	ldr.w	r2, [r4, #180]	; 0xb4
 8005c22:	3201      	adds	r2, #1
 8005c24:	f8c4 20b4 	str.w	r2, [r4, #180]	; 0xb4
 8005c28:	2b01      	cmp	r3, #1
 8005c2a:	d016      	beq.n	8005c5a <xTaskGenericNotifyFromISR+0xa6>
 8005c2c:	2001      	movs	r0, #1
 8005c2e:	f388 8811 	msr	BASEPRI, r8
 8005c32:	b003      	add	sp, #12
 8005c34:	e8bd 83f0 	ldmia.w	sp!, {r4, r5, r6, r7, r8, r9, pc}
 8005c38:	2b02      	cmp	r3, #2
 8005c3a:	d1ed      	bne.n	8005c18 <xTaskGenericNotifyFromISR+0x64>
 8005c3c:	2000      	movs	r0, #0
 8005c3e:	e7f6      	b.n	8005c2e <xTaskGenericNotifyFromISR+0x7a>
 8005c40:	f8d4 20b4 	ldr.w	r2, [r4, #180]	; 0xb4
 8005c44:	3201      	adds	r2, #1
 8005c46:	d0ef      	beq.n	8005c28 <xTaskGenericNotifyFromISR+0x74>
 8005c48:	f04f 0350 	mov.w	r3, #80	; 0x50
 8005c4c:	f383 8811 	msr	BASEPRI, r3
 8005c50:	f3bf 8f6f 	isb	sy
 8005c54:	f3bf 8f4f 	dsb	sy
 8005c58:	e7fe      	b.n	8005c58 <xTaskGenericNotifyFromISR+0xa4>
 8005c5a:	6aa3      	ldr	r3, [r4, #40]	; 0x28
 8005c5c:	b143      	cbz	r3, 8005c70 <xTaskGenericNotifyFromISR+0xbc>
 8005c5e:	f04f 0350 	mov.w	r3, #80	; 0x50
 8005c62:	f383 8811 	msr	BASEPRI, r3
 8005c66:	f3bf 8f6f 	isb	sy
 8005c6a:	f3bf 8f4f 	dsb	sy
 8005c6e:	e7fe      	b.n	8005c6e <xTaskGenericNotifyFromISR+0xba>
 8005c70:	4b13      	ldr	r3, [pc, #76]	; (8005cc0 <xTaskGenericNotifyFromISR+0x10c>)
 8005c72:	681b      	ldr	r3, [r3, #0]
 8005c74:	bb03      	cbnz	r3, 8005cb8 <xTaskGenericNotifyFromISR+0x104>
 8005c76:	1d21      	adds	r1, r4, #4
 8005c78:	4608      	mov	r0, r1
 8005c7a:	9101      	str	r1, [sp, #4]
 8005c7c:	f7fe fc23 	bl	80044c6 <uxListRemove>
 8005c80:	4a10      	ldr	r2, [pc, #64]	; (8005cc4 <xTaskGenericNotifyFromISR+0x110>)
 8005c82:	6ae3      	ldr	r3, [r4, #44]	; 0x2c
 8005c84:	6810      	ldr	r0, [r2, #0]
 8005c86:	9901      	ldr	r1, [sp, #4]
 8005c88:	4283      	cmp	r3, r0
 8005c8a:	bf88      	it	hi
 8005c8c:	6013      	strhi	r3, [r2, #0]
 8005c8e:	4a0e      	ldr	r2, [pc, #56]	; (8005cc8 <xTaskGenericNotifyFromISR+0x114>)
 8005c90:	2014      	movs	r0, #20
 8005c92:	fb00 2003 	mla	r0, r0, r3, r2
 8005c96:	f7fe fbf3 	bl	8004480 <vListInsertEnd>
 8005c9a:	4b0c      	ldr	r3, [pc, #48]	; (8005ccc <xTaskGenericNotifyFromISR+0x118>)
 8005c9c:	6ae2      	ldr	r2, [r4, #44]	; 0x2c
 8005c9e:	681b      	ldr	r3, [r3, #0]
 8005ca0:	6adb      	ldr	r3, [r3, #44]	; 0x2c
 8005ca2:	429a      	cmp	r2, r3
 8005ca4:	d9c2      	bls.n	8005c2c <xTaskGenericNotifyFromISR+0x78>
 8005ca6:	2301      	movs	r3, #1
 8005ca8:	f1b9 0f00 	cmp.w	r9, #0
 8005cac:	d001      	beq.n	8005cb2 <xTaskGenericNotifyFromISR+0xfe>
 8005cae:	f8c9 3000 	str.w	r3, [r9]
 8005cb2:	4a07      	ldr	r2, [pc, #28]	; (8005cd0 <xTaskGenericNotifyFromISR+0x11c>)
 8005cb4:	6013      	str	r3, [r2, #0]
 8005cb6:	e7b9      	b.n	8005c2c <xTaskGenericNotifyFromISR+0x78>
 8005cb8:	4806      	ldr	r0, [pc, #24]	; (8005cd4 <xTaskGenericNotifyFromISR+0x120>)
 8005cba:	f104 0118 	add.w	r1, r4, #24
 8005cbe:	e7ea      	b.n	8005c96 <xTaskGenericNotifyFromISR+0xe2>
 8005cc0:	20000e44 	.word	0x20000e44
 8005cc4:	20000e4c 	.word	0x20000e4c
 8005cc8:	200009dc 	.word	0x200009dc
 8005ccc:	200009d0 	.word	0x200009d0
 8005cd0:	20000ec8 	.word	0x20000ec8
 8005cd4:	20000e84 	.word	0x20000e84

08005cd8 <xTaskNotifyStateClear>:
 8005cd8:	b510      	push	{r4, lr}
 8005cda:	4604      	mov	r4, r0
 8005cdc:	b908      	cbnz	r0, 8005ce2 <xTaskNotifyStateClear+0xa>
 8005cde:	4b08      	ldr	r3, [pc, #32]	; (8005d00 <xTaskNotifyStateClear+0x28>)
 8005ce0:	681c      	ldr	r4, [r3, #0]
 8005ce2:	f000 fa67 	bl	80061b4 <vPortEnterCritical>
 8005ce6:	f894 30b8 	ldrb.w	r3, [r4, #184]	; 0xb8
 8005cea:	2000      	movs	r0, #0
 8005cec:	2b02      	cmp	r3, #2
 8005cee:	bf0a      	itet	eq
 8005cf0:	f884 00b8 	strbeq.w	r0, [r4, #184]	; 0xb8
 8005cf4:	4604      	movne	r4, r0
 8005cf6:	2401      	moveq	r4, #1
 8005cf8:	f000 fa7c 	bl	80061f4 <vPortExitCritical>
 8005cfc:	4620      	mov	r0, r4
 8005cfe:	bd10      	pop	{r4, pc}
 8005d00:	200009d0 	.word	0x200009d0

08005d04 <prvCheckForValidListAndQueue>:
 8005d04:	b5f7      	push	{r0, r1, r2, r4, r5, r6, r7, lr}
 8005d06:	4c11      	ldr	r4, [pc, #68]	; (8005d4c <prvCheckForValidListAndQueue+0x48>)
 8005d08:	f000 fa54 	bl	80061b4 <vPortEnterCritical>
 8005d0c:	6825      	ldr	r5, [r4, #0]
 8005d0e:	b9bd      	cbnz	r5, 8005d40 <prvCheckForValidListAndQueue+0x3c>
 8005d10:	4f0f      	ldr	r7, [pc, #60]	; (8005d50 <prvCheckForValidListAndQueue+0x4c>)
 8005d12:	4e10      	ldr	r6, [pc, #64]	; (8005d54 <prvCheckForValidListAndQueue+0x50>)
 8005d14:	4638      	mov	r0, r7
 8005d16:	f7fe fba5 	bl	8004464 <vListInitialise>
 8005d1a:	4630      	mov	r0, r6
 8005d1c:	f7fe fba2 	bl	8004464 <vListInitialise>
 8005d20:	4b0d      	ldr	r3, [pc, #52]	; (8005d58 <prvCheckForValidListAndQueue+0x54>)
 8005d22:	4a0e      	ldr	r2, [pc, #56]	; (8005d5c <prvCheckForValidListAndQueue+0x58>)
 8005d24:	601f      	str	r7, [r3, #0]
 8005d26:	4b0e      	ldr	r3, [pc, #56]	; (8005d60 <prvCheckForValidListAndQueue+0x5c>)
 8005d28:	2110      	movs	r1, #16
 8005d2a:	601e      	str	r6, [r3, #0]
 8005d2c:	200a      	movs	r0, #10
 8005d2e:	4b0d      	ldr	r3, [pc, #52]	; (8005d64 <prvCheckForValidListAndQueue+0x60>)
 8005d30:	9500      	str	r5, [sp, #0]
 8005d32:	f7fe fca5 	bl	8004680 <xQueueGenericCreateStatic>
 8005d36:	6020      	str	r0, [r4, #0]
 8005d38:	b110      	cbz	r0, 8005d40 <prvCheckForValidListAndQueue+0x3c>
 8005d3a:	490b      	ldr	r1, [pc, #44]	; (8005d68 <prvCheckForValidListAndQueue+0x64>)
 8005d3c:	f7fe feca 	bl	8004ad4 <vQueueAddToRegistry>
 8005d40:	b003      	add	sp, #12
 8005d42:	e8bd 40f0 	ldmia.w	sp!, {r4, r5, r6, r7, lr}
 8005d46:	f000 ba55 	b.w	80061f4 <vPortExitCritical>
 8005d4a:	bf00      	nop
 8005d4c:	20000ff0 	.word	0x20000ff0
 8005d50:	20000f74 	.word	0x20000f74
 8005d54:	20000f88 	.word	0x20000f88
 8005d58:	20000ecc 	.word	0x20000ecc
 8005d5c:	20000ed4 	.word	0x20000ed4
 8005d60:	20000ed0 	.word	0x20000ed0
 8005d64:	20000fa0 	.word	0x20000fa0
 8005d68:	08007939 	.word	0x08007939

08005d6c <prvInsertTimerInActiveList>:
 8005d6c:	4291      	cmp	r1, r2
 8005d6e:	b508      	push	{r3, lr}
 8005d70:	6041      	str	r1, [r0, #4]
 8005d72:	6100      	str	r0, [r0, #16]
 8005d74:	d80a      	bhi.n	8005d8c <prvInsertTimerInActiveList+0x20>
 8005d76:	1ad2      	subs	r2, r2, r3
 8005d78:	6983      	ldr	r3, [r0, #24]
 8005d7a:	429a      	cmp	r2, r3
 8005d7c:	d20d      	bcs.n	8005d9a <prvInsertTimerInActiveList+0x2e>
 8005d7e:	4b08      	ldr	r3, [pc, #32]	; (8005da0 <prvInsertTimerInActiveList+0x34>)
 8005d80:	1d01      	adds	r1, r0, #4
 8005d82:	6818      	ldr	r0, [r3, #0]
 8005d84:	f7fe fb88 	bl	8004498 <vListInsert>
 8005d88:	2000      	movs	r0, #0
 8005d8a:	bd08      	pop	{r3, pc}
 8005d8c:	429a      	cmp	r2, r3
 8005d8e:	d201      	bcs.n	8005d94 <prvInsertTimerInActiveList+0x28>
 8005d90:	4299      	cmp	r1, r3
 8005d92:	d202      	bcs.n	8005d9a <prvInsertTimerInActiveList+0x2e>
 8005d94:	4b03      	ldr	r3, [pc, #12]	; (8005da4 <prvInsertTimerInActiveList+0x38>)
 8005d96:	1d01      	adds	r1, r0, #4
 8005d98:	e7f3      	b.n	8005d82 <prvInsertTimerInActiveList+0x16>
 8005d9a:	2001      	movs	r0, #1
 8005d9c:	e7f5      	b.n	8005d8a <prvInsertTimerInActiveList+0x1e>
 8005d9e:	bf00      	nop
 8005da0:	20000ed0 	.word	0x20000ed0
 8005da4:	20000ecc 	.word	0x20000ecc

08005da8 <xTimerCreateTimerTask>:
 8005da8:	b510      	push	{r4, lr}
 8005daa:	b088      	sub	sp, #32
 8005dac:	f7ff ffaa 	bl	8005d04 <prvCheckForValidListAndQueue>
 8005db0:	4b12      	ldr	r3, [pc, #72]	; (8005dfc <xTimerCreateTimerTask+0x54>)
 8005db2:	681b      	ldr	r3, [r3, #0]
 8005db4:	b1b3      	cbz	r3, 8005de4 <xTimerCreateTimerTask+0x3c>
 8005db6:	2400      	movs	r4, #0
 8005db8:	aa07      	add	r2, sp, #28
 8005dba:	a906      	add	r1, sp, #24
 8005dbc:	a805      	add	r0, sp, #20
 8005dbe:	e9cd 4405 	strd	r4, r4, [sp, #20]
 8005dc2:	f7fe fb43 	bl	800444c <vApplicationGetTimerTaskMemory>
 8005dc6:	9b05      	ldr	r3, [sp, #20]
 8005dc8:	9302      	str	r3, [sp, #8]
 8005dca:	9b06      	ldr	r3, [sp, #24]
 8005dcc:	9301      	str	r3, [sp, #4]
 8005dce:	2302      	movs	r3, #2
 8005dd0:	9300      	str	r3, [sp, #0]
 8005dd2:	9a07      	ldr	r2, [sp, #28]
 8005dd4:	490a      	ldr	r1, [pc, #40]	; (8005e00 <xTimerCreateTimerTask+0x58>)
 8005dd6:	480b      	ldr	r0, [pc, #44]	; (8005e04 <xTimerCreateTimerTask+0x5c>)
 8005dd8:	4623      	mov	r3, r4
 8005dda:	f7ff fab5 	bl	8005348 <xTaskCreateStatic>
 8005dde:	4b0a      	ldr	r3, [pc, #40]	; (8005e08 <xTimerCreateTimerTask+0x60>)
 8005de0:	6018      	str	r0, [r3, #0]
 8005de2:	b940      	cbnz	r0, 8005df6 <xTimerCreateTimerTask+0x4e>
 8005de4:	f04f 0350 	mov.w	r3, #80	; 0x50
 8005de8:	f383 8811 	msr	BASEPRI, r3
 8005dec:	f3bf 8f6f 	isb	sy
 8005df0:	f3bf 8f4f 	dsb	sy
 8005df4:	e7fe      	b.n	8005df4 <xTimerCreateTimerTask+0x4c>
 8005df6:	2001      	movs	r0, #1
 8005df8:	b008      	add	sp, #32
 8005dfa:	bd10      	pop	{r4, pc}
 8005dfc:	20000ff0 	.word	0x20000ff0
 8005e00:	0800793e 	.word	0x0800793e
 8005e04:	08005f11 	.word	0x08005f11
 8005e08:	20000ff4 	.word	0x20000ff4

08005e0c <xTimerGenericCommand>:
 8005e0c:	b57f      	push	{r0, r1, r2, r3, r4, r5, r6, lr}
 8005e0e:	4616      	mov	r6, r2
 8005e10:	4604      	mov	r4, r0
 8005e12:	461a      	mov	r2, r3
 8005e14:	b940      	cbnz	r0, 8005e28 <xTimerGenericCommand+0x1c>
 8005e16:	f04f 0350 	mov.w	r3, #80	; 0x50
 8005e1a:	f383 8811 	msr	BASEPRI, r3
 8005e1e:	f3bf 8f6f 	isb	sy
 8005e22:	f3bf 8f4f 	dsb	sy
 8005e26:	e7fe      	b.n	8005e26 <xTimerGenericCommand+0x1a>
 8005e28:	4d0d      	ldr	r5, [pc, #52]	; (8005e60 <xTimerGenericCommand+0x54>)
 8005e2a:	6828      	ldr	r0, [r5, #0]
 8005e2c:	b180      	cbz	r0, 8005e50 <xTimerGenericCommand+0x44>
 8005e2e:	2905      	cmp	r1, #5
 8005e30:	e9cd 1600 	strd	r1, r6, [sp]
 8005e34:	9402      	str	r4, [sp, #8]
 8005e36:	dc0d      	bgt.n	8005e54 <xTimerGenericCommand+0x48>
 8005e38:	f7ff fda4 	bl	8005984 <xTaskGetSchedulerState>
 8005e3c:	2300      	movs	r3, #0
 8005e3e:	2802      	cmp	r0, #2
 8005e40:	bf08      	it	eq
 8005e42:	9a08      	ldreq	r2, [sp, #32]
 8005e44:	6828      	ldr	r0, [r5, #0]
 8005e46:	bf18      	it	ne
 8005e48:	461a      	movne	r2, r3
 8005e4a:	4669      	mov	r1, sp
 8005e4c:	f7fe fc8d 	bl	800476a <xQueueGenericSend>
 8005e50:	b004      	add	sp, #16
 8005e52:	bd70      	pop	{r4, r5, r6, pc}
 8005e54:	2300      	movs	r3, #0
 8005e56:	4669      	mov	r1, sp
 8005e58:	f7fe fd3a 	bl	80048d0 <xQueueGenericSendFromISR>
 8005e5c:	e7f8      	b.n	8005e50 <xTimerGenericCommand+0x44>
 8005e5e:	bf00      	nop
 8005e60:	20000ff0 	.word	0x20000ff0

08005e64 <prvSampleTimeNow>:
 8005e64:	e92d 47ff 	stmdb	sp!, {r0, r1, r2, r3, r4, r5, r6, r7, r8, r9, sl, lr}
 8005e68:	f8df 80a0 	ldr.w	r8, [pc, #160]	; 8005f0c <prvSampleTimeNow+0xa8>
 8005e6c:	4606      	mov	r6, r0
 8005e6e:	f7ff fb29 	bl	80054c4 <xTaskGetTickCount>
 8005e72:	f8d8 3000 	ldr.w	r3, [r8]
 8005e76:	4283      	cmp	r3, r0
 8005e78:	4605      	mov	r5, r0
 8005e7a:	d940      	bls.n	8005efe <prvSampleTimeNow+0x9a>
 8005e7c:	4f21      	ldr	r7, [pc, #132]	; (8005f04 <prvSampleTimeNow+0xa0>)
 8005e7e:	f04f 0900 	mov.w	r9, #0
 8005e82:	683b      	ldr	r3, [r7, #0]
 8005e84:	681a      	ldr	r2, [r3, #0]
 8005e86:	b95a      	cbnz	r2, 8005ea0 <prvSampleTimeNow+0x3c>
 8005e88:	4a1f      	ldr	r2, [pc, #124]	; (8005f08 <prvSampleTimeNow+0xa4>)
 8005e8a:	6811      	ldr	r1, [r2, #0]
 8005e8c:	6039      	str	r1, [r7, #0]
 8005e8e:	6013      	str	r3, [r2, #0]
 8005e90:	2301      	movs	r3, #1
 8005e92:	4628      	mov	r0, r5
 8005e94:	6033      	str	r3, [r6, #0]
 8005e96:	f8c8 5000 	str.w	r5, [r8]
 8005e9a:	b004      	add	sp, #16
 8005e9c:	e8bd 87f0 	ldmia.w	sp!, {r4, r5, r6, r7, r8, r9, sl, pc}
 8005ea0:	68db      	ldr	r3, [r3, #12]
 8005ea2:	68dc      	ldr	r4, [r3, #12]
 8005ea4:	f8d3 a000 	ldr.w	sl, [r3]
 8005ea8:	1d21      	adds	r1, r4, #4
 8005eaa:	4608      	mov	r0, r1
 8005eac:	9103      	str	r1, [sp, #12]
 8005eae:	f7fe fb0a 	bl	80044c6 <uxListRemove>
 8005eb2:	6a23      	ldr	r3, [r4, #32]
 8005eb4:	4620      	mov	r0, r4
 8005eb6:	4798      	blx	r3
 8005eb8:	f894 3028 	ldrb.w	r3, [r4, #40]	; 0x28
 8005ebc:	9903      	ldr	r1, [sp, #12]
 8005ebe:	f013 0f04 	tst.w	r3, #4
 8005ec2:	d0de      	beq.n	8005e82 <prvSampleTimeNow+0x1e>
 8005ec4:	69a3      	ldr	r3, [r4, #24]
 8005ec6:	4453      	add	r3, sl
 8005ec8:	459a      	cmp	sl, r3
 8005eca:	d205      	bcs.n	8005ed8 <prvSampleTimeNow+0x74>
 8005ecc:	6838      	ldr	r0, [r7, #0]
 8005ece:	6063      	str	r3, [r4, #4]
 8005ed0:	6124      	str	r4, [r4, #16]
 8005ed2:	f7fe fae1 	bl	8004498 <vListInsert>
 8005ed6:	e7d4      	b.n	8005e82 <prvSampleTimeNow+0x1e>
 8005ed8:	2300      	movs	r3, #0
 8005eda:	f8cd 9000 	str.w	r9, [sp]
 8005ede:	4652      	mov	r2, sl
 8005ee0:	4619      	mov	r1, r3
 8005ee2:	4620      	mov	r0, r4
 8005ee4:	f7ff ff92 	bl	8005e0c <xTimerGenericCommand>
 8005ee8:	2800      	cmp	r0, #0
 8005eea:	d1ca      	bne.n	8005e82 <prvSampleTimeNow+0x1e>
 8005eec:	f04f 0350 	mov.w	r3, #80	; 0x50
 8005ef0:	f383 8811 	msr	BASEPRI, r3
 8005ef4:	f3bf 8f6f 	isb	sy
 8005ef8:	f3bf 8f4f 	dsb	sy
 8005efc:	e7fe      	b.n	8005efc <prvSampleTimeNow+0x98>
 8005efe:	2300      	movs	r3, #0
 8005f00:	e7c7      	b.n	8005e92 <prvSampleTimeNow+0x2e>
 8005f02:	bf00      	nop
 8005f04:	20000ecc 	.word	0x20000ecc
 8005f08:	20000ed0 	.word	0x20000ed0
 8005f0c:	20000f9c 	.word	0x20000f9c

08005f10 <prvTimerTask>:
 8005f10:	e92d 43f0 	stmdb	sp!, {r4, r5, r6, r7, r8, r9, lr}
 8005f14:	4d6e      	ldr	r5, [pc, #440]	; (80060d0 <prvTimerTask+0x1c0>)
 8005f16:	4e6f      	ldr	r6, [pc, #444]	; (80060d4 <prvTimerTask+0x1c4>)
 8005f18:	b089      	sub	sp, #36	; 0x24
 8005f1a:	682b      	ldr	r3, [r5, #0]
 8005f1c:	f8d3 8000 	ldr.w	r8, [r3]
 8005f20:	f1b8 0f00 	cmp.w	r8, #0
 8005f24:	d035      	beq.n	8005f92 <prvTimerTask+0x82>
 8005f26:	68db      	ldr	r3, [r3, #12]
 8005f28:	f8d3 8000 	ldr.w	r8, [r3]
 8005f2c:	2400      	movs	r4, #0
 8005f2e:	f7ff fac1 	bl	80054b4 <vTaskSuspendAll>
 8005f32:	a804      	add	r0, sp, #16
 8005f34:	f7ff ff96 	bl	8005e64 <prvSampleTimeNow>
 8005f38:	9b04      	ldr	r3, [sp, #16]
 8005f3a:	4681      	mov	r9, r0
 8005f3c:	2b00      	cmp	r3, #0
 8005f3e:	d169      	bne.n	8006014 <prvTimerTask+0x104>
 8005f40:	2c00      	cmp	r4, #0
 8005f42:	d14c      	bne.n	8005fde <prvTimerTask+0xce>
 8005f44:	4540      	cmp	r0, r8
 8005f46:	d350      	bcc.n	8005fea <prvTimerTask+0xda>
 8005f48:	f7ff fb58 	bl	80055fc <xTaskResumeAll>
 8005f4c:	682b      	ldr	r3, [r5, #0]
 8005f4e:	68db      	ldr	r3, [r3, #12]
 8005f50:	68df      	ldr	r7, [r3, #12]
 8005f52:	1d38      	adds	r0, r7, #4
 8005f54:	f7fe fab7 	bl	80044c6 <uxListRemove>
 8005f58:	f897 3028 	ldrb.w	r3, [r7, #40]	; 0x28
 8005f5c:	0758      	lsls	r0, r3, #29
 8005f5e:	d51a      	bpl.n	8005f96 <prvTimerTask+0x86>
 8005f60:	69b9      	ldr	r1, [r7, #24]
 8005f62:	4643      	mov	r3, r8
 8005f64:	464a      	mov	r2, r9
 8005f66:	4441      	add	r1, r8
 8005f68:	4638      	mov	r0, r7
 8005f6a:	f7ff feff 	bl	8005d6c <prvInsertTimerInActiveList>
 8005f6e:	b1b0      	cbz	r0, 8005f9e <prvTimerTask+0x8e>
 8005f70:	9400      	str	r4, [sp, #0]
 8005f72:	4623      	mov	r3, r4
 8005f74:	4642      	mov	r2, r8
 8005f76:	4621      	mov	r1, r4
 8005f78:	4638      	mov	r0, r7
 8005f7a:	f7ff ff47 	bl	8005e0c <xTimerGenericCommand>
 8005f7e:	b970      	cbnz	r0, 8005f9e <prvTimerTask+0x8e>
 8005f80:	f04f 0350 	mov.w	r3, #80	; 0x50
 8005f84:	f383 8811 	msr	BASEPRI, r3
 8005f88:	f3bf 8f6f 	isb	sy
 8005f8c:	f3bf 8f4f 	dsb	sy
 8005f90:	e7fe      	b.n	8005f90 <prvTimerTask+0x80>
 8005f92:	2401      	movs	r4, #1
 8005f94:	e7cb      	b.n	8005f2e <prvTimerTask+0x1e>
 8005f96:	f023 0301 	bic.w	r3, r3, #1
 8005f9a:	f887 3028 	strb.w	r3, [r7, #40]	; 0x28
 8005f9e:	6a3b      	ldr	r3, [r7, #32]
 8005fa0:	4638      	mov	r0, r7
 8005fa2:	4798      	blx	r3
 8005fa4:	6830      	ldr	r0, [r6, #0]
 8005fa6:	2200      	movs	r2, #0
 8005fa8:	a904      	add	r1, sp, #16
 8005faa:	f7fe fcf3 	bl	8004994 <xQueueReceive>
 8005fae:	2800      	cmp	r0, #0
 8005fb0:	d0b3      	beq.n	8005f1a <prvTimerTask+0xa>
 8005fb2:	9b04      	ldr	r3, [sp, #16]
 8005fb4:	9806      	ldr	r0, [sp, #24]
 8005fb6:	2b00      	cmp	r3, #0
 8005fb8:	db2f      	blt.n	800601a <prvTimerTask+0x10a>
 8005fba:	9c06      	ldr	r4, [sp, #24]
 8005fbc:	6963      	ldr	r3, [r4, #20]
 8005fbe:	2b00      	cmp	r3, #0
 8005fc0:	d132      	bne.n	8006028 <prvTimerTask+0x118>
 8005fc2:	a803      	add	r0, sp, #12
 8005fc4:	f7ff ff4e 	bl	8005e64 <prvSampleTimeNow>
 8005fc8:	9b04      	ldr	r3, [sp, #16]
 8005fca:	4602      	mov	r2, r0
 8005fcc:	2b09      	cmp	r3, #9
 8005fce:	d8e9      	bhi.n	8005fa4 <prvTimerTask+0x94>
 8005fd0:	e8df f003 	tbb	[pc, r3]
 8005fd4:	572e2e2e 	.word	0x572e2e2e
 8005fd8:	2e2e765e 	.word	0x2e2e765e
 8005fdc:	5e57      	.short	0x5e57
 8005fde:	4b3e      	ldr	r3, [pc, #248]	; (80060d8 <prvTimerTask+0x1c8>)
 8005fe0:	681b      	ldr	r3, [r3, #0]
 8005fe2:	681c      	ldr	r4, [r3, #0]
 8005fe4:	fab4 f484 	clz	r4, r4
 8005fe8:	0964      	lsrs	r4, r4, #5
 8005fea:	6830      	ldr	r0, [r6, #0]
 8005fec:	4622      	mov	r2, r4
 8005fee:	eba8 0109 	sub.w	r1, r8, r9
 8005ff2:	f7fe fd81 	bl	8004af8 <vQueueWaitForMessageRestricted>
 8005ff6:	f7ff fb01 	bl	80055fc <xTaskResumeAll>
 8005ffa:	2800      	cmp	r0, #0
 8005ffc:	d1d2      	bne.n	8005fa4 <prvTimerTask+0x94>
 8005ffe:	f04f 23e0 	mov.w	r3, #3758153728	; 0xe000e000
 8006002:	f04f 5280 	mov.w	r2, #268435456	; 0x10000000
 8006006:	f8c3 2d04 	str.w	r2, [r3, #3332]	; 0xd04
 800600a:	f3bf 8f4f 	dsb	sy
 800600e:	f3bf 8f6f 	isb	sy
 8006012:	e7c7      	b.n	8005fa4 <prvTimerTask+0x94>
 8006014:	f7ff faf2 	bl	80055fc <xTaskResumeAll>
 8006018:	e7c4      	b.n	8005fa4 <prvTimerTask+0x94>
 800601a:	9b05      	ldr	r3, [sp, #20]
 800601c:	9907      	ldr	r1, [sp, #28]
 800601e:	4798      	blx	r3
 8006020:	9b04      	ldr	r3, [sp, #16]
 8006022:	2b00      	cmp	r3, #0
 8006024:	dbbe      	blt.n	8005fa4 <prvTimerTask+0x94>
 8006026:	e7c8      	b.n	8005fba <prvTimerTask+0xaa>
 8006028:	1d20      	adds	r0, r4, #4
 800602a:	f7fe fa4c 	bl	80044c6 <uxListRemove>
 800602e:	e7c8      	b.n	8005fc2 <prvTimerTask+0xb2>
 8006030:	f894 3028 	ldrb.w	r3, [r4, #40]	; 0x28
 8006034:	69a1      	ldr	r1, [r4, #24]
 8006036:	f043 0301 	orr.w	r3, r3, #1
 800603a:	f884 3028 	strb.w	r3, [r4, #40]	; 0x28
 800603e:	9b05      	ldr	r3, [sp, #20]
 8006040:	4620      	mov	r0, r4
 8006042:	4419      	add	r1, r3
 8006044:	f7ff fe92 	bl	8005d6c <prvInsertTimerInActiveList>
 8006048:	2800      	cmp	r0, #0
 800604a:	d0ab      	beq.n	8005fa4 <prvTimerTask+0x94>
 800604c:	6a23      	ldr	r3, [r4, #32]
 800604e:	4620      	mov	r0, r4
 8006050:	4798      	blx	r3
 8006052:	f894 3028 	ldrb.w	r3, [r4, #40]	; 0x28
 8006056:	0759      	lsls	r1, r3, #29
 8006058:	d5a4      	bpl.n	8005fa4 <prvTimerTask+0x94>
 800605a:	69a2      	ldr	r2, [r4, #24]
 800605c:	9905      	ldr	r1, [sp, #20]
 800605e:	2300      	movs	r3, #0
 8006060:	440a      	add	r2, r1
 8006062:	9300      	str	r3, [sp, #0]
 8006064:	4619      	mov	r1, r3
 8006066:	4620      	mov	r0, r4
 8006068:	f7ff fed0 	bl	8005e0c <xTimerGenericCommand>
 800606c:	2800      	cmp	r0, #0
 800606e:	d199      	bne.n	8005fa4 <prvTimerTask+0x94>
 8006070:	f04f 0350 	mov.w	r3, #80	; 0x50
 8006074:	f383 8811 	msr	BASEPRI, r3
 8006078:	f3bf 8f6f 	isb	sy
 800607c:	f3bf 8f4f 	dsb	sy
 8006080:	e7fe      	b.n	8006080 <prvTimerTask+0x170>
 8006082:	f894 3028 	ldrb.w	r3, [r4, #40]	; 0x28
 8006086:	f023 0301 	bic.w	r3, r3, #1
 800608a:	f884 3028 	strb.w	r3, [r4, #40]	; 0x28
 800608e:	e789      	b.n	8005fa4 <prvTimerTask+0x94>
 8006090:	f894 3028 	ldrb.w	r3, [r4, #40]	; 0x28
 8006094:	f043 0301 	orr.w	r3, r3, #1
 8006098:	f884 3028 	strb.w	r3, [r4, #40]	; 0x28
 800609c:	9905      	ldr	r1, [sp, #20]
 800609e:	61a1      	str	r1, [r4, #24]
 80060a0:	b941      	cbnz	r1, 80060b4 <prvTimerTask+0x1a4>
 80060a2:	f04f 0350 	mov.w	r3, #80	; 0x50
 80060a6:	f383 8811 	msr	BASEPRI, r3
 80060aa:	f3bf 8f6f 	isb	sy
 80060ae:	f3bf 8f4f 	dsb	sy
 80060b2:	e7fe      	b.n	80060b2 <prvTimerTask+0x1a2>
 80060b4:	4603      	mov	r3, r0
 80060b6:	4401      	add	r1, r0
 80060b8:	4620      	mov	r0, r4
 80060ba:	f7ff fe57 	bl	8005d6c <prvInsertTimerInActiveList>
 80060be:	e771      	b.n	8005fa4 <prvTimerTask+0x94>
 80060c0:	f894 3028 	ldrb.w	r3, [r4, #40]	; 0x28
 80060c4:	079a      	lsls	r2, r3, #30
 80060c6:	d4de      	bmi.n	8006086 <prvTimerTask+0x176>
 80060c8:	4620      	mov	r0, r4
 80060ca:	f000 fa73 	bl	80065b4 <vPortFree>
 80060ce:	e769      	b.n	8005fa4 <prvTimerTask+0x94>
 80060d0:	20000ecc 	.word	0x20000ecc
 80060d4:	20000ff0 	.word	0x20000ff0
 80060d8:	20000ed0 	.word	0x20000ed0

080060dc <prvPortStartFirstTask>:
 80060dc:	4808      	ldr	r0, [pc, #32]	; (8006100 <prvPortStartFirstTask+0x24>)
 80060de:	6800      	ldr	r0, [r0, #0]
 80060e0:	6800      	ldr	r0, [r0, #0]
 80060e2:	f380 8808 	msr	MSP, r0
 80060e6:	f04f 0000 	mov.w	r0, #0
 80060ea:	f380 8814 	msr	CONTROL, r0
 80060ee:	b662      	cpsie	i
 80060f0:	b661      	cpsie	f
 80060f2:	f3bf 8f4f 	dsb	sy
 80060f6:	f3bf 8f6f 	isb	sy
 80060fa:	df00      	svc	0
 80060fc:	bf00      	nop
 80060fe:	0000      	.short	0x0000
 8006100:	e000ed08 	.word	0xe000ed08

08006104 <vPortEnableVFP>:
 8006104:	f8df 000c 	ldr.w	r0, [pc, #12]	; 8006114 <vPortEnableVFP+0x10>
 8006108:	6801      	ldr	r1, [r0, #0]
 800610a:	f441 0170 	orr.w	r1, r1, #15728640	; 0xf00000
 800610e:	6001      	str	r1, [r0, #0]
 8006110:	4770      	bx	lr
 8006112:	0000      	.short	0x0000
 8006114:	e000ed88 	.word	0xe000ed88

08006118 <prvTaskExitError>:
 8006118:	b082      	sub	sp, #8
 800611a:	2300      	movs	r3, #0
 800611c:	9301      	str	r3, [sp, #4]
 800611e:	4b0d      	ldr	r3, [pc, #52]	; (8006154 <prvTaskExitError+0x3c>)
 8006120:	681b      	ldr	r3, [r3, #0]
 8006122:	3301      	adds	r3, #1
 8006124:	d008      	beq.n	8006138 <prvTaskExitError+0x20>
 8006126:	f04f 0350 	mov.w	r3, #80	; 0x50
 800612a:	f383 8811 	msr	BASEPRI, r3
 800612e:	f3bf 8f6f 	isb	sy
 8006132:	f3bf 8f4f 	dsb	sy
 8006136:	e7fe      	b.n	8006136 <prvTaskExitError+0x1e>
 8006138:	f04f 0350 	mov.w	r3, #80	; 0x50
 800613c:	f383 8811 	msr	BASEPRI, r3
 8006140:	f3bf 8f6f 	isb	sy
 8006144:	f3bf 8f4f 	dsb	sy
 8006148:	9b01      	ldr	r3, [sp, #4]
 800614a:	2b00      	cmp	r3, #0
 800614c:	d0fc      	beq.n	8006148 <prvTaskExitError+0x30>
 800614e:	b002      	add	sp, #8
 8006150:	4770      	bx	lr
 8006152:	bf00      	nop
 8006154:	20000118 	.word	0x20000118

08006158 <pxPortInitialiseStack>:
 8006158:	f04f 7380 	mov.w	r3, #16777216	; 0x1000000
 800615c:	f840 3c04 	str.w	r3, [r0, #-4]
 8006160:	4b07      	ldr	r3, [pc, #28]	; (8006180 <pxPortInitialiseStack+0x28>)
 8006162:	f840 3c0c 	str.w	r3, [r0, #-12]
 8006166:	f021 0101 	bic.w	r1, r1, #1
 800616a:	f06f 0302 	mvn.w	r3, #2
 800616e:	f840 1c08 	str.w	r1, [r0, #-8]
 8006172:	f840 2c20 	str.w	r2, [r0, #-32]
 8006176:	f840 3c24 	str.w	r3, [r0, #-36]
 800617a:	3844      	subs	r0, #68	; 0x44
 800617c:	4770      	bx	lr
 800617e:	bf00      	nop
 8006180:	08006119 	.word	0x08006119
	...

08006190 <SVC_Handler>:
 8006190:	4b07      	ldr	r3, [pc, #28]	; (80061b0 <pxCurrentTCBConst2>)
 8006192:	6819      	ldr	r1, [r3, #0]
 8006194:	6808      	ldr	r0, [r1, #0]
 8006196:	e8b0 4ff0 	ldmia.w	r0!, {r4, r5, r6, r7, r8, r9, sl, fp, lr}
 800619a:	f380 8809 	msr	PSP, r0
 800619e:	f3bf 8f6f 	isb	sy
 80061a2:	f04f 0000 	mov.w	r0, #0
 80061a6:	f380 8811 	msr	BASEPRI, r0
 80061aa:	4770      	bx	lr
 80061ac:	f3af 8000 	nop.w

080061b0 <pxCurrentTCBConst2>:
 80061b0:	200009d0 	.word	0x200009d0

080061b4 <vPortEnterCritical>:
 80061b4:	f04f 0350 	mov.w	r3, #80	; 0x50
 80061b8:	f383 8811 	msr	BASEPRI, r3
 80061bc:	f3bf 8f6f 	isb	sy
 80061c0:	f3bf 8f4f 	dsb	sy
 80061c4:	4a0a      	ldr	r2, [pc, #40]	; (80061f0 <vPortEnterCritical+0x3c>)
 80061c6:	6813      	ldr	r3, [r2, #0]
 80061c8:	3301      	adds	r3, #1
 80061ca:	2b01      	cmp	r3, #1
 80061cc:	6013      	str	r3, [r2, #0]
 80061ce:	d10e      	bne.n	80061ee <vPortEnterCritical+0x3a>
 80061d0:	f04f 23e0 	mov.w	r3, #3758153728	; 0xe000e000
 80061d4:	f8d3 3d04 	ldr.w	r3, [r3, #3332]	; 0xd04
 80061d8:	b2db      	uxtb	r3, r3
 80061da:	b143      	cbz	r3, 80061ee <vPortEnterCritical+0x3a>
 80061dc:	f04f 0350 	mov.w	r3, #80	; 0x50
 80061e0:	f383 8811 	msr	BASEPRI, r3
 80061e4:	f3bf 8f6f 	isb	sy
 80061e8:	f3bf 8f4f 	dsb	sy
 80061ec:	e7fe      	b.n	80061ec <vPortEnterCritical+0x38>
 80061ee:	4770      	bx	lr
 80061f0:	20000118 	.word	0x20000118

080061f4 <vPortExitCritical>:
 80061f4:	4a08      	ldr	r2, [pc, #32]	; (8006218 <vPortExitCritical+0x24>)
 80061f6:	6813      	ldr	r3, [r2, #0]
 80061f8:	b943      	cbnz	r3, 800620c <vPortExitCritical+0x18>
 80061fa:	f04f 0350 	mov.w	r3, #80	; 0x50
 80061fe:	f383 8811 	msr	BASEPRI, r3
 8006202:	f3bf 8f6f 	isb	sy
 8006206:	f3bf 8f4f 	dsb	sy
 800620a:	e7fe      	b.n	800620a <vPortExitCritical+0x16>
 800620c:	3b01      	subs	r3, #1
 800620e:	6013      	str	r3, [r2, #0]
 8006210:	b90b      	cbnz	r3, 8006216 <vPortExitCritical+0x22>
 8006212:	f383 8811 	msr	BASEPRI, r3
 8006216:	4770      	bx	lr
 8006218:	20000118 	.word	0x20000118
 800621c:	00000000 	.word	0x00000000

08006220 <PendSV_Handler>:
 8006220:	f3ef 8009 	mrs	r0, PSP
 8006224:	f3bf 8f6f 	isb	sy
 8006228:	4b15      	ldr	r3, [pc, #84]	; (8006280 <pxCurrentTCBConst>)
 800622a:	681a      	ldr	r2, [r3, #0]
 800622c:	f01e 0f10 	tst.w	lr, #16
 8006230:	bf08      	it	eq
 8006232:	ed20 8a10 	vstmdbeq	r0!, {s16-s31}
 8006236:	e920 4ff0 	stmdb	r0!, {r4, r5, r6, r7, r8, r9, sl, fp, lr}
 800623a:	6010      	str	r0, [r2, #0]
 800623c:	e92d 0009 	stmdb	sp!, {r0, r3}
 8006240:	f04f 0050 	mov.w	r0, #80	; 0x50
 8006244:	f380 8811 	msr	BASEPRI, r0
 8006248:	f3bf 8f4f 	dsb	sy
 800624c:	f3bf 8f6f 	isb	sy
 8006250:	f7ff fa6c 	bl	800572c <vTaskSwitchContext>
 8006254:	f04f 0000 	mov.w	r0, #0
 8006258:	f380 8811 	msr	BASEPRI, r0
 800625c:	bc09      	pop	{r0, r3}
 800625e:	6819      	ldr	r1, [r3, #0]
 8006260:	6808      	ldr	r0, [r1, #0]
 8006262:	e8b0 4ff0 	ldmia.w	r0!, {r4, r5, r6, r7, r8, r9, sl, fp, lr}
 8006266:	f01e 0f10 	tst.w	lr, #16
 800626a:	bf08      	it	eq
 800626c:	ecb0 8a10 	vldmiaeq	r0!, {s16-s31}
 8006270:	f380 8809 	msr	PSP, r0
 8006274:	f3bf 8f6f 	isb	sy
 8006278:	4770      	bx	lr
 800627a:	bf00      	nop
 800627c:	f3af 8000 	nop.w

08006280 <pxCurrentTCBConst>:
 8006280:	200009d0 	.word	0x200009d0

08006284 <xPortSysTickHandler>:
 8006284:	b508      	push	{r3, lr}
 8006286:	f04f 0350 	mov.w	r3, #80	; 0x50
 800628a:	f383 8811 	msr	BASEPRI, r3
 800628e:	f3bf 8f6f 	isb	sy
 8006292:	f3bf 8f4f 	dsb	sy
 8006296:	f7ff f91b 	bl	80054d0 <xTaskIncrementTick>
 800629a:	b128      	cbz	r0, 80062a8 <xPortSysTickHandler+0x24>
 800629c:	f04f 23e0 	mov.w	r3, #3758153728	; 0xe000e000
 80062a0:	f04f 5280 	mov.w	r2, #268435456	; 0x10000000
 80062a4:	f8c3 2d04 	str.w	r2, [r3, #3332]	; 0xd04
 80062a8:	2300      	movs	r3, #0
 80062aa:	f383 8811 	msr	BASEPRI, r3
 80062ae:	bd08      	pop	{r3, pc}

080062b0 <vPortSetupTimerInterrupt>:
 80062b0:	f04f 22e0 	mov.w	r2, #3758153728	; 0xe000e000
 80062b4:	2300      	movs	r3, #0
 80062b6:	6113      	str	r3, [r2, #16]
 80062b8:	6193      	str	r3, [r2, #24]
 80062ba:	4b05      	ldr	r3, [pc, #20]	; (80062d0 <vPortSetupTimerInterrupt+0x20>)
 80062bc:	f44f 717a 	mov.w	r1, #1000	; 0x3e8
 80062c0:	681b      	ldr	r3, [r3, #0]
 80062c2:	fbb3 f3f1 	udiv	r3, r3, r1
 80062c6:	3b01      	subs	r3, #1
 80062c8:	6153      	str	r3, [r2, #20]
 80062ca:	2307      	movs	r3, #7
 80062cc:	6113      	str	r3, [r2, #16]
 80062ce:	4770      	bx	lr
 80062d0:	2000011c 	.word	0x2000011c

080062d4 <xPortStartScheduler>:
 80062d4:	f04f 23e0 	mov.w	r3, #3758153728	; 0xe000e000
 80062d8:	b537      	push	{r0, r1, r2, r4, r5, lr}
 80062da:	f8d3 1d00 	ldr.w	r1, [r3, #3328]	; 0xd00
 80062de:	4a3a      	ldr	r2, [pc, #232]	; (80063c8 <xPortStartScheduler+0xf4>)
 80062e0:	4291      	cmp	r1, r2
 80062e2:	d108      	bne.n	80062f6 <xPortStartScheduler+0x22>
 80062e4:	f04f 0350 	mov.w	r3, #80	; 0x50
 80062e8:	f383 8811 	msr	BASEPRI, r3
 80062ec:	f3bf 8f6f 	isb	sy
 80062f0:	f3bf 8f4f 	dsb	sy
 80062f4:	e7fe      	b.n	80062f4 <xPortStartScheduler+0x20>
 80062f6:	f8d3 2d00 	ldr.w	r2, [r3, #3328]	; 0xd00
 80062fa:	4b34      	ldr	r3, [pc, #208]	; (80063cc <xPortStartScheduler+0xf8>)
 80062fc:	429a      	cmp	r2, r3
 80062fe:	d108      	bne.n	8006312 <xPortStartScheduler+0x3e>
 8006300:	f04f 0350 	mov.w	r3, #80	; 0x50
 8006304:	f383 8811 	msr	BASEPRI, r3
 8006308:	f3bf 8f6f 	isb	sy
 800630c:	f3bf 8f4f 	dsb	sy
 8006310:	e7fe      	b.n	8006310 <xPortStartScheduler+0x3c>
 8006312:	4b2f      	ldr	r3, [pc, #188]	; (80063d0 <xPortStartScheduler+0xfc>)
 8006314:	781a      	ldrb	r2, [r3, #0]
 8006316:	b2d2      	uxtb	r2, r2
 8006318:	9201      	str	r2, [sp, #4]
 800631a:	22ff      	movs	r2, #255	; 0xff
 800631c:	701a      	strb	r2, [r3, #0]
 800631e:	781b      	ldrb	r3, [r3, #0]
 8006320:	4a2c      	ldr	r2, [pc, #176]	; (80063d4 <xPortStartScheduler+0x100>)
 8006322:	b2db      	uxtb	r3, r3
 8006324:	f88d 3003 	strb.w	r3, [sp, #3]
 8006328:	f89d 3003 	ldrb.w	r3, [sp, #3]
 800632c:	f003 0350 	and.w	r3, r3, #80	; 0x50
 8006330:	7013      	strb	r3, [r2, #0]
 8006332:	4a29      	ldr	r2, [pc, #164]	; (80063d8 <xPortStartScheduler+0x104>)
 8006334:	2307      	movs	r3, #7
 8006336:	6013      	str	r3, [r2, #0]
 8006338:	2100      	movs	r1, #0
 800633a:	f89d 0003 	ldrb.w	r0, [sp, #3]
 800633e:	0600      	lsls	r0, r0, #24
 8006340:	f103 34ff 	add.w	r4, r3, #4294967295
 8006344:	d40c      	bmi.n	8006360 <xPortStartScheduler+0x8c>
 8006346:	b111      	cbz	r1, 800634e <xPortStartScheduler+0x7a>
 8006348:	2b03      	cmp	r3, #3
 800634a:	6013      	str	r3, [r2, #0]
 800634c:	d011      	beq.n	8006372 <xPortStartScheduler+0x9e>
 800634e:	f04f 0350 	mov.w	r3, #80	; 0x50
 8006352:	f383 8811 	msr	BASEPRI, r3
 8006356:	f3bf 8f6f 	isb	sy
 800635a:	f3bf 8f4f 	dsb	sy
 800635e:	e7fe      	b.n	800635e <xPortStartScheduler+0x8a>
 8006360:	f89d 3003 	ldrb.w	r3, [sp, #3]
 8006364:	005b      	lsls	r3, r3, #1
 8006366:	b2db      	uxtb	r3, r3
 8006368:	f88d 3003 	strb.w	r3, [sp, #3]
 800636c:	2101      	movs	r1, #1
 800636e:	4623      	mov	r3, r4
 8006370:	e7e3      	b.n	800633a <xPortStartScheduler+0x66>
 8006372:	f44f 7340 	mov.w	r3, #768	; 0x300
 8006376:	6013      	str	r3, [r2, #0]
 8006378:	9b01      	ldr	r3, [sp, #4]
 800637a:	4a15      	ldr	r2, [pc, #84]	; (80063d0 <xPortStartScheduler+0xfc>)
 800637c:	f04f 24e0 	mov.w	r4, #3758153728	; 0xe000e000
 8006380:	b2db      	uxtb	r3, r3
 8006382:	7013      	strb	r3, [r2, #0]
 8006384:	f8d4 3d20 	ldr.w	r3, [r4, #3360]	; 0xd20
 8006388:	f443 0370 	orr.w	r3, r3, #15728640	; 0xf00000
 800638c:	f8c4 3d20 	str.w	r3, [r4, #3360]	; 0xd20
 8006390:	f8d4 3d20 	ldr.w	r3, [r4, #3360]	; 0xd20
 8006394:	f043 4370 	orr.w	r3, r3, #4026531840	; 0xf0000000
 8006398:	f8c4 3d20 	str.w	r3, [r4, #3360]	; 0xd20
 800639c:	f7ff ff88 	bl	80062b0 <vPortSetupTimerInterrupt>
 80063a0:	4b0e      	ldr	r3, [pc, #56]	; (80063dc <xPortStartScheduler+0x108>)
 80063a2:	2500      	movs	r5, #0
 80063a4:	601d      	str	r5, [r3, #0]
 80063a6:	f7ff fead 	bl	8006104 <vPortEnableVFP>
 80063aa:	f8d4 3f34 	ldr.w	r3, [r4, #3892]	; 0xf34
 80063ae:	f043 4340 	orr.w	r3, r3, #3221225472	; 0xc0000000
 80063b2:	f8c4 3f34 	str.w	r3, [r4, #3892]	; 0xf34
 80063b6:	f7ff fe91 	bl	80060dc <prvPortStartFirstTask>
 80063ba:	f7ff f9b7 	bl	800572c <vTaskSwitchContext>
 80063be:	f7ff feab 	bl	8006118 <prvTaskExitError>
 80063c2:	4628      	mov	r0, r5
 80063c4:	b003      	add	sp, #12
 80063c6:	bd30      	pop	{r4, r5, pc}
 80063c8:	410fc271 	.word	0x410fc271
 80063cc:	410fc270 	.word	0x410fc270
 80063d0:	e000e400 	.word	0xe000e400
 80063d4:	20000ff8 	.word	0x20000ff8
 80063d8:	20000ffc 	.word	0x20000ffc
 80063dc:	20000118 	.word	0x20000118

080063e0 <vPortValidateInterruptPriority>:
 80063e0:	f3ef 8305 	mrs	r3, IPSR
 80063e4:	2b0f      	cmp	r3, #15
 80063e6:	d90e      	bls.n	8006406 <vPortValidateInterruptPriority+0x26>
 80063e8:	4a11      	ldr	r2, [pc, #68]	; (8006430 <vPortValidateInterruptPriority+0x50>)
 80063ea:	5c9b      	ldrb	r3, [r3, r2]
 80063ec:	4a11      	ldr	r2, [pc, #68]	; (8006434 <vPortValidateInterruptPriority+0x54>)
 80063ee:	7812      	ldrb	r2, [r2, #0]
 80063f0:	429a      	cmp	r2, r3
 80063f2:	d908      	bls.n	8006406 <vPortValidateInterruptPriority+0x26>
 80063f4:	f04f 0350 	mov.w	r3, #80	; 0x50
 80063f8:	f383 8811 	msr	BASEPRI, r3
 80063fc:	f3bf 8f6f 	isb	sy
 8006400:	f3bf 8f4f 	dsb	sy
 8006404:	e7fe      	b.n	8006404 <vPortValidateInterruptPriority+0x24>
 8006406:	f04f 23e0 	mov.w	r3, #3758153728	; 0xe000e000
 800640a:	4a0b      	ldr	r2, [pc, #44]	; (8006438 <vPortValidateInterruptPriority+0x58>)
 800640c:	f8d3 3d0c 	ldr.w	r3, [r3, #3340]	; 0xd0c
 8006410:	6812      	ldr	r2, [r2, #0]
 8006412:	f403 63e0 	and.w	r3, r3, #1792	; 0x700
 8006416:	4293      	cmp	r3, r2
 8006418:	d908      	bls.n	800642c <vPortValidateInterruptPriority+0x4c>
 800641a:	f04f 0350 	mov.w	r3, #80	; 0x50
 800641e:	f383 8811 	msr	BASEPRI, r3
 8006422:	f3bf 8f6f 	isb	sy
 8006426:	f3bf 8f4f 	dsb	sy
 800642a:	e7fe      	b.n	800642a <vPortValidateInterruptPriority+0x4a>
 800642c:	4770      	bx	lr
 800642e:	bf00      	nop
 8006430:	e000e3f0 	.word	0xe000e3f0
 8006434:	20000ff8 	.word	0x20000ff8
 8006438:	20000ffc 	.word	0x20000ffc

0800643c <prvInsertBlockIntoFreeList>:
 800643c:	b510      	push	{r4, lr}
 800643e:	4b0f      	ldr	r3, [pc, #60]	; (800647c <prvInsertBlockIntoFreeList+0x40>)
 8006440:	461a      	mov	r2, r3
 8006442:	681b      	ldr	r3, [r3, #0]
 8006444:	4283      	cmp	r3, r0
 8006446:	d3fb      	bcc.n	8006440 <prvInsertBlockIntoFreeList+0x4>
 8006448:	6854      	ldr	r4, [r2, #4]
 800644a:	1911      	adds	r1, r2, r4
 800644c:	4288      	cmp	r0, r1
 800644e:	bf01      	itttt	eq
 8006450:	6841      	ldreq	r1, [r0, #4]
 8006452:	4610      	moveq	r0, r2
 8006454:	1909      	addeq	r1, r1, r4
 8006456:	6051      	streq	r1, [r2, #4]
 8006458:	6844      	ldr	r4, [r0, #4]
 800645a:	1901      	adds	r1, r0, r4
 800645c:	428b      	cmp	r3, r1
 800645e:	d107      	bne.n	8006470 <prvInsertBlockIntoFreeList+0x34>
 8006460:	4907      	ldr	r1, [pc, #28]	; (8006480 <prvInsertBlockIntoFreeList+0x44>)
 8006462:	6809      	ldr	r1, [r1, #0]
 8006464:	428b      	cmp	r3, r1
 8006466:	bf1f      	itttt	ne
 8006468:	6859      	ldrne	r1, [r3, #4]
 800646a:	681b      	ldrne	r3, [r3, #0]
 800646c:	1909      	addne	r1, r1, r4
 800646e:	6041      	strne	r1, [r0, #4]
 8006470:	4290      	cmp	r0, r2
 8006472:	6003      	str	r3, [r0, #0]
 8006474:	bf18      	it	ne
 8006476:	6010      	strne	r0, [r2, #0]
 8006478:	bd10      	pop	{r4, pc}
 800647a:	bf00      	nop
 800647c:	20001bd0 	.word	0x20001bd0
 8006480:	20001000 	.word	0x20001000

08006484 <pvPortMalloc>:
 8006484:	e92d 41f0 	stmdb	sp!, {r4, r5, r6, r7, r8, lr}
 8006488:	4604      	mov	r4, r0
 800648a:	f7ff f813 	bl	80054b4 <vTaskSuspendAll>
 800648e:	4842      	ldr	r0, [pc, #264]	; (8006598 <pvPortMalloc+0x114>)
 8006490:	4d42      	ldr	r5, [pc, #264]	; (800659c <pvPortMalloc+0x118>)
 8006492:	6803      	ldr	r3, [r0, #0]
 8006494:	bb0b      	cbnz	r3, 80064da <pvPortMalloc+0x56>
 8006496:	4942      	ldr	r1, [pc, #264]	; (80065a0 <pvPortMalloc+0x11c>)
 8006498:	074e      	lsls	r6, r1, #29
 800649a:	bf1f      	itttt	ne
 800649c:	1dcb      	addne	r3, r1, #7
 800649e:	f023 0307 	bicne.w	r3, r3, #7
 80064a2:	f601 32b8 	addwne	r2, r1, #3000	; 0xbb8
 80064a6:	1ad2      	subne	r2, r2, r3
 80064a8:	bf14      	ite	ne
 80064aa:	4619      	movne	r1, r3
 80064ac:	f640 32b8 	movweq	r2, #3000	; 0xbb8
 80064b0:	440a      	add	r2, r1
 80064b2:	4e3c      	ldr	r6, [pc, #240]	; (80065a4 <pvPortMalloc+0x120>)
 80064b4:	3a08      	subs	r2, #8
 80064b6:	f022 0207 	bic.w	r2, r2, #7
 80064ba:	2300      	movs	r3, #0
 80064bc:	6073      	str	r3, [r6, #4]
 80064be:	6031      	str	r1, [r6, #0]
 80064c0:	e9c2 3300 	strd	r3, r3, [r2]
 80064c4:	1a53      	subs	r3, r2, r1
 80064c6:	e9c1 2300 	strd	r2, r3, [r1]
 80064ca:	6002      	str	r2, [r0, #0]
 80064cc:	4a36      	ldr	r2, [pc, #216]	; (80065a8 <pvPortMalloc+0x124>)
 80064ce:	6013      	str	r3, [r2, #0]
 80064d0:	4a36      	ldr	r2, [pc, #216]	; (80065ac <pvPortMalloc+0x128>)
 80064d2:	6013      	str	r3, [r2, #0]
 80064d4:	f04f 4300 	mov.w	r3, #2147483648	; 0x80000000
 80064d8:	602b      	str	r3, [r5, #0]
 80064da:	682f      	ldr	r7, [r5, #0]
 80064dc:	4227      	tst	r7, r4
 80064de:	d155      	bne.n	800658c <pvPortMalloc+0x108>
 80064e0:	2c00      	cmp	r4, #0
 80064e2:	d046      	beq.n	8006572 <pvPortMalloc+0xee>
 80064e4:	f104 0308 	add.w	r3, r4, #8
 80064e8:	0761      	lsls	r1, r4, #29
 80064ea:	bf1c      	itt	ne
 80064ec:	f023 0307 	bicne.w	r3, r3, #7
 80064f0:	3308      	addne	r3, #8
 80064f2:	2b00      	cmp	r3, #0
 80064f4:	d04a      	beq.n	800658c <pvPortMalloc+0x108>
 80064f6:	4c2d      	ldr	r4, [pc, #180]	; (80065ac <pvPortMalloc+0x128>)
 80064f8:	6826      	ldr	r6, [r4, #0]
 80064fa:	429e      	cmp	r6, r3
 80064fc:	d346      	bcc.n	800658c <pvPortMalloc+0x108>
 80064fe:	4a29      	ldr	r2, [pc, #164]	; (80065a4 <pvPortMalloc+0x120>)
 8006500:	6815      	ldr	r5, [r2, #0]
 8006502:	6869      	ldr	r1, [r5, #4]
 8006504:	4299      	cmp	r1, r3
 8006506:	d204      	bcs.n	8006512 <pvPortMalloc+0x8e>
 8006508:	f8d5 c000 	ldr.w	ip, [r5]
 800650c:	f1bc 0f00 	cmp.w	ip, #0
 8006510:	d115      	bne.n	800653e <pvPortMalloc+0xba>
 8006512:	6800      	ldr	r0, [r0, #0]
 8006514:	42a8      	cmp	r0, r5
 8006516:	d039      	beq.n	800658c <pvPortMalloc+0x108>
 8006518:	1ac9      	subs	r1, r1, r3
 800651a:	6828      	ldr	r0, [r5, #0]
 800651c:	f8d2 8000 	ldr.w	r8, [r2]
 8006520:	6010      	str	r0, [r2, #0]
 8006522:	2910      	cmp	r1, #16
 8006524:	d912      	bls.n	800654c <pvPortMalloc+0xc8>
 8006526:	18e8      	adds	r0, r5, r3
 8006528:	0742      	lsls	r2, r0, #29
 800652a:	d00b      	beq.n	8006544 <pvPortMalloc+0xc0>
 800652c:	f04f 0350 	mov.w	r3, #80	; 0x50
 8006530:	f383 8811 	msr	BASEPRI, r3
 8006534:	f3bf 8f6f 	isb	sy
 8006538:	f3bf 8f4f 	dsb	sy
 800653c:	e7fe      	b.n	800653c <pvPortMalloc+0xb8>
 800653e:	462a      	mov	r2, r5
 8006540:	4665      	mov	r5, ip
 8006542:	e7de      	b.n	8006502 <pvPortMalloc+0x7e>
 8006544:	6041      	str	r1, [r0, #4]
 8006546:	606b      	str	r3, [r5, #4]
 8006548:	f7ff ff78 	bl	800643c <prvInsertBlockIntoFreeList>
 800654c:	686b      	ldr	r3, [r5, #4]
 800654e:	4916      	ldr	r1, [pc, #88]	; (80065a8 <pvPortMalloc+0x124>)
 8006550:	4a17      	ldr	r2, [pc, #92]	; (80065b0 <pvPortMalloc+0x12c>)
 8006552:	6808      	ldr	r0, [r1, #0]
 8006554:	1af6      	subs	r6, r6, r3
 8006556:	431f      	orrs	r7, r3
 8006558:	2300      	movs	r3, #0
 800655a:	602b      	str	r3, [r5, #0]
 800655c:	6813      	ldr	r3, [r2, #0]
 800655e:	6026      	str	r6, [r4, #0]
 8006560:	4286      	cmp	r6, r0
 8006562:	f103 0301 	add.w	r3, r3, #1
 8006566:	bf38      	it	cc
 8006568:	600e      	strcc	r6, [r1, #0]
 800656a:	f108 0408 	add.w	r4, r8, #8
 800656e:	606f      	str	r7, [r5, #4]
 8006570:	6013      	str	r3, [r2, #0]
 8006572:	f7ff f843 	bl	80055fc <xTaskResumeAll>
 8006576:	0763      	lsls	r3, r4, #29
 8006578:	d00a      	beq.n	8006590 <pvPortMalloc+0x10c>
 800657a:	f04f 0350 	mov.w	r3, #80	; 0x50
 800657e:	f383 8811 	msr	BASEPRI, r3
 8006582:	f3bf 8f6f 	isb	sy
 8006586:	f3bf 8f4f 	dsb	sy
 800658a:	e7fe      	b.n	800658a <pvPortMalloc+0x106>
 800658c:	2400      	movs	r4, #0
 800658e:	e7f0      	b.n	8006572 <pvPortMalloc+0xee>
 8006590:	4620      	mov	r0, r4
 8006592:	e8bd 81f0 	ldmia.w	sp!, {r4, r5, r6, r7, r8, pc}
 8006596:	bf00      	nop
 8006598:	20001000 	.word	0x20001000
 800659c:	20001bbc 	.word	0x20001bbc
 80065a0:	20001004 	.word	0x20001004
 80065a4:	20001bd0 	.word	0x20001bd0
 80065a8:	20001bc4 	.word	0x20001bc4
 80065ac:	20001bc0 	.word	0x20001bc0
 80065b0:	20001bc8 	.word	0x20001bc8

080065b4 <vPortFree>:
 80065b4:	b510      	push	{r4, lr}
 80065b6:	4604      	mov	r4, r0
 80065b8:	b390      	cbz	r0, 8006620 <vPortFree+0x6c>
 80065ba:	4a1a      	ldr	r2, [pc, #104]	; (8006624 <vPortFree+0x70>)
 80065bc:	f850 3c04 	ldr.w	r3, [r0, #-4]
 80065c0:	6812      	ldr	r2, [r2, #0]
 80065c2:	4213      	tst	r3, r2
 80065c4:	d108      	bne.n	80065d8 <vPortFree+0x24>
 80065c6:	f04f 0350 	mov.w	r3, #80	; 0x50
 80065ca:	f383 8811 	msr	BASEPRI, r3
 80065ce:	f3bf 8f6f 	isb	sy
 80065d2:	f3bf 8f4f 	dsb	sy
 80065d6:	e7fe      	b.n	80065d6 <vPortFree+0x22>
 80065d8:	f850 1c08 	ldr.w	r1, [r0, #-8]
 80065dc:	b141      	cbz	r1, 80065f0 <vPortFree+0x3c>
 80065de:	f04f 0350 	mov.w	r3, #80	; 0x50
 80065e2:	f383 8811 	msr	BASEPRI, r3
 80065e6:	f3bf 8f6f 	isb	sy
 80065ea:	f3bf 8f4f 	dsb	sy
 80065ee:	e7fe      	b.n	80065ee <vPortFree+0x3a>
 80065f0:	ea23 0302 	bic.w	r3, r3, r2
 80065f4:	f840 3c04 	str.w	r3, [r0, #-4]
 80065f8:	f7fe ff5c 	bl	80054b4 <vTaskSuspendAll>
 80065fc:	4a0a      	ldr	r2, [pc, #40]	; (8006628 <vPortFree+0x74>)
 80065fe:	f854 3c04 	ldr.w	r3, [r4, #-4]
 8006602:	6811      	ldr	r1, [r2, #0]
 8006604:	f1a4 0008 	sub.w	r0, r4, #8
 8006608:	440b      	add	r3, r1
 800660a:	6013      	str	r3, [r2, #0]
 800660c:	f7ff ff16 	bl	800643c <prvInsertBlockIntoFreeList>
 8006610:	4a06      	ldr	r2, [pc, #24]	; (800662c <vPortFree+0x78>)
 8006612:	6813      	ldr	r3, [r2, #0]
 8006614:	e8bd 4010 	ldmia.w	sp!, {r4, lr}
 8006618:	3301      	adds	r3, #1
 800661a:	6013      	str	r3, [r2, #0]
 800661c:	f7fe bfee 	b.w	80055fc <xTaskResumeAll>
 8006620:	bd10      	pop	{r4, pc}
 8006622:	bf00      	nop
 8006624:	20001bbc 	.word	0x20001bbc
 8006628:	20001bc0 	.word	0x20001bc0
 800662c:	20001bcc 	.word	0x20001bcc

08006630 <led3>:
 8006630:	2801      	cmp	r0, #1
 8006632:	4602      	mov	r2, r0
 8006634:	d104      	bne.n	8006640 <led3+0x10>
 8006636:	4804      	ldr	r0, [pc, #16]	; (8006648 <led3+0x18>)
 8006638:	f44f 5100 	mov.w	r1, #8192	; 0x2000
 800663c:	f7fa bbd6 	b.w	8000dec <HAL_GPIO_WritePin>
 8006640:	2800      	cmp	r0, #0
 8006642:	d0f8      	beq.n	8006636 <led3+0x6>
 8006644:	4770      	bx	lr
 8006646:	bf00      	nop
 8006648:	48000800 	.word	0x48000800

0800664c <LL_AHB2_GRP1_EnableClock>:
 800664c:	4b05      	ldr	r3, [pc, #20]	; (8006664 <LL_AHB2_GRP1_EnableClock+0x18>)
 800664e:	6cda      	ldr	r2, [r3, #76]	; 0x4c
 8006650:	4302      	orrs	r2, r0
 8006652:	64da      	str	r2, [r3, #76]	; 0x4c
 8006654:	6cdb      	ldr	r3, [r3, #76]	; 0x4c
 8006656:	b082      	sub	sp, #8
 8006658:	4018      	ands	r0, r3
 800665a:	9001      	str	r0, [sp, #4]
 800665c:	9b01      	ldr	r3, [sp, #4]
 800665e:	b002      	add	sp, #8
 8006660:	4770      	bx	lr
 8006662:	bf00      	nop
 8006664:	40021000 	.word	0x40021000

08006668 <StartDefaultTask>:
 8006668:	b508      	push	{r3, lr}
 800666a:	f000 fd1d 	bl	80070a8 <MX_USB_DEVICE_Init>
 800666e:	f000 ffa5 	bl	80075bc <usbserialInit>
 8006672:	4d0f      	ldr	r5, [pc, #60]	; (80066b0 <StartDefaultTask+0x48>)
 8006674:	4c0f      	ldr	r4, [pc, #60]	; (80066b4 <StartDefaultTask+0x4c>)
 8006676:	4e10      	ldr	r6, [pc, #64]	; (80066b8 <StartDefaultTask+0x50>)
 8006678:	4628      	mov	r0, r5
 800667a:	f000 fff3 	bl	8007664 <usbserialPrint>
 800667e:	6923      	ldr	r3, [r4, #16]
 8006680:	071b      	lsls	r3, r3, #28
 8006682:	d50f      	bpl.n	80066a4 <StartDefaultTask+0x3c>
 8006684:	2001      	movs	r0, #1
 8006686:	f7ff ffd3 	bl	8006630 <led3>
 800668a:	2064      	movs	r0, #100	; 0x64
 800668c:	f7fd fe8b 	bl	80043a6 <osDelay>
 8006690:	2000      	movs	r0, #0
 8006692:	f7ff ffcd 	bl	8006630 <led3>
 8006696:	4630      	mov	r0, r6
 8006698:	f000 ffe4 	bl	8007664 <usbserialPrint>
 800669c:	f44f 707a 	mov.w	r0, #1000	; 0x3e8
 80066a0:	f7f9 fdd0 	bl	8000244 <HAL_Delay>
 80066a4:	f44f 707a 	mov.w	r0, #1000	; 0x3e8
 80066a8:	f7fd fe7d 	bl	80043a6 <osDelay>
 80066ac:	e7e4      	b.n	8006678 <StartDefaultTask+0x10>
 80066ae:	bf00      	nop
 80066b0:	08007946 	.word	0x08007946
 80066b4:	48000400 	.word	0x48000400
 80066b8:	08007954 	.word	0x08007954

080066bc <StartprodTask>:
 80066bc:	b508      	push	{r3, lr}
 80066be:	f000 fcf3 	bl	80070a8 <MX_USB_DEVICE_Init>
 80066c2:	f000 ff7b 	bl	80075bc <usbserialInit>
 80066c6:	4c06      	ldr	r4, [pc, #24]	; (80066e0 <StartprodTask+0x24>)
 80066c8:	4620      	mov	r0, r4
 80066ca:	f000 ffcb 	bl	8007664 <usbserialPrint>
 80066ce:	f44f 707a 	mov.w	r0, #1000	; 0x3e8
 80066d2:	f7f9 fdb7 	bl	8000244 <HAL_Delay>
 80066d6:	f44f 707a 	mov.w	r0, #1000	; 0x3e8
 80066da:	f7fd fe64 	bl	80043a6 <osDelay>
 80066de:	e7f3      	b.n	80066c8 <StartprodTask+0xc>
 80066e0:	0800795d 	.word	0x0800795d

080066e4 <StartconsTask>:
 80066e4:	b508      	push	{r3, lr}
 80066e6:	f000 fcdf 	bl	80070a8 <MX_USB_DEVICE_Init>
 80066ea:	f000 ff67 	bl	80075bc <usbserialInit>
 80066ee:	4c06      	ldr	r4, [pc, #24]	; (8006708 <StartconsTask+0x24>)
 80066f0:	4620      	mov	r0, r4
 80066f2:	f000 ffb7 	bl	8007664 <usbserialPrint>
 80066f6:	f44f 707a 	mov.w	r0, #1000	; 0x3e8
 80066fa:	f7f9 fda3 	bl	8000244 <HAL_Delay>
 80066fe:	f44f 707a 	mov.w	r0, #1000	; 0x3e8
 8006702:	f7fd fe50 	bl	80043a6 <osDelay>
 8006706:	e7f3      	b.n	80066f0 <StartconsTask+0xc>
 8006708:	0800796c 	.word	0x0800796c

0800670c <LL_GPIO_SetPinPull.constprop.0>:
 800670c:	4b08      	ldr	r3, [pc, #32]	; (8006730 <LL_GPIO_SetPinPull.constprop.0+0x24>)
 800670e:	68da      	ldr	r2, [r3, #12]
 8006710:	fa90 f3a0 	rbit	r3, r0
 8006714:	fab3 f383 	clz	r3, r3
 8006718:	2103      	movs	r1, #3
 800671a:	005b      	lsls	r3, r3, #1
 800671c:	fa01 f303 	lsl.w	r3, r1, r3
 8006720:	ea22 0303 	bic.w	r3, r2, r3
 8006724:	fa90 f0a0 	rbit	r0, r0
 8006728:	4a01      	ldr	r2, [pc, #4]	; (8006730 <LL_GPIO_SetPinPull.constprop.0+0x24>)
 800672a:	60d3      	str	r3, [r2, #12]
 800672c:	4770      	bx	lr
 800672e:	bf00      	nop
 8006730:	48000400 	.word	0x48000400

08006734 <LL_GPIO_SetPinMode.constprop.0>:
 8006734:	4b08      	ldr	r3, [pc, #32]	; (8006758 <LL_GPIO_SetPinMode.constprop.0+0x24>)
 8006736:	681a      	ldr	r2, [r3, #0]
 8006738:	fa90 f3a0 	rbit	r3, r0
 800673c:	fab3 f383 	clz	r3, r3
 8006740:	2103      	movs	r1, #3
 8006742:	005b      	lsls	r3, r3, #1
 8006744:	fa01 f303 	lsl.w	r3, r1, r3
 8006748:	ea22 0303 	bic.w	r3, r2, r3
 800674c:	fa90 f0a0 	rbit	r0, r0
 8006750:	4a01      	ldr	r2, [pc, #4]	; (8006758 <LL_GPIO_SetPinMode.constprop.0+0x24>)
 8006752:	6013      	str	r3, [r2, #0]
 8006754:	4770      	bx	lr
 8006756:	bf00      	nop
 8006758:	48000400 	.word	0x48000400

0800675c <SystemClock_Config>:
 800675c:	b510      	push	{r4, lr}
 800675e:	b096      	sub	sp, #88	; 0x58
 8006760:	2244      	movs	r2, #68	; 0x44
 8006762:	2100      	movs	r1, #0
 8006764:	a805      	add	r0, sp, #20
 8006766:	f001 f80f 	bl	8007788 <memset>
 800676a:	2100      	movs	r1, #0
 800676c:	2214      	movs	r2, #20
 800676e:	4668      	mov	r0, sp
 8006770:	f001 f80a 	bl	8007788 <memset>
 8006774:	f44f 7000 	mov.w	r0, #512	; 0x200
 8006778:	f7fb f8d0 	bl	800191c <HAL_PWREx_ControlVoltageScaling>
 800677c:	2225      	movs	r2, #37	; 0x25
 800677e:	f44f 23a0 	mov.w	r3, #327680	; 0x50000
 8006782:	e9cd 2305 	strd	r2, r3, [sp, #20]
 8006786:	2305      	movs	r3, #5
 8006788:	9307      	str	r3, [sp, #28]
 800678a:	2201      	movs	r2, #1
 800678c:	2302      	movs	r3, #2
 800678e:	2403      	movs	r4, #3
 8006790:	e9cd 230e 	strd	r2, r3, [sp, #56]	; 0x38
 8006794:	e9cd 4210 	strd	r4, r2, [sp, #64]	; 0x40
 8006798:	a805      	add	r0, sp, #20
 800679a:	2210      	movs	r2, #16
 800679c:	e9cd 2312 	strd	r2, r3, [sp, #72]	; 0x48
 80067a0:	e9cd 3314 	strd	r3, r3, [sp, #80]	; 0x50
 80067a4:	f7fb f988 	bl	8001ab8 <HAL_RCC_OscConfig>
 80067a8:	230f      	movs	r3, #15
 80067aa:	e9cd 3400 	strd	r3, r4, [sp]
 80067ae:	2104      	movs	r1, #4
 80067b0:	2300      	movs	r3, #0
 80067b2:	4668      	mov	r0, sp
 80067b4:	e9cd 3302 	strd	r3, r3, [sp, #8]
 80067b8:	9304      	str	r3, [sp, #16]
 80067ba:	f7fb fc2b 	bl	8002014 <HAL_RCC_ClockConfig>
 80067be:	b016      	add	sp, #88	; 0x58
 80067c0:	bd10      	pop	{r4, pc}

080067c2 <PeriphCommonClock_Config>:
 80067c2:	b500      	push	{lr}
 80067c4:	b0a5      	sub	sp, #148	; 0x94
 80067c6:	226c      	movs	r2, #108	; 0x6c
 80067c8:	2100      	movs	r1, #0
 80067ca:	a809      	add	r0, sp, #36	; 0x24
 80067cc:	f000 ffdc 	bl	8007788 <memset>
 80067d0:	f44f 4380 	mov.w	r3, #16384	; 0x4000
 80067d4:	9301      	str	r3, [sp, #4]
 80067d6:	f04f 5380 	mov.w	r3, #268435456	; 0x10000000
 80067da:	9320      	str	r3, [sp, #128]	; 0x80
 80067dc:	2003      	movs	r0, #3
 80067de:	2301      	movs	r3, #1
 80067e0:	e9cd 0302 	strd	r0, r3, [sp, #8]
 80067e4:	f04f 0c20 	mov.w	ip, #32
 80067e8:	2302      	movs	r3, #2
 80067ea:	e9cd c304 	strd	ip, r3, [sp, #16]
 80067ee:	2304      	movs	r3, #4
 80067f0:	e9cd 3306 	strd	r3, r3, [sp, #24]
 80067f4:	a801      	add	r0, sp, #4
 80067f6:	f04f 7380 	mov.w	r3, #16777216	; 0x1000000
 80067fa:	9308      	str	r3, [sp, #32]
 80067fc:	f7fb fdd8 	bl	80023b0 <HAL_RCCEx_PeriphCLKConfig>
 8006800:	b025      	add	sp, #148	; 0x94
 8006802:	f85d fb04 	ldr.w	pc, [sp], #4
	...

08006808 <main>:
 8006808:	b580      	push	{r7, lr}
 800680a:	2400      	movs	r4, #0
 800680c:	b08c      	sub	sp, #48	; 0x30
 800680e:	f7f9 fcf7 	bl	8000200 <HAL_Init>
 8006812:	f7ff ffa3 	bl	800675c <SystemClock_Config>
 8006816:	f7ff ffd4 	bl	80067c2 <PeriphCommonClock_Config>
 800681a:	2218      	movs	r2, #24
 800681c:	4621      	mov	r1, r4
 800681e:	a803      	add	r0, sp, #12
 8006820:	e9cd 4400 	strd	r4, r4, [sp]
 8006824:	9402      	str	r4, [sp, #8]
 8006826:	f000 ffaf 	bl	8007788 <memset>
 800682a:	2010      	movs	r0, #16
 800682c:	f7ff ff0e 	bl	800664c <LL_AHB2_GRP1_EnableClock>
 8006830:	2004      	movs	r0, #4
 8006832:	f7ff ff0b 	bl	800664c <LL_AHB2_GRP1_EnableClock>
 8006836:	2080      	movs	r0, #128	; 0x80
 8006838:	f7ff ff08 	bl	800664c <LL_AHB2_GRP1_EnableClock>
 800683c:	2001      	movs	r0, #1
 800683e:	f7ff ff05 	bl	800664c <LL_AHB2_GRP1_EnableClock>
 8006842:	f8df 83b0 	ldr.w	r8, [pc, #944]	; 8006bf4 <main+0x3ec>
 8006846:	2002      	movs	r0, #2
 8006848:	f7ff ff00 	bl	800664c <LL_AHB2_GRP1_EnableClock>
 800684c:	f44f 5570 	mov.w	r5, #15360	; 0x3c00
 8006850:	2008      	movs	r0, #8
 8006852:	f7ff fefb 	bl	800664c <LL_AHB2_GRP1_EnableClock>
 8006856:	a903      	add	r1, sp, #12
 8006858:	f8c8 5028 	str.w	r5, [r8, #40]	; 0x28
 800685c:	f647 73ff 	movw	r3, #32767	; 0x7fff
 8006860:	48bf      	ldr	r0, [pc, #764]	; (8006b60 <main+0x358>)
 8006862:	9407      	str	r4, [sp, #28]
 8006864:	e9cd 3403 	strd	r3, r4, [sp, #12]
 8006868:	f7fc f9c6 	bl	8002bf8 <LL_GPIO_Init>
 800686c:	9503      	str	r5, [sp, #12]
 800686e:	a903      	add	r1, sp, #12
 8006870:	2501      	movs	r5, #1
 8006872:	4640      	mov	r0, r8
 8006874:	2603      	movs	r6, #3
 8006876:	f44f 4700 	mov.w	r7, #32768	; 0x8000
 800687a:	e9cd 5404 	strd	r5, r4, [sp, #16]
 800687e:	e9cd 4406 	strd	r4, r4, [sp, #24]
 8006882:	f7fc f9b9 	bl	8002bf8 <LL_GPIO_Init>
 8006886:	a903      	add	r1, sp, #12
 8006888:	4640      	mov	r0, r8
 800688a:	e9cd 7603 	strd	r7, r6, [sp, #12]
 800688e:	9407      	str	r4, [sp, #28]
 8006890:	f7fc f9b2 	bl	8002bf8 <LL_GPIO_Init>
 8006894:	230a      	movs	r3, #10
 8006896:	a903      	add	r1, sp, #12
 8006898:	48b2      	ldr	r0, [pc, #712]	; (8006b64 <main+0x35c>)
 800689a:	9407      	str	r4, [sp, #28]
 800689c:	e9cd 3603 	strd	r3, r6, [sp, #12]
 80068a0:	f04f 0802 	mov.w	r8, #2
 80068a4:	f7fc f9a8 	bl	8002bf8 <LL_GPIO_Init>
 80068a8:	a903      	add	r1, sp, #12
 80068aa:	48af      	ldr	r0, [pc, #700]	; (8006b68 <main+0x360>)
 80068ac:	9407      	str	r4, [sp, #28]
 80068ae:	e9cd 8603 	strd	r8, r6, [sp, #12]
 80068b2:	f7fc f9a1 	bl	8002bf8 <LL_GPIO_Init>
 80068b6:	a903      	add	r1, sp, #12
 80068b8:	48a9      	ldr	r0, [pc, #676]	; (8006b60 <main+0x358>)
 80068ba:	9507      	str	r5, [sp, #28]
 80068bc:	e9cd 7403 	strd	r7, r4, [sp, #12]
 80068c0:	f7fc f99a 	bl	8002bf8 <LL_GPIO_Init>
 80068c4:	f44f 63be 	mov.w	r3, #1520	; 0x5f0
 80068c8:	a903      	add	r1, sp, #12
 80068ca:	48a7      	ldr	r0, [pc, #668]	; (8006b68 <main+0x360>)
 80068cc:	f8cd 801c 	str.w	r8, [sp, #28]
 80068d0:	e9cd 3403 	strd	r3, r4, [sp, #12]
 80068d4:	f7fc f990 	bl	8002bf8 <LL_GPIO_Init>
 80068d8:	f64f 73ff 	movw	r3, #65535	; 0xffff
 80068dc:	a903      	add	r1, sp, #12
 80068de:	48a3      	ldr	r0, [pc, #652]	; (8006b6c <main+0x364>)
 80068e0:	9407      	str	r4, [sp, #28]
 80068e2:	e9cd 3403 	strd	r3, r4, [sp, #12]
 80068e6:	f7fc f987 	bl	8002bf8 <LL_GPIO_Init>
 80068ea:	a903      	add	r1, sp, #12
 80068ec:	f04f 4090 	mov.w	r0, #1207959552	; 0x48000000
 80068f0:	e9cd 7603 	strd	r7, r6, [sp, #12]
 80068f4:	9407      	str	r4, [sp, #28]
 80068f6:	f7fc f97f 	bl	8002bf8 <LL_GPIO_Init>
 80068fa:	4a9d      	ldr	r2, [pc, #628]	; (8006b70 <main+0x368>)
 80068fc:	6911      	ldr	r1, [r2, #16]
 80068fe:	f44f 4370 	mov.w	r3, #61440	; 0xf000
 8006902:	f421 4170 	bic.w	r1, r1, #61440	; 0xf000
 8006906:	fa93 f3a3 	rbit	r3, r3
 800690a:	fab3 f383 	clz	r3, r3
 800690e:	409d      	lsls	r5, r3
 8006910:	430d      	orrs	r5, r1
 8006912:	6115      	str	r5, [r2, #16]
 8006914:	6892      	ldr	r2, [r2, #8]
 8006916:	f44f 4370 	mov.w	r3, #61440	; 0xf000
 800691a:	f422 4270 	bic.w	r2, r2, #61440	; 0xf000
 800691e:	fa93 f3a3 	rbit	r3, r3
 8006922:	2501      	movs	r5, #1
 8006924:	fab3 f383 	clz	r3, r3
 8006928:	fa05 f303 	lsl.w	r3, r5, r3
 800692c:	4313      	orrs	r3, r2
 800692e:	4a90      	ldr	r2, [pc, #576]	; (8006b70 <main+0x368>)
 8006930:	f44f 6700 	mov.w	r7, #2048	; 0x800
 8006934:	6093      	str	r3, [r2, #8]
 8006936:	4668      	mov	r0, sp
 8006938:	2608      	movs	r6, #8
 800693a:	e9cd 7400 	strd	r7, r4, [sp]
 800693e:	f8ad 5008 	strh.w	r5, [sp, #8]
 8006942:	f88d 500a 	strb.w	r5, [sp, #10]
 8006946:	f7fc f8b5 	bl	8002ab4 <LL_EXTI_Init>
 800694a:	4668      	mov	r0, sp
 800694c:	e9cd 6400 	strd	r6, r4, [sp]
 8006950:	f8ad 5008 	strh.w	r5, [sp, #8]
 8006954:	f88d 500a 	strb.w	r5, [sp, #10]
 8006958:	f7fc f8ac 	bl	8002ab4 <LL_EXTI_Init>
 800695c:	4638      	mov	r0, r7
 800695e:	f7ff fed5 	bl	800670c <LL_GPIO_SetPinPull.constprop.0>
 8006962:	4630      	mov	r0, r6
 8006964:	f7ff fed2 	bl	800670c <LL_GPIO_SetPinPull.constprop.0>
 8006968:	4638      	mov	r0, r7
 800696a:	f7ff fee3 	bl	8006734 <LL_GPIO_SetPinMode.constprop.0>
 800696e:	4630      	mov	r0, r6
 8006970:	f7ff fee0 	bl	8006734 <LL_GPIO_SetPinMode.constprop.0>
 8006974:	4b7f      	ldr	r3, [pc, #508]	; (8006b74 <main+0x36c>)
 8006976:	68db      	ldr	r3, [r3, #12]
 8006978:	f3c3 2302 	ubfx	r3, r3, #8, #3
 800697c:	f1c3 0207 	rsb	r2, r3, #7
 8006980:	2a04      	cmp	r2, #4
 8006982:	f103 0104 	add.w	r1, r3, #4
 8006986:	bf28      	it	cs
 8006988:	2204      	movcs	r2, #4
 800698a:	2906      	cmp	r1, #6
 800698c:	bf88      	it	hi
 800698e:	1edc      	subhi	r4, r3, #3
 8006990:	f04f 33ff 	mov.w	r3, #4294967295
 8006994:	4093      	lsls	r3, r2
 8006996:	43db      	mvns	r3, r3
 8006998:	f003 0305 	and.w	r3, r3, #5
 800699c:	40a3      	lsls	r3, r4
 800699e:	4a76      	ldr	r2, [pc, #472]	; (8006b78 <main+0x370>)
 80069a0:	011b      	lsls	r3, r3, #4
 80069a2:	b2db      	uxtb	r3, r3
 80069a4:	f882 3328 	strb.w	r3, [r2, #808]	; 0x328
 80069a8:	f44f 7380 	mov.w	r3, #256	; 0x100
 80069ac:	6053      	str	r3, [r2, #4]
 80069ae:	4d73      	ldr	r5, [pc, #460]	; (8006b7c <main+0x374>)
 80069b0:	2224      	movs	r2, #36	; 0x24
 80069b2:	2100      	movs	r1, #0
 80069b4:	a803      	add	r0, sp, #12
 80069b6:	2400      	movs	r4, #0
 80069b8:	f000 fee6 	bl	8007788 <memset>
 80069bc:	4b70      	ldr	r3, [pc, #448]	; (8006b80 <main+0x378>)
 80069be:	602b      	str	r3, [r5, #0]
 80069c0:	4628      	mov	r0, r5
 80069c2:	f7fa f89d 	bl	8000b00 <HAL_DAC_Init>
 80069c6:	2701      	movs	r7, #1
 80069c8:	4622      	mov	r2, r4
 80069ca:	a903      	add	r1, sp, #12
 80069cc:	4628      	mov	r0, r5
 80069ce:	e9cd 4403 	strd	r4, r4, [sp, #12]
 80069d2:	e9cd 7406 	strd	r7, r4, [sp, #24]
 80069d6:	9405      	str	r4, [sp, #20]
 80069d8:	f7fa f8a5 	bl	8000b26 <HAL_DAC_ConfigChannel>
 80069dc:	2210      	movs	r2, #16
 80069de:	a903      	add	r1, sp, #12
 80069e0:	4628      	mov	r0, r5
 80069e2:	f7fa f8a0 	bl	8000b26 <HAL_DAC_ConfigChannel>
 80069e6:	4867      	ldr	r0, [pc, #412]	; (8006b84 <main+0x37c>)
 80069e8:	4b67      	ldr	r3, [pc, #412]	; (8006b88 <main+0x380>)
 80069ea:	6184      	str	r4, [r0, #24]
 80069ec:	2508      	movs	r5, #8
 80069ee:	e9c0 3400 	strd	r3, r4, [r0]
 80069f2:	60c5      	str	r5, [r0, #12]
 80069f4:	e9c0 4404 	strd	r4, r4, [r0, #16]
 80069f8:	6084      	str	r4, [r0, #8]
 80069fa:	61c4      	str	r4, [r0, #28]
 80069fc:	f7fa fa8c 	bl	8000f18 <HAL_OPAMP_Init>
 8006a00:	4862      	ldr	r0, [pc, #392]	; (8006b8c <main+0x384>)
 8006a02:	4b63      	ldr	r3, [pc, #396]	; (8006b90 <main+0x388>)
 8006a04:	60c5      	str	r5, [r0, #12]
 8006a06:	e9c0 3400 	strd	r3, r4, [r0]
 8006a0a:	4d62      	ldr	r5, [pc, #392]	; (8006b94 <main+0x38c>)
 8006a0c:	6184      	str	r4, [r0, #24]
 8006a0e:	e9c0 4404 	strd	r4, r4, [r0, #16]
 8006a12:	6084      	str	r4, [r0, #8]
 8006a14:	61c4      	str	r4, [r0, #28]
 8006a16:	f7fa fa7f 	bl	8000f18 <HAL_OPAMP_Init>
 8006a1a:	2218      	movs	r2, #24
 8006a1c:	4621      	mov	r1, r4
 8006a1e:	a803      	add	r0, sp, #12
 8006a20:	e9cd 4400 	strd	r4, r4, [sp]
 8006a24:	9402      	str	r4, [sp, #8]
 8006a26:	f000 feaf 	bl	8007788 <memset>
 8006a2a:	4b5b      	ldr	r3, [pc, #364]	; (8006b98 <main+0x390>)
 8006a2c:	832c      	strh	r4, [r5, #24]
 8006a2e:	2604      	movs	r6, #4
 8006a30:	f44f 2a80 	mov.w	sl, #262144	; 0x40000
 8006a34:	4628      	mov	r0, r5
 8006a36:	e9c5 3a00 	strd	r3, sl, [r5]
 8006a3a:	e9c5 4402 	strd	r4, r4, [r5, #8]
 8006a3e:	e9c5 440a 	strd	r4, r4, [r5, #40]	; 0x28
 8006a42:	612c      	str	r4, [r5, #16]
 8006a44:	616e      	str	r6, [r5, #20]
 8006a46:	61ef      	str	r7, [r5, #28]
 8006a48:	f885 4020 	strb.w	r4, [r5, #32]
 8006a4c:	f885 4030 	strb.w	r4, [r5, #48]	; 0x30
 8006a50:	636c      	str	r4, [r5, #52]	; 0x34
 8006a52:	f885 4038 	strb.w	r4, [r5, #56]	; 0x38
 8006a56:	f7f9 fc4b 	bl	80002f0 <HAL_ADC_Init>
 8006a5a:	4669      	mov	r1, sp
 8006a5c:	4628      	mov	r0, r5
 8006a5e:	9400      	str	r4, [sp, #0]
 8006a60:	f7f9 fef6 	bl	8000850 <HAL_ADCEx_MultiModeConfigChannel>
 8006a64:	4b4d      	ldr	r3, [pc, #308]	; (8006b9c <main+0x394>)
 8006a66:	9405      	str	r4, [sp, #20]
 8006a68:	f04f 0906 	mov.w	r9, #6
 8006a6c:	f04f 087f 	mov.w	r8, #127	; 0x7f
 8006a70:	a903      	add	r1, sp, #12
 8006a72:	4628      	mov	r0, r5
 8006a74:	e9cd 3903 	strd	r3, r9, [sp, #12]
 8006a78:	4d49      	ldr	r5, [pc, #292]	; (8006ba0 <main+0x398>)
 8006a7a:	9408      	str	r4, [sp, #32]
 8006a7c:	e9cd 8606 	strd	r8, r6, [sp, #24]
 8006a80:	f7f9 fd14 	bl	80004ac <HAL_ADC_ConfigChannel>
 8006a84:	2218      	movs	r2, #24
 8006a86:	4621      	mov	r1, r4
 8006a88:	a803      	add	r0, sp, #12
 8006a8a:	f000 fe7d 	bl	8007788 <memset>
 8006a8e:	4b45      	ldr	r3, [pc, #276]	; (8006ba4 <main+0x39c>)
 8006a90:	832c      	strh	r4, [r5, #24]
 8006a92:	4628      	mov	r0, r5
 8006a94:	e9c5 3a00 	strd	r3, sl, [r5]
 8006a98:	e9c5 4402 	strd	r4, r4, [r5, #8]
 8006a9c:	e9c5 4604 	strd	r4, r6, [r5, #16]
 8006aa0:	e9c5 440a 	strd	r4, r4, [r5, #40]	; 0x28
 8006aa4:	61ef      	str	r7, [r5, #28]
 8006aa6:	f885 4020 	strb.w	r4, [r5, #32]
 8006aaa:	f885 4030 	strb.w	r4, [r5, #48]	; 0x30
 8006aae:	636c      	str	r4, [r5, #52]	; 0x34
 8006ab0:	f885 4038 	strb.w	r4, [r5, #56]	; 0x38
 8006ab4:	f7f9 fc1c 	bl	80002f0 <HAL_ADC_Init>
 8006ab8:	4b3b      	ldr	r3, [pc, #236]	; (8006ba8 <main+0x3a0>)
 8006aba:	a903      	add	r1, sp, #12
 8006abc:	4628      	mov	r0, r5
 8006abe:	e9cd 3903 	strd	r3, r9, [sp, #12]
 8006ac2:	e9cd 4805 	strd	r4, r8, [sp, #20]
 8006ac6:	e9cd 6407 	strd	r6, r4, [sp, #28]
 8006aca:	f7f9 fcef 	bl	80004ac <HAL_ADC_ConfigChannel>
 8006ace:	4837      	ldr	r0, [pc, #220]	; (8006bac <main+0x3a4>)
 8006ad0:	4b37      	ldr	r3, [pc, #220]	; (8006bb0 <main+0x3a8>)
 8006ad2:	6003      	str	r3, [r0, #0]
 8006ad4:	2370      	movs	r3, #112	; 0x70
 8006ad6:	e9c0 4303 	strd	r4, r3, [r0, #12]
 8006ada:	e9c0 4405 	strd	r4, r4, [r0, #20]
 8006ade:	e9c0 4401 	strd	r4, r4, [r0, #4]
 8006ae2:	61c4      	str	r4, [r0, #28]
 8006ae4:	6204      	str	r4, [r0, #32]
 8006ae6:	f7f9 ff1f 	bl	8000928 <HAL_COMP_Init>
 8006aea:	4832      	ldr	r0, [pc, #200]	; (8006bb4 <main+0x3ac>)
 8006aec:	4b32      	ldr	r3, [pc, #200]	; (8006bb8 <main+0x3b0>)
 8006aee:	6084      	str	r4, [r0, #8]
 8006af0:	e9c0 3400 	strd	r3, r4, [r0]
 8006af4:	230c      	movs	r3, #12
 8006af6:	e9c0 3403 	strd	r3, r4, [r0, #12]
 8006afa:	e9c0 4405 	strd	r4, r4, [r0, #20]
 8006afe:	e9c0 4407 	strd	r4, r4, [r0, #28]
 8006b02:	e9c0 440a 	strd	r4, r4, [r0, #40]	; 0x28
 8006b06:	6304      	str	r4, [r0, #48]	; 0x30
 8006b08:	6244      	str	r4, [r0, #36]	; 0x24
 8006b0a:	f7fa f989 	bl	8000e20 <HAL_LCD_Init>
 8006b0e:	f7fd fb4f 	bl	80041b0 <osKernelInitialize>
 8006b12:	4a2a      	ldr	r2, [pc, #168]	; (8006bbc <main+0x3b4>)
 8006b14:	2102      	movs	r1, #2
 8006b16:	2010      	movs	r0, #16
 8006b18:	f7fd fc51 	bl	80043be <osMessageQueueNew>
 8006b1c:	4b28      	ldr	r3, [pc, #160]	; (8006bc0 <main+0x3b8>)
 8006b1e:	4a29      	ldr	r2, [pc, #164]	; (8006bc4 <main+0x3bc>)
 8006b20:	6018      	str	r0, [r3, #0]
 8006b22:	4621      	mov	r1, r4
 8006b24:	4828      	ldr	r0, [pc, #160]	; (8006bc8 <main+0x3c0>)
 8006b26:	f7fd fb6f 	bl	8004208 <osThreadNew>
 8006b2a:	4b28      	ldr	r3, [pc, #160]	; (8006bcc <main+0x3c4>)
 8006b2c:	4a28      	ldr	r2, [pc, #160]	; (8006bd0 <main+0x3c8>)
 8006b2e:	6018      	str	r0, [r3, #0]
 8006b30:	4621      	mov	r1, r4
 8006b32:	4828      	ldr	r0, [pc, #160]	; (8006bd4 <main+0x3cc>)
 8006b34:	f7fd fb68 	bl	8004208 <osThreadNew>
 8006b38:	4b27      	ldr	r3, [pc, #156]	; (8006bd8 <main+0x3d0>)
 8006b3a:	4a28      	ldr	r2, [pc, #160]	; (8006bdc <main+0x3d4>)
 8006b3c:	6018      	str	r0, [r3, #0]
 8006b3e:	4621      	mov	r1, r4
 8006b40:	4827      	ldr	r0, [pc, #156]	; (8006be0 <main+0x3d8>)
 8006b42:	f7fd fb61 	bl	8004208 <osThreadNew>
 8006b46:	4b27      	ldr	r3, [pc, #156]	; (8006be4 <main+0x3dc>)
 8006b48:	4a27      	ldr	r2, [pc, #156]	; (8006be8 <main+0x3e0>)
 8006b4a:	6018      	str	r0, [r3, #0]
 8006b4c:	4621      	mov	r1, r4
 8006b4e:	4827      	ldr	r0, [pc, #156]	; (8006bec <main+0x3e4>)
 8006b50:	f7fd fb5a 	bl	8004208 <osThreadNew>
 8006b54:	4b26      	ldr	r3, [pc, #152]	; (8006bf0 <main+0x3e8>)
 8006b56:	6018      	str	r0, [r3, #0]
 8006b58:	f7fd fb3c 	bl	80041d4 <osKernelStart>
 8006b5c:	e7fe      	b.n	8006b5c <main+0x354>
 8006b5e:	bf00      	nop
 8006b60:	48001000 	.word	0x48001000
 8006b64:	48001c00 	.word	0x48001c00
 8006b68:	48000400 	.word	0x48000400
 8006b6c:	48000c00 	.word	0x48000c00
 8006b70:	40010000 	.word	0x40010000
 8006b74:	e000ed00 	.word	0xe000ed00
 8006b78:	e000e100 	.word	0xe000e100
 8006b7c:	20002d98 	.word	0x20002d98
 8006b80:	40007400 	.word	0x40007400
 8006b84:	20002de8 	.word	0x20002de8
 8006b88:	40007800 	.word	0x40007800
 8006b8c:	20002e1c 	.word	0x20002e1c
 8006b90:	40007810 	.word	0x40007810
 8006b94:	20002c9c 	.word	0x20002c9c
 8006b98:	50040000 	.word	0x50040000
 8006b9c:	04300002 	.word	0x04300002
 8006ba0:	20002d04 	.word	0x20002d04
 8006ba4:	50040200 	.word	0x50040200
 8006ba8:	3ac04000 	.word	0x3ac04000
 8006bac:	20002d6c 	.word	0x20002d6c
 8006bb0:	40010200 	.word	0x40010200
 8006bb4:	20002dac 	.word	0x20002dac
 8006bb8:	40002400 	.word	0x40002400
 8006bbc:	080079f8 	.word	0x080079f8
 8006bc0:	20002e50 	.word	0x20002e50
 8006bc4:	080079d4 	.word	0x080079d4
 8006bc8:	08006669 	.word	0x08006669
 8006bcc:	20002c98 	.word	0x20002c98
 8006bd0:	08007a34 	.word	0x08007a34
 8006bd4:	08007689 	.word	0x08007689
 8006bd8:	20003f14 	.word	0x20003f14
 8006bdc:	08007a10 	.word	0x08007a10
 8006be0:	080066bd 	.word	0x080066bd
 8006be4:	20002e54 	.word	0x20002e54
 8006be8:	080079b0 	.word	0x080079b0
 8006bec:	080066e5 	.word	0x080066e5
 8006bf0:	20001bd8 	.word	0x20001bd8
 8006bf4:	48000800 	.word	0x48000800

08006bf8 <HAL_TIM_PeriodElapsedCallback>:
 8006bf8:	6802      	ldr	r2, [r0, #0]
 8006bfa:	4b03      	ldr	r3, [pc, #12]	; (8006c08 <HAL_TIM_PeriodElapsedCallback+0x10>)
 8006bfc:	429a      	cmp	r2, r3
 8006bfe:	d101      	bne.n	8006c04 <HAL_TIM_PeriodElapsedCallback+0xc>
 8006c00:	f7f9 bb0e 	b.w	8000220 <HAL_IncTick>
 8006c04:	4770      	bx	lr
 8006c06:	bf00      	nop
 8006c08:	40014400 	.word	0x40014400

08006c0c <Error_Handler>:
 8006c0c:	4770      	bx	lr
	...

08006c10 <HAL_MspInit>:
 8006c10:	4b12      	ldr	r3, [pc, #72]	; (8006c5c <HAL_MspInit+0x4c>)
 8006c12:	b507      	push	{r0, r1, r2, lr}
 8006c14:	6e1a      	ldr	r2, [r3, #96]	; 0x60
 8006c16:	f042 0201 	orr.w	r2, r2, #1
 8006c1a:	661a      	str	r2, [r3, #96]	; 0x60
 8006c1c:	6e1a      	ldr	r2, [r3, #96]	; 0x60
 8006c1e:	f002 0201 	and.w	r2, r2, #1
 8006c22:	9200      	str	r2, [sp, #0]
 8006c24:	9a00      	ldr	r2, [sp, #0]
 8006c26:	6d9a      	ldr	r2, [r3, #88]	; 0x58
 8006c28:	f042 5280 	orr.w	r2, r2, #268435456	; 0x10000000
 8006c2c:	659a      	str	r2, [r3, #88]	; 0x58
 8006c2e:	6d9b      	ldr	r3, [r3, #88]	; 0x58
 8006c30:	f003 5380 	and.w	r3, r3, #268435456	; 0x10000000
 8006c34:	2200      	movs	r2, #0
 8006c36:	210f      	movs	r1, #15
 8006c38:	9301      	str	r3, [sp, #4]
 8006c3a:	f06f 0001 	mvn.w	r0, #1
 8006c3e:	9b01      	ldr	r3, [sp, #4]
 8006c40:	f7f9 ff1e 	bl	8000a80 <HAL_NVIC_SetPriority>
 8006c44:	2000      	movs	r0, #0
 8006c46:	f7f9 fb11 	bl	800026c <HAL_SYSCFG_VREFBUF_VoltageScalingConfig>
 8006c4a:	2000      	movs	r0, #0
 8006c4c:	f7f9 fb18 	bl	8000280 <HAL_SYSCFG_VREFBUF_HighImpedanceConfig>
 8006c50:	b003      	add	sp, #12
 8006c52:	f85d eb04 	ldr.w	lr, [sp], #4
 8006c56:	f7f9 bb1d 	b.w	8000294 <HAL_SYSCFG_EnableVREFBUF>
 8006c5a:	bf00      	nop
 8006c5c:	40021000 	.word	0x40021000

08006c60 <HAL_ADC_MspInit>:
 8006c60:	b510      	push	{r4, lr}
 8006c62:	2214      	movs	r2, #20
 8006c64:	b08a      	sub	sp, #40	; 0x28
 8006c66:	4604      	mov	r4, r0
 8006c68:	2100      	movs	r1, #0
 8006c6a:	eb0d 0002 	add.w	r0, sp, r2
 8006c6e:	f000 fd8b 	bl	8007788 <memset>
 8006c72:	6823      	ldr	r3, [r4, #0]
 8006c74:	4a26      	ldr	r2, [pc, #152]	; (8006d10 <HAL_ADC_MspInit+0xb0>)
 8006c76:	4293      	cmp	r3, r2
 8006c78:	d135      	bne.n	8006ce6 <HAL_ADC_MspInit+0x86>
 8006c7a:	4a26      	ldr	r2, [pc, #152]	; (8006d14 <HAL_ADC_MspInit+0xb4>)
 8006c7c:	6813      	ldr	r3, [r2, #0]
 8006c7e:	3301      	adds	r3, #1
 8006c80:	2b01      	cmp	r3, #1
 8006c82:	6013      	str	r3, [r2, #0]
 8006c84:	4b24      	ldr	r3, [pc, #144]	; (8006d18 <HAL_ADC_MspInit+0xb8>)
 8006c86:	d108      	bne.n	8006c9a <HAL_ADC_MspInit+0x3a>
 8006c88:	6cda      	ldr	r2, [r3, #76]	; 0x4c
 8006c8a:	f442 5200 	orr.w	r2, r2, #8192	; 0x2000
 8006c8e:	64da      	str	r2, [r3, #76]	; 0x4c
 8006c90:	6cda      	ldr	r2, [r3, #76]	; 0x4c
 8006c92:	f402 5200 	and.w	r2, r2, #8192	; 0x2000
 8006c96:	9201      	str	r2, [sp, #4]
 8006c98:	9a01      	ldr	r2, [sp, #4]
 8006c9a:	6cda      	ldr	r2, [r3, #76]	; 0x4c
 8006c9c:	481f      	ldr	r0, [pc, #124]	; (8006d1c <HAL_ADC_MspInit+0xbc>)
 8006c9e:	f042 0204 	orr.w	r2, r2, #4
 8006ca2:	64da      	str	r2, [r3, #76]	; 0x4c
 8006ca4:	6cda      	ldr	r2, [r3, #76]	; 0x4c
 8006ca6:	f002 0204 	and.w	r2, r2, #4
 8006caa:	9202      	str	r2, [sp, #8]
 8006cac:	9a02      	ldr	r2, [sp, #8]
 8006cae:	6cda      	ldr	r2, [r3, #76]	; 0x4c
 8006cb0:	f042 0201 	orr.w	r2, r2, #1
 8006cb4:	64da      	str	r2, [r3, #76]	; 0x4c
 8006cb6:	6cdb      	ldr	r3, [r3, #76]	; 0x4c
 8006cb8:	f003 0301 	and.w	r3, r3, #1
 8006cbc:	9303      	str	r3, [sp, #12]
 8006cbe:	9b03      	ldr	r3, [sp, #12]
 8006cc0:	240b      	movs	r4, #11
 8006cc2:	230f      	movs	r3, #15
 8006cc4:	a905      	add	r1, sp, #20
 8006cc6:	e9cd 3405 	strd	r3, r4, [sp, #20]
 8006cca:	f7f9 ffb5 	bl	8000c38 <HAL_GPIO_Init>
 8006cce:	2304      	movs	r3, #4
 8006cd0:	e9cd 3405 	strd	r3, r4, [sp, #20]
 8006cd4:	a905      	add	r1, sp, #20
 8006cd6:	2300      	movs	r3, #0
 8006cd8:	f04f 4090 	mov.w	r0, #1207959552	; 0x48000000
 8006cdc:	9307      	str	r3, [sp, #28]
 8006cde:	f7f9 ffab 	bl	8000c38 <HAL_GPIO_Init>
 8006ce2:	b00a      	add	sp, #40	; 0x28
 8006ce4:	bd10      	pop	{r4, pc}
 8006ce6:	4a0e      	ldr	r2, [pc, #56]	; (8006d20 <HAL_ADC_MspInit+0xc0>)
 8006ce8:	4293      	cmp	r3, r2
 8006cea:	d1fa      	bne.n	8006ce2 <HAL_ADC_MspInit+0x82>
 8006cec:	4a09      	ldr	r2, [pc, #36]	; (8006d14 <HAL_ADC_MspInit+0xb4>)
 8006cee:	6813      	ldr	r3, [r2, #0]
 8006cf0:	3301      	adds	r3, #1
 8006cf2:	2b01      	cmp	r3, #1
 8006cf4:	6013      	str	r3, [r2, #0]
 8006cf6:	d1f4      	bne.n	8006ce2 <HAL_ADC_MspInit+0x82>
 8006cf8:	4b07      	ldr	r3, [pc, #28]	; (8006d18 <HAL_ADC_MspInit+0xb8>)
 8006cfa:	6cda      	ldr	r2, [r3, #76]	; 0x4c
 8006cfc:	f442 5200 	orr.w	r2, r2, #8192	; 0x2000
 8006d00:	64da      	str	r2, [r3, #76]	; 0x4c
 8006d02:	6cdb      	ldr	r3, [r3, #76]	; 0x4c
 8006d04:	f403 5300 	and.w	r3, r3, #8192	; 0x2000
 8006d08:	9304      	str	r3, [sp, #16]
 8006d0a:	9b04      	ldr	r3, [sp, #16]
 8006d0c:	e7e9      	b.n	8006ce2 <HAL_ADC_MspInit+0x82>
 8006d0e:	bf00      	nop
 8006d10:	50040000 	.word	0x50040000
 8006d14:	20003f18 	.word	0x20003f18
 8006d18:	40021000 	.word	0x40021000
 8006d1c:	48000800 	.word	0x48000800
 8006d20:	50040200 	.word	0x50040200

08006d24 <HAL_COMP_MspInit>:
 8006d24:	b510      	push	{r4, lr}
 8006d26:	4604      	mov	r4, r0
 8006d28:	b086      	sub	sp, #24
 8006d2a:	2214      	movs	r2, #20
 8006d2c:	2100      	movs	r1, #0
 8006d2e:	a801      	add	r0, sp, #4
 8006d30:	f000 fd2a 	bl	8007788 <memset>
 8006d34:	6822      	ldr	r2, [r4, #0]
 8006d36:	4b0c      	ldr	r3, [pc, #48]	; (8006d68 <HAL_COMP_MspInit+0x44>)
 8006d38:	429a      	cmp	r2, r3
 8006d3a:	d112      	bne.n	8006d62 <HAL_COMP_MspInit+0x3e>
 8006d3c:	f503 3387 	add.w	r3, r3, #69120	; 0x10e00
 8006d40:	480a      	ldr	r0, [pc, #40]	; (8006d6c <HAL_COMP_MspInit+0x48>)
 8006d42:	6cda      	ldr	r2, [r3, #76]	; 0x4c
 8006d44:	f042 0204 	orr.w	r2, r2, #4
 8006d48:	64da      	str	r2, [r3, #76]	; 0x4c
 8006d4a:	6cdb      	ldr	r3, [r3, #76]	; 0x4c
 8006d4c:	f003 0304 	and.w	r3, r3, #4
 8006d50:	9300      	str	r3, [sp, #0]
 8006d52:	9b00      	ldr	r3, [sp, #0]
 8006d54:	2230      	movs	r2, #48	; 0x30
 8006d56:	2303      	movs	r3, #3
 8006d58:	a901      	add	r1, sp, #4
 8006d5a:	e9cd 2301 	strd	r2, r3, [sp, #4]
 8006d5e:	f7f9 ff6b 	bl	8000c38 <HAL_GPIO_Init>
 8006d62:	b006      	add	sp, #24
 8006d64:	bd10      	pop	{r4, pc}
 8006d66:	bf00      	nop
 8006d68:	40010200 	.word	0x40010200
 8006d6c:	48000800 	.word	0x48000800

08006d70 <HAL_DAC_MspInit>:
 8006d70:	b510      	push	{r4, lr}
 8006d72:	4604      	mov	r4, r0
 8006d74:	b088      	sub	sp, #32
 8006d76:	2214      	movs	r2, #20
 8006d78:	2100      	movs	r1, #0
 8006d7a:	a803      	add	r0, sp, #12
 8006d7c:	f000 fd04 	bl	8007788 <memset>
 8006d80:	6822      	ldr	r2, [r4, #0]
 8006d82:	4b11      	ldr	r3, [pc, #68]	; (8006dc8 <HAL_DAC_MspInit+0x58>)
 8006d84:	429a      	cmp	r2, r3
 8006d86:	d11c      	bne.n	8006dc2 <HAL_DAC_MspInit+0x52>
 8006d88:	f503 33ce 	add.w	r3, r3, #105472	; 0x19c00
 8006d8c:	a903      	add	r1, sp, #12
 8006d8e:	6d9a      	ldr	r2, [r3, #88]	; 0x58
 8006d90:	f042 5200 	orr.w	r2, r2, #536870912	; 0x20000000
 8006d94:	659a      	str	r2, [r3, #88]	; 0x58
 8006d96:	6d9a      	ldr	r2, [r3, #88]	; 0x58
 8006d98:	f002 5200 	and.w	r2, r2, #536870912	; 0x20000000
 8006d9c:	9201      	str	r2, [sp, #4]
 8006d9e:	9a01      	ldr	r2, [sp, #4]
 8006da0:	6cda      	ldr	r2, [r3, #76]	; 0x4c
 8006da2:	f042 0201 	orr.w	r2, r2, #1
 8006da6:	64da      	str	r2, [r3, #76]	; 0x4c
 8006da8:	6cdb      	ldr	r3, [r3, #76]	; 0x4c
 8006daa:	f003 0301 	and.w	r3, r3, #1
 8006dae:	9302      	str	r3, [sp, #8]
 8006db0:	9b02      	ldr	r3, [sp, #8]
 8006db2:	2230      	movs	r2, #48	; 0x30
 8006db4:	2303      	movs	r3, #3
 8006db6:	f04f 4090 	mov.w	r0, #1207959552	; 0x48000000
 8006dba:	e9cd 2303 	strd	r2, r3, [sp, #12]
 8006dbe:	f7f9 ff3b 	bl	8000c38 <HAL_GPIO_Init>
 8006dc2:	b008      	add	sp, #32
 8006dc4:	bd10      	pop	{r4, pc}
 8006dc6:	bf00      	nop
 8006dc8:	40007400 	.word	0x40007400

08006dcc <HAL_LCD_MspInit>:
 8006dcc:	b570      	push	{r4, r5, r6, lr}
 8006dce:	b0ac      	sub	sp, #176	; 0xb0
 8006dd0:	4604      	mov	r4, r0
 8006dd2:	2214      	movs	r2, #20
 8006dd4:	2100      	movs	r1, #0
 8006dd6:	a804      	add	r0, sp, #16
 8006dd8:	f000 fcd6 	bl	8007788 <memset>
 8006ddc:	228c      	movs	r2, #140	; 0x8c
 8006dde:	2100      	movs	r1, #0
 8006de0:	a809      	add	r0, sp, #36	; 0x24
 8006de2:	f000 fcd1 	bl	8007788 <memset>
 8006de6:	6822      	ldr	r2, [r4, #0]
 8006de8:	4b2d      	ldr	r3, [pc, #180]	; (8006ea0 <HAL_LCD_MspInit+0xd4>)
 8006dea:	429a      	cmp	r2, r3
 8006dec:	d155      	bne.n	8006e9a <HAL_LCD_MspInit+0xce>
 8006dee:	f44f 3300 	mov.w	r3, #131072	; 0x20000
 8006df2:	9309      	str	r3, [sp, #36]	; 0x24
 8006df4:	a809      	add	r0, sp, #36	; 0x24
 8006df6:	f44f 7380 	mov.w	r3, #256	; 0x100
 8006dfa:	932b      	str	r3, [sp, #172]	; 0xac
 8006dfc:	f7fb fad8 	bl	80023b0 <HAL_RCCEx_PeriphCLKConfig>
 8006e00:	b108      	cbz	r0, 8006e06 <HAL_LCD_MspInit+0x3a>
 8006e02:	f7ff ff03 	bl	8006c0c <Error_Handler>
 8006e06:	4b27      	ldr	r3, [pc, #156]	; (8006ea4 <HAL_LCD_MspInit+0xd8>)
 8006e08:	4827      	ldr	r0, [pc, #156]	; (8006ea8 <HAL_LCD_MspInit+0xdc>)
 8006e0a:	6d9a      	ldr	r2, [r3, #88]	; 0x58
 8006e0c:	f442 7200 	orr.w	r2, r2, #512	; 0x200
 8006e10:	659a      	str	r2, [r3, #88]	; 0x58
 8006e12:	6d9a      	ldr	r2, [r3, #88]	; 0x58
 8006e14:	f402 7200 	and.w	r2, r2, #512	; 0x200
 8006e18:	9200      	str	r2, [sp, #0]
 8006e1a:	9a00      	ldr	r2, [sp, #0]
 8006e1c:	6cda      	ldr	r2, [r3, #76]	; 0x4c
 8006e1e:	f042 0202 	orr.w	r2, r2, #2
 8006e22:	64da      	str	r2, [r3, #76]	; 0x4c
 8006e24:	6cda      	ldr	r2, [r3, #76]	; 0x4c
 8006e26:	f002 0202 	and.w	r2, r2, #2
 8006e2a:	9201      	str	r2, [sp, #4]
 8006e2c:	9a01      	ldr	r2, [sp, #4]
 8006e2e:	6cda      	ldr	r2, [r3, #76]	; 0x4c
 8006e30:	f042 0204 	orr.w	r2, r2, #4
 8006e34:	64da      	str	r2, [r3, #76]	; 0x4c
 8006e36:	6cda      	ldr	r2, [r3, #76]	; 0x4c
 8006e38:	f002 0204 	and.w	r2, r2, #4
 8006e3c:	9202      	str	r2, [sp, #8]
 8006e3e:	9a02      	ldr	r2, [sp, #8]
 8006e40:	6cda      	ldr	r2, [r3, #76]	; 0x4c
 8006e42:	f042 0201 	orr.w	r2, r2, #1
 8006e46:	64da      	str	r2, [r3, #76]	; 0x4c
 8006e48:	6cdb      	ldr	r3, [r3, #76]	; 0x4c
 8006e4a:	f003 0301 	and.w	r3, r3, #1
 8006e4e:	9303      	str	r3, [sp, #12]
 8006e50:	2602      	movs	r6, #2
 8006e52:	2400      	movs	r4, #0
 8006e54:	250b      	movs	r5, #11
 8006e56:	9b03      	ldr	r3, [sp, #12]
 8006e58:	9508      	str	r5, [sp, #32]
 8006e5a:	f24f 2304 	movw	r3, #61956	; 0xf204
 8006e5e:	a904      	add	r1, sp, #16
 8006e60:	e9cd 3604 	strd	r3, r6, [sp, #16]
 8006e64:	e9cd 4406 	strd	r4, r4, [sp, #24]
 8006e68:	f7f9 fee6 	bl	8000c38 <HAL_GPIO_Init>
 8006e6c:	f44f 7370 	mov.w	r3, #960	; 0x3c0
 8006e70:	480e      	ldr	r0, [pc, #56]	; (8006eac <HAL_LCD_MspInit+0xe0>)
 8006e72:	9508      	str	r5, [sp, #32]
 8006e74:	a904      	add	r1, sp, #16
 8006e76:	e9cd 3604 	strd	r3, r6, [sp, #16]
 8006e7a:	e9cd 4406 	strd	r4, r4, [sp, #24]
 8006e7e:	f7f9 fedb 	bl	8000c38 <HAL_GPIO_Init>
 8006e82:	f44f 63e0 	mov.w	r3, #1792	; 0x700
 8006e86:	a904      	add	r1, sp, #16
 8006e88:	f04f 4090 	mov.w	r0, #1207959552	; 0x48000000
 8006e8c:	e9cd 3604 	strd	r3, r6, [sp, #16]
 8006e90:	e9cd 4406 	strd	r4, r4, [sp, #24]
 8006e94:	9508      	str	r5, [sp, #32]
 8006e96:	f7f9 fecf 	bl	8000c38 <HAL_GPIO_Init>
 8006e9a:	b02c      	add	sp, #176	; 0xb0
 8006e9c:	bd70      	pop	{r4, r5, r6, pc}
 8006e9e:	bf00      	nop
 8006ea0:	40002400 	.word	0x40002400
 8006ea4:	40021000 	.word	0x40021000
 8006ea8:	48000400 	.word	0x48000400
 8006eac:	48000800 	.word	0x48000800

08006eb0 <HAL_OPAMP_MspInit>:
 8006eb0:	b510      	push	{r4, lr}
 8006eb2:	2214      	movs	r2, #20
 8006eb4:	b08a      	sub	sp, #40	; 0x28
 8006eb6:	4604      	mov	r4, r0
 8006eb8:	2100      	movs	r1, #0
 8006eba:	eb0d 0002 	add.w	r0, sp, r2
 8006ebe:	f000 fc63 	bl	8007788 <memset>
 8006ec2:	6823      	ldr	r3, [r4, #0]
 8006ec4:	4a35      	ldr	r2, [pc, #212]	; (8006f9c <HAL_OPAMP_MspInit+0xec>)
 8006ec6:	4293      	cmp	r3, r2
 8006ec8:	d12a      	bne.n	8006f20 <HAL_OPAMP_MspInit+0x70>
 8006eca:	4a35      	ldr	r2, [pc, #212]	; (8006fa0 <HAL_OPAMP_MspInit+0xf0>)
 8006ecc:	6813      	ldr	r3, [r2, #0]
 8006ece:	3301      	adds	r3, #1
 8006ed0:	2b01      	cmp	r3, #1
 8006ed2:	6013      	str	r3, [r2, #0]
 8006ed4:	4b33      	ldr	r3, [pc, #204]	; (8006fa4 <HAL_OPAMP_MspInit+0xf4>)
 8006ed6:	d108      	bne.n	8006eea <HAL_OPAMP_MspInit+0x3a>
 8006ed8:	6d9a      	ldr	r2, [r3, #88]	; 0x58
 8006eda:	f042 4280 	orr.w	r2, r2, #1073741824	; 0x40000000
 8006ede:	659a      	str	r2, [r3, #88]	; 0x58
 8006ee0:	6d9a      	ldr	r2, [r3, #88]	; 0x58
 8006ee2:	f002 4280 	and.w	r2, r2, #1073741824	; 0x40000000
 8006ee6:	9200      	str	r2, [sp, #0]
 8006ee8:	9a00      	ldr	r2, [sp, #0]
 8006eea:	6cda      	ldr	r2, [r3, #76]	; 0x4c
 8006eec:	f042 0201 	orr.w	r2, r2, #1
 8006ef0:	64da      	str	r2, [r3, #76]	; 0x4c
 8006ef2:	6cdb      	ldr	r3, [r3, #76]	; 0x4c
 8006ef4:	f003 0301 	and.w	r3, r3, #1
 8006ef8:	9301      	str	r3, [sp, #4]
 8006efa:	9b01      	ldr	r3, [sp, #4]
 8006efc:	2209      	movs	r2, #9
 8006efe:	2303      	movs	r3, #3
 8006f00:	a905      	add	r1, sp, #20
 8006f02:	f04f 4090 	mov.w	r0, #1207959552	; 0x48000000
 8006f06:	e9cd 2305 	strd	r2, r3, [sp, #20]
 8006f0a:	f7f9 fe95 	bl	8000c38 <HAL_GPIO_Init>
 8006f0e:	2302      	movs	r3, #2
 8006f10:	9305      	str	r3, [sp, #20]
 8006f12:	a905      	add	r1, sp, #20
 8006f14:	f04f 4090 	mov.w	r0, #1207959552	; 0x48000000
 8006f18:	f7f9 fe8e 	bl	8000c38 <HAL_GPIO_Init>
 8006f1c:	b00a      	add	sp, #40	; 0x28
 8006f1e:	bd10      	pop	{r4, pc}
 8006f20:	4a21      	ldr	r2, [pc, #132]	; (8006fa8 <HAL_OPAMP_MspInit+0xf8>)
 8006f22:	4293      	cmp	r3, r2
 8006f24:	d1fa      	bne.n	8006f1c <HAL_OPAMP_MspInit+0x6c>
 8006f26:	4a1e      	ldr	r2, [pc, #120]	; (8006fa0 <HAL_OPAMP_MspInit+0xf0>)
 8006f28:	6813      	ldr	r3, [r2, #0]
 8006f2a:	3301      	adds	r3, #1
 8006f2c:	2b01      	cmp	r3, #1
 8006f2e:	6013      	str	r3, [r2, #0]
 8006f30:	4b1c      	ldr	r3, [pc, #112]	; (8006fa4 <HAL_OPAMP_MspInit+0xf4>)
 8006f32:	d108      	bne.n	8006f46 <HAL_OPAMP_MspInit+0x96>
 8006f34:	6d9a      	ldr	r2, [r3, #88]	; 0x58
 8006f36:	f042 4280 	orr.w	r2, r2, #1073741824	; 0x40000000
 8006f3a:	659a      	str	r2, [r3, #88]	; 0x58
 8006f3c:	6d9a      	ldr	r2, [r3, #88]	; 0x58
 8006f3e:	f002 4280 	and.w	r2, r2, #1073741824	; 0x40000000
 8006f42:	9202      	str	r2, [sp, #8]
 8006f44:	9a02      	ldr	r2, [sp, #8]
 8006f46:	6cda      	ldr	r2, [r3, #76]	; 0x4c
 8006f48:	f042 0201 	orr.w	r2, r2, #1
 8006f4c:	64da      	str	r2, [r3, #76]	; 0x4c
 8006f4e:	6cda      	ldr	r2, [r3, #76]	; 0x4c
 8006f50:	f002 0201 	and.w	r2, r2, #1
 8006f54:	9203      	str	r2, [sp, #12]
 8006f56:	9a03      	ldr	r2, [sp, #12]
 8006f58:	6cda      	ldr	r2, [r3, #76]	; 0x4c
 8006f5a:	f042 0202 	orr.w	r2, r2, #2
 8006f5e:	64da      	str	r2, [r3, #76]	; 0x4c
 8006f60:	6cdb      	ldr	r3, [r3, #76]	; 0x4c
 8006f62:	f003 0302 	and.w	r3, r3, #2
 8006f66:	9304      	str	r3, [sp, #16]
 8006f68:	9b04      	ldr	r3, [sp, #16]
 8006f6a:	2403      	movs	r4, #3
 8006f6c:	2340      	movs	r3, #64	; 0x40
 8006f6e:	a905      	add	r1, sp, #20
 8006f70:	f04f 4090 	mov.w	r0, #1207959552	; 0x48000000
 8006f74:	e9cd 3405 	strd	r3, r4, [sp, #20]
 8006f78:	f7f9 fe5e 	bl	8000c38 <HAL_GPIO_Init>
 8006f7c:	2380      	movs	r3, #128	; 0x80
 8006f7e:	a905      	add	r1, sp, #20
 8006f80:	f04f 4090 	mov.w	r0, #1207959552	; 0x48000000
 8006f84:	9305      	str	r3, [sp, #20]
 8006f86:	f7f9 fe57 	bl	8000c38 <HAL_GPIO_Init>
 8006f8a:	2301      	movs	r3, #1
 8006f8c:	e9cd 3405 	strd	r3, r4, [sp, #20]
 8006f90:	2300      	movs	r3, #0
 8006f92:	4806      	ldr	r0, [pc, #24]	; (8006fac <HAL_OPAMP_MspInit+0xfc>)
 8006f94:	9307      	str	r3, [sp, #28]
 8006f96:	a905      	add	r1, sp, #20
 8006f98:	e7be      	b.n	8006f18 <HAL_OPAMP_MspInit+0x68>
 8006f9a:	bf00      	nop
 8006f9c:	40007800 	.word	0x40007800
 8006fa0:	20003f1c 	.word	0x20003f1c
 8006fa4:	40021000 	.word	0x40021000
 8006fa8:	40007810 	.word	0x40007810
 8006fac:	48000400 	.word	0x48000400

08006fb0 <HAL_InitTick>:
 8006fb0:	b510      	push	{r4, lr}
 8006fb2:	4601      	mov	r1, r0
 8006fb4:	b088      	sub	sp, #32
 8006fb6:	2200      	movs	r2, #0
 8006fb8:	2019      	movs	r0, #25
 8006fba:	f7f9 fd61 	bl	8000a80 <HAL_NVIC_SetPriority>
 8006fbe:	2019      	movs	r0, #25
 8006fc0:	f7f9 fd90 	bl	8000ae4 <HAL_NVIC_EnableIRQ>
 8006fc4:	4b14      	ldr	r3, [pc, #80]	; (8007018 <HAL_InitTick+0x68>)
 8006fc6:	4c15      	ldr	r4, [pc, #84]	; (800701c <HAL_InitTick+0x6c>)
 8006fc8:	6e1a      	ldr	r2, [r3, #96]	; 0x60
 8006fca:	f442 3200 	orr.w	r2, r2, #131072	; 0x20000
 8006fce:	661a      	str	r2, [r3, #96]	; 0x60
 8006fd0:	6e1b      	ldr	r3, [r3, #96]	; 0x60
 8006fd2:	f403 3300 	and.w	r3, r3, #131072	; 0x20000
 8006fd6:	9302      	str	r3, [sp, #8]
 8006fd8:	a901      	add	r1, sp, #4
 8006fda:	a803      	add	r0, sp, #12
 8006fdc:	9b02      	ldr	r3, [sp, #8]
 8006fde:	f7fb f8c5 	bl	800216c <HAL_RCC_GetClockConfig>
 8006fe2:	f7fb f8b1 	bl	8002148 <HAL_RCC_GetPCLK2Freq>
 8006fe6:	4b0e      	ldr	r3, [pc, #56]	; (8007020 <HAL_InitTick+0x70>)
 8006fe8:	6023      	str	r3, [r4, #0]
 8006fea:	f240 33e7 	movw	r3, #999	; 0x3e7
 8006fee:	60e3      	str	r3, [r4, #12]
 8006ff0:	4b0c      	ldr	r3, [pc, #48]	; (8007024 <HAL_InitTick+0x74>)
 8006ff2:	fbb0 f0f3 	udiv	r0, r0, r3
 8006ff6:	3801      	subs	r0, #1
 8006ff8:	2300      	movs	r3, #0
 8006ffa:	6060      	str	r0, [r4, #4]
 8006ffc:	4620      	mov	r0, r4
 8006ffe:	6123      	str	r3, [r4, #16]
 8007000:	60a3      	str	r3, [r4, #8]
 8007002:	f7fb fd23 	bl	8002a4c <HAL_TIM_Base_Init>
 8007006:	b920      	cbnz	r0, 8007012 <HAL_InitTick+0x62>
 8007008:	4620      	mov	r0, r4
 800700a:	f7fb fbcb 	bl	80027a4 <HAL_TIM_Base_Start_IT>
 800700e:	b008      	add	sp, #32
 8007010:	bd10      	pop	{r4, pc}
 8007012:	2001      	movs	r0, #1
 8007014:	e7fb      	b.n	800700e <HAL_InitTick+0x5e>
 8007016:	bf00      	nop
 8007018:	40021000 	.word	0x40021000
 800701c:	20003f20 	.word	0x20003f20
 8007020:	40014400 	.word	0x40014400
 8007024:	000f4240 	.word	0x000f4240

08007028 <NMI_Handler>:
 8007028:	4770      	bx	lr

0800702a <HardFault_Handler>:
 800702a:	e7fe      	b.n	800702a <HardFault_Handler>

0800702c <MemManage_Handler>:
 800702c:	e7fe      	b.n	800702c <MemManage_Handler>

0800702e <BusFault_Handler>:
 800702e:	e7fe      	b.n	800702e <BusFault_Handler>

08007030 <UsageFault_Handler>:
 8007030:	e7fe      	b.n	8007030 <UsageFault_Handler>

08007032 <DebugMon_Handler>:
 8007032:	4770      	bx	lr

08007034 <TIM1_UP_TIM16_IRQHandler>:
 8007034:	4801      	ldr	r0, [pc, #4]	; (800703c <TIM1_UP_TIM16_IRQHandler+0x8>)
 8007036:	f7fb bbf3 	b.w	8002820 <HAL_TIM_IRQHandler>
 800703a:	bf00      	nop
 800703c:	20003f20 	.word	0x20003f20

08007040 <EXTI15_10_IRQHandler>:
 8007040:	4b03      	ldr	r3, [pc, #12]	; (8007050 <EXTI15_10_IRQHandler+0x10>)
 8007042:	695a      	ldr	r2, [r3, #20]
 8007044:	0512      	lsls	r2, r2, #20
 8007046:	bf44      	itt	mi
 8007048:	f44f 6200 	movmi.w	r2, #2048	; 0x800
 800704c:	615a      	strmi	r2, [r3, #20]
 800704e:	4770      	bx	lr
 8007050:	40010400 	.word	0x40010400

08007054 <OTG_FS_IRQHandler>:
 8007054:	4801      	ldr	r0, [pc, #4]	; (800705c <OTG_FS_IRQHandler+0x8>)
 8007056:	f7fa b885 	b.w	8001164 <HAL_PCD_IRQHandler>
 800705a:	bf00      	nop
 800705c:	2000523c 	.word	0x2000523c

08007060 <SystemInit>:
 8007060:	490f      	ldr	r1, [pc, #60]	; (80070a0 <SystemInit+0x40>)
 8007062:	f8d1 3088 	ldr.w	r3, [r1, #136]	; 0x88
 8007066:	f443 0370 	orr.w	r3, r3, #15728640	; 0xf00000
 800706a:	f8c1 3088 	str.w	r3, [r1, #136]	; 0x88
 800706e:	4b0d      	ldr	r3, [pc, #52]	; (80070a4 <SystemInit+0x44>)
 8007070:	681a      	ldr	r2, [r3, #0]
 8007072:	2000      	movs	r0, #0
 8007074:	f042 0201 	orr.w	r2, r2, #1
 8007078:	601a      	str	r2, [r3, #0]
 800707a:	6098      	str	r0, [r3, #8]
 800707c:	681a      	ldr	r2, [r3, #0]
 800707e:	f022 52a8 	bic.w	r2, r2, #352321536	; 0x15000000
 8007082:	f422 2210 	bic.w	r2, r2, #589824	; 0x90000
 8007086:	601a      	str	r2, [r3, #0]
 8007088:	f44f 5280 	mov.w	r2, #4096	; 0x1000
 800708c:	60da      	str	r2, [r3, #12]
 800708e:	681a      	ldr	r2, [r3, #0]
 8007090:	f422 2280 	bic.w	r2, r2, #262144	; 0x40000
 8007094:	601a      	str	r2, [r3, #0]
 8007096:	6198      	str	r0, [r3, #24]
 8007098:	f04f 6300 	mov.w	r3, #134217728	; 0x8000000
 800709c:	608b      	str	r3, [r1, #8]
 800709e:	4770      	bx	lr
 80070a0:	e000ed00 	.word	0xe000ed00
 80070a4:	40021000 	.word	0x40021000

080070a8 <MX_USB_DEVICE_Init>:
 80070a8:	b508      	push	{r3, lr}
 80070aa:	490f      	ldr	r1, [pc, #60]	; (80070e8 <MX_USB_DEVICE_Init+0x40>)
 80070ac:	480f      	ldr	r0, [pc, #60]	; (80070ec <MX_USB_DEVICE_Init+0x44>)
 80070ae:	2200      	movs	r2, #0
 80070b0:	f7fc fc8a 	bl	80039c8 <USBD_Init>
 80070b4:	b108      	cbz	r0, 80070ba <MX_USB_DEVICE_Init+0x12>
 80070b6:	f7ff fda9 	bl	8006c0c <Error_Handler>
 80070ba:	490d      	ldr	r1, [pc, #52]	; (80070f0 <MX_USB_DEVICE_Init+0x48>)
 80070bc:	480b      	ldr	r0, [pc, #44]	; (80070ec <MX_USB_DEVICE_Init+0x44>)
 80070be:	f7fc fc96 	bl	80039ee <USBD_RegisterClass>
 80070c2:	b108      	cbz	r0, 80070c8 <MX_USB_DEVICE_Init+0x20>
 80070c4:	f7ff fda2 	bl	8006c0c <Error_Handler>
 80070c8:	490a      	ldr	r1, [pc, #40]	; (80070f4 <MX_USB_DEVICE_Init+0x4c>)
 80070ca:	4808      	ldr	r0, [pc, #32]	; (80070ec <MX_USB_DEVICE_Init+0x44>)
 80070cc:	f7fc fc32 	bl	8003934 <USBD_CDC_RegisterInterface>
 80070d0:	b108      	cbz	r0, 80070d6 <MX_USB_DEVICE_Init+0x2e>
 80070d2:	f7ff fd9b 	bl	8006c0c <Error_Handler>
 80070d6:	4805      	ldr	r0, [pc, #20]	; (80070ec <MX_USB_DEVICE_Init+0x44>)
 80070d8:	f7fc fc9f 	bl	8003a1a <USBD_Start>
 80070dc:	b118      	cbz	r0, 80070e6 <MX_USB_DEVICE_Init+0x3e>
 80070de:	e8bd 4008 	ldmia.w	sp!, {r3, lr}
 80070e2:	f7ff bd93 	b.w	8006c0c <Error_Handler>
 80070e6:	bd08      	pop	{r3, pc}
 80070e8:	2000013c 	.word	0x2000013c
 80070ec:	20003f6c 	.word	0x20003f6c
 80070f0:	20000008 	.word	0x20000008
 80070f4:	20000120 	.word	0x20000120

080070f8 <CDC_DeInit_FS>:
 80070f8:	2000      	movs	r0, #0
 80070fa:	4770      	bx	lr

080070fc <CDC_TransmitCplt_FS>:
 80070fc:	b508      	push	{r3, lr}
 80070fe:	f000 fabb 	bl	8007678 <usbserialTxWakeup>
 8007102:	2000      	movs	r0, #0
 8007104:	bd08      	pop	{r3, pc}
	...

08007108 <CDC_Receive_FS>:
 8007108:	b538      	push	{r3, r4, r5, lr}
 800710a:	680a      	ldr	r2, [r1, #0]
 800710c:	4604      	mov	r4, r0
 800710e:	4601      	mov	r1, r0
 8007110:	4806      	ldr	r0, [pc, #24]	; (800712c <CDC_Receive_FS+0x24>)
 8007112:	f000 fa7f 	bl	8007614 <usbserialQueue>
 8007116:	4621      	mov	r1, r4
 8007118:	4605      	mov	r5, r0
 800711a:	4804      	ldr	r0, [pc, #16]	; (800712c <CDC_Receive_FS+0x24>)
 800711c:	f7fc fc1c 	bl	8003958 <USBD_CDC_SetRxBuffer>
 8007120:	b915      	cbnz	r5, 8007128 <CDC_Receive_FS+0x20>
 8007122:	4802      	ldr	r0, [pc, #8]	; (800712c <CDC_Receive_FS+0x24>)
 8007124:	f7fc fc39 	bl	800399a <USBD_CDC_ReceivePacket>
 8007128:	2000      	movs	r0, #0
 800712a:	bd38      	pop	{r3, r4, r5, pc}
 800712c:	20003f6c 	.word	0x20003f6c

08007130 <CDC_Init_FS>:
 8007130:	b510      	push	{r4, lr}
 8007132:	4c06      	ldr	r4, [pc, #24]	; (800714c <CDC_Init_FS+0x1c>)
 8007134:	4906      	ldr	r1, [pc, #24]	; (8007150 <CDC_Init_FS+0x20>)
 8007136:	2200      	movs	r2, #0
 8007138:	4620      	mov	r0, r4
 800713a:	f7fc fc02 	bl	8003942 <USBD_CDC_SetTxBuffer>
 800713e:	4905      	ldr	r1, [pc, #20]	; (8007154 <CDC_Init_FS+0x24>)
 8007140:	4620      	mov	r0, r4
 8007142:	f7fc fc09 	bl	8003958 <USBD_CDC_SetRxBuffer>
 8007146:	2000      	movs	r0, #0
 8007148:	bd10      	pop	{r4, pc}
 800714a:	bf00      	nop
 800714c:	20003f6c 	.word	0x20003f6c
 8007150:	20004a3c 	.word	0x20004a3c
 8007154:	2000423c 	.word	0x2000423c

08007158 <CDC_Control_FS>:
 8007158:	2820      	cmp	r0, #32
 800715a:	d003      	beq.n	8007164 <CDC_Control_FS+0xc>
 800715c:	2821      	cmp	r0, #33	; 0x21
 800715e:	d009      	beq.n	8007174 <CDC_Control_FS+0x1c>
 8007160:	2000      	movs	r0, #0
 8007162:	4770      	bx	lr
 8007164:	4b07      	ldr	r3, [pc, #28]	; (8007184 <CDC_Control_FS+0x2c>)
 8007166:	680a      	ldr	r2, [r1, #0]
 8007168:	601a      	str	r2, [r3, #0]
 800716a:	888a      	ldrh	r2, [r1, #4]
 800716c:	809a      	strh	r2, [r3, #4]
 800716e:	798a      	ldrb	r2, [r1, #6]
 8007170:	719a      	strb	r2, [r3, #6]
 8007172:	e7f5      	b.n	8007160 <CDC_Control_FS+0x8>
 8007174:	4b03      	ldr	r3, [pc, #12]	; (8007184 <CDC_Control_FS+0x2c>)
 8007176:	681a      	ldr	r2, [r3, #0]
 8007178:	600a      	str	r2, [r1, #0]
 800717a:	889a      	ldrh	r2, [r3, #4]
 800717c:	799b      	ldrb	r3, [r3, #6]
 800717e:	808a      	strh	r2, [r1, #4]
 8007180:	718b      	strb	r3, [r1, #6]
 8007182:	e7ed      	b.n	8007160 <CDC_Control_FS+0x8>
 8007184:	20000134 	.word	0x20000134

08007188 <CDC_Transmit_FS>:
 8007188:	b510      	push	{r4, lr}
 800718a:	4c09      	ldr	r4, [pc, #36]	; (80071b0 <CDC_Transmit_FS+0x28>)
 800718c:	f8d4 32bc 	ldr.w	r3, [r4, #700]	; 0x2bc
 8007190:	f8d3 3214 	ldr.w	r3, [r3, #532]	; 0x214
 8007194:	460a      	mov	r2, r1
 8007196:	b943      	cbnz	r3, 80071aa <CDC_Transmit_FS+0x22>
 8007198:	4601      	mov	r1, r0
 800719a:	4620      	mov	r0, r4
 800719c:	f7fc fbd1 	bl	8003942 <USBD_CDC_SetTxBuffer>
 80071a0:	4620      	mov	r0, r4
 80071a2:	e8bd 4010 	ldmia.w	sp!, {r4, lr}
 80071a6:	f7fc bbe0 	b.w	800396a <USBD_CDC_TransmitPacket>
 80071aa:	2001      	movs	r0, #1
 80071ac:	bd10      	pop	{r4, pc}
 80071ae:	bf00      	nop
 80071b0:	20003f6c 	.word	0x20003f6c

080071b4 <HAL_PCD_MspInit>:
 80071b4:	b510      	push	{r4, lr}
 80071b6:	b0ac      	sub	sp, #176	; 0xb0
 80071b8:	4604      	mov	r4, r0
 80071ba:	2214      	movs	r2, #20
 80071bc:	2100      	movs	r1, #0
 80071be:	a804      	add	r0, sp, #16
 80071c0:	f000 fae2 	bl	8007788 <memset>
 80071c4:	228c      	movs	r2, #140	; 0x8c
 80071c6:	2100      	movs	r1, #0
 80071c8:	a809      	add	r0, sp, #36	; 0x24
 80071ca:	f000 fadd 	bl	8007788 <memset>
 80071ce:	6823      	ldr	r3, [r4, #0]
 80071d0:	f1b3 4fa0 	cmp.w	r3, #1342177280	; 0x50000000
 80071d4:	d145      	bne.n	8007262 <HAL_PCD_MspInit+0xae>
 80071d6:	f44f 5300 	mov.w	r3, #8192	; 0x2000
 80071da:	a809      	add	r0, sp, #36	; 0x24
 80071dc:	9309      	str	r3, [sp, #36]	; 0x24
 80071de:	f7fb f8e7 	bl	80023b0 <HAL_RCCEx_PeriphCLKConfig>
 80071e2:	b108      	cbz	r0, 80071e8 <HAL_PCD_MspInit+0x34>
 80071e4:	f7ff fd12 	bl	8006c0c <Error_Handler>
 80071e8:	4c20      	ldr	r4, [pc, #128]	; (800726c <HAL_PCD_MspInit+0xb8>)
 80071ea:	6ce3      	ldr	r3, [r4, #76]	; 0x4c
 80071ec:	f043 0301 	orr.w	r3, r3, #1
 80071f0:	64e3      	str	r3, [r4, #76]	; 0x4c
 80071f2:	6ce3      	ldr	r3, [r4, #76]	; 0x4c
 80071f4:	f003 0301 	and.w	r3, r3, #1
 80071f8:	9301      	str	r3, [sp, #4]
 80071fa:	9b01      	ldr	r3, [sp, #4]
 80071fc:	f44f 52c0 	mov.w	r2, #6144	; 0x1800
 8007200:	2302      	movs	r3, #2
 8007202:	e9cd 2304 	strd	r2, r3, [sp, #16]
 8007206:	2100      	movs	r1, #0
 8007208:	2303      	movs	r3, #3
 800720a:	e9cd 1306 	strd	r1, r3, [sp, #24]
 800720e:	f04f 4090 	mov.w	r0, #1207959552	; 0x48000000
 8007212:	230a      	movs	r3, #10
 8007214:	a904      	add	r1, sp, #16
 8007216:	9308      	str	r3, [sp, #32]
 8007218:	f7f9 fd0e 	bl	8000c38 <HAL_GPIO_Init>
 800721c:	6ce3      	ldr	r3, [r4, #76]	; 0x4c
 800721e:	f443 5380 	orr.w	r3, r3, #4096	; 0x1000
 8007222:	64e3      	str	r3, [r4, #76]	; 0x4c
 8007224:	6ce3      	ldr	r3, [r4, #76]	; 0x4c
 8007226:	f403 5380 	and.w	r3, r3, #4096	; 0x1000
 800722a:	9302      	str	r3, [sp, #8]
 800722c:	9b02      	ldr	r3, [sp, #8]
 800722e:	6da3      	ldr	r3, [r4, #88]	; 0x58
 8007230:	00d8      	lsls	r0, r3, #3
 8007232:	d418      	bmi.n	8007266 <HAL_PCD_MspInit+0xb2>
 8007234:	6da3      	ldr	r3, [r4, #88]	; 0x58
 8007236:	f043 5380 	orr.w	r3, r3, #268435456	; 0x10000000
 800723a:	65a3      	str	r3, [r4, #88]	; 0x58
 800723c:	6da3      	ldr	r3, [r4, #88]	; 0x58
 800723e:	f003 5380 	and.w	r3, r3, #268435456	; 0x10000000
 8007242:	9303      	str	r3, [sp, #12]
 8007244:	9b03      	ldr	r3, [sp, #12]
 8007246:	f7fa fb9f 	bl	8001988 <HAL_PWREx_EnableVddUSB>
 800724a:	6da3      	ldr	r3, [r4, #88]	; 0x58
 800724c:	f023 5380 	bic.w	r3, r3, #268435456	; 0x10000000
 8007250:	65a3      	str	r3, [r4, #88]	; 0x58
 8007252:	2043      	movs	r0, #67	; 0x43
 8007254:	2200      	movs	r2, #0
 8007256:	2105      	movs	r1, #5
 8007258:	f7f9 fc12 	bl	8000a80 <HAL_NVIC_SetPriority>
 800725c:	2043      	movs	r0, #67	; 0x43
 800725e:	f7f9 fc41 	bl	8000ae4 <HAL_NVIC_EnableIRQ>
 8007262:	b02c      	add	sp, #176	; 0xb0
 8007264:	bd10      	pop	{r4, pc}
 8007266:	f7fa fb8f 	bl	8001988 <HAL_PWREx_EnableVddUSB>
 800726a:	e7f2      	b.n	8007252 <HAL_PCD_MspInit+0x9e>
 800726c:	40021000 	.word	0x40021000

08007270 <HAL_PCD_SetupStageCallback>:
 8007270:	f500 7171 	add.w	r1, r0, #964	; 0x3c4
 8007274:	f8d0 0404 	ldr.w	r0, [r0, #1028]	; 0x404
 8007278:	f7fc bbe0 	b.w	8003a3c <USBD_LL_SetupStage>

0800727c <HAL_PCD_DataOutStageCallback>:
 800727c:	231c      	movs	r3, #28
 800727e:	fb03 0301 	mla	r3, r3, r1, r0
 8007282:	f8d0 0404 	ldr.w	r0, [r0, #1028]	; 0x404
 8007286:	f8d3 2208 	ldr.w	r2, [r3, #520]	; 0x208
 800728a:	f7fc bc07 	b.w	8003a9c <USBD_LL_DataOutStage>

0800728e <HAL_PCD_DataInStageCallback>:
 800728e:	231c      	movs	r3, #28
 8007290:	fb03 0301 	mla	r3, r3, r1, r0
 8007294:	f8d0 0404 	ldr.w	r0, [r0, #1028]	; 0x404
 8007298:	6c9a      	ldr	r2, [r3, #72]	; 0x48
 800729a:	f7fc bc2f 	b.w	8003afc <USBD_LL_DataInStage>

0800729e <HAL_PCD_SOFCallback>:
 800729e:	f8d0 0404 	ldr.w	r0, [r0, #1028]	; 0x404
 80072a2:	f7fc bcc1 	b.w	8003c28 <USBD_LL_SOF>

080072a6 <HAL_PCD_ResetCallback>:
 80072a6:	68c3      	ldr	r3, [r0, #12]
 80072a8:	2b02      	cmp	r3, #2
 80072aa:	b510      	push	{r4, lr}
 80072ac:	4604      	mov	r4, r0
 80072ae:	d001      	beq.n	80072b4 <HAL_PCD_ResetCallback+0xe>
 80072b0:	f7ff fcac 	bl	8006c0c <Error_Handler>
 80072b4:	f8d4 0404 	ldr.w	r0, [r4, #1028]	; 0x404
 80072b8:	2101      	movs	r1, #1
 80072ba:	f7fc fc9d 	bl	8003bf8 <USBD_LL_SetSpeed>
 80072be:	f8d4 0404 	ldr.w	r0, [r4, #1028]	; 0x404
 80072c2:	e8bd 4010 	ldmia.w	sp!, {r4, lr}
 80072c6:	f7fc bc6b 	b.w	8003ba0 <USBD_LL_Reset>
	...

080072cc <HAL_PCD_SuspendCallback>:
 80072cc:	6802      	ldr	r2, [r0, #0]
 80072ce:	f8d2 3e00 	ldr.w	r3, [r2, #3584]	; 0xe00
 80072d2:	b510      	push	{r4, lr}
 80072d4:	f043 0301 	orr.w	r3, r3, #1
 80072d8:	4604      	mov	r4, r0
 80072da:	f8c2 3e00 	str.w	r3, [r2, #3584]	; 0xe00
 80072de:	f8d0 0404 	ldr.w	r0, [r0, #1028]	; 0x404
 80072e2:	f7fc fc8c 	bl	8003bfe <USBD_LL_Suspend>
 80072e6:	6a23      	ldr	r3, [r4, #32]
 80072e8:	b123      	cbz	r3, 80072f4 <HAL_PCD_SuspendCallback+0x28>
 80072ea:	4a03      	ldr	r2, [pc, #12]	; (80072f8 <HAL_PCD_SuspendCallback+0x2c>)
 80072ec:	6913      	ldr	r3, [r2, #16]
 80072ee:	f043 0306 	orr.w	r3, r3, #6
 80072f2:	6113      	str	r3, [r2, #16]
 80072f4:	bd10      	pop	{r4, pc}
 80072f6:	bf00      	nop
 80072f8:	e000ed00 	.word	0xe000ed00

080072fc <HAL_PCD_ResumeCallback>:
 80072fc:	6802      	ldr	r2, [r0, #0]
 80072fe:	f8d2 3e00 	ldr.w	r3, [r2, #3584]	; 0xe00
 8007302:	f023 0301 	bic.w	r3, r3, #1
 8007306:	b510      	push	{r4, lr}
 8007308:	f8c2 3e00 	str.w	r3, [r2, #3584]	; 0xe00
 800730c:	6a03      	ldr	r3, [r0, #32]
 800730e:	4604      	mov	r4, r0
 8007310:	b133      	cbz	r3, 8007320 <HAL_PCD_ResumeCallback+0x24>
 8007312:	4a06      	ldr	r2, [pc, #24]	; (800732c <HAL_PCD_ResumeCallback+0x30>)
 8007314:	6913      	ldr	r3, [r2, #16]
 8007316:	f023 0306 	bic.w	r3, r3, #6
 800731a:	6113      	str	r3, [r2, #16]
 800731c:	f7ff fa1e 	bl	800675c <SystemClock_Config>
 8007320:	f8d4 0404 	ldr.w	r0, [r4, #1028]	; 0x404
 8007324:	e8bd 4010 	ldmia.w	sp!, {r4, lr}
 8007328:	f7fc bc73 	b.w	8003c12 <USBD_LL_Resume>
 800732c:	e000ed00 	.word	0xe000ed00

08007330 <HAL_PCD_ISOOUTIncompleteCallback>:
 8007330:	f8d0 0404 	ldr.w	r0, [r0, #1028]	; 0x404
 8007334:	f7fc bc9a 	b.w	8003c6c <USBD_LL_IsoOUTIncomplete>

08007338 <HAL_PCD_ISOINIncompleteCallback>:
 8007338:	f8d0 0404 	ldr.w	r0, [r0, #1028]	; 0x404
 800733c:	f7fc bc85 	b.w	8003c4a <USBD_LL_IsoINIncomplete>

08007340 <HAL_PCD_ConnectCallback>:
 8007340:	f8d0 0404 	ldr.w	r0, [r0, #1028]	; 0x404
 8007344:	f7fc bca3 	b.w	8003c8e <USBD_LL_DevConnected>

08007348 <HAL_PCD_DisconnectCallback>:
 8007348:	f8d0 0404 	ldr.w	r0, [r0, #1028]	; 0x404
 800734c:	f7fc bca1 	b.w	8003c92 <USBD_LL_DevDisconnected>

08007350 <USBD_LL_Init>:
 8007350:	b508      	push	{r3, lr}
 8007352:	7803      	ldrb	r3, [r0, #0]
 8007354:	4602      	mov	r2, r0
 8007356:	bb2b      	cbnz	r3, 80073a4 <USBD_LL_Init+0x54>
 8007358:	4813      	ldr	r0, [pc, #76]	; (80073a8 <USBD_LL_Init+0x58>)
 800735a:	f04f 41a0 	mov.w	r1, #1342177280	; 0x50000000
 800735e:	f8c0 2404 	str.w	r2, [r0, #1028]	; 0x404
 8007362:	f8c2 02c4 	str.w	r0, [r2, #708]	; 0x2c4
 8007366:	2206      	movs	r2, #6
 8007368:	e9c0 1200 	strd	r1, r2, [r0]
 800736c:	2202      	movs	r2, #2
 800736e:	e9c0 2306 	strd	r2, r3, [r0, #24]
 8007372:	e9c0 3308 	strd	r3, r3, [r0, #32]
 8007376:	e9c0 330b 	strd	r3, r3, [r0, #44]	; 0x2c
 800737a:	60c2      	str	r2, [r0, #12]
 800737c:	6283      	str	r3, [r0, #40]	; 0x28
 800737e:	f7f9 fe49 	bl	8001014 <HAL_PCD_Init>
 8007382:	b108      	cbz	r0, 8007388 <USBD_LL_Init+0x38>
 8007384:	f7ff fc42 	bl	8006c0c <Error_Handler>
 8007388:	2180      	movs	r1, #128	; 0x80
 800738a:	4807      	ldr	r0, [pc, #28]	; (80073a8 <USBD_LL_Init+0x58>)
 800738c:	f7fa faa5 	bl	80018da <HAL_PCDEx_SetRxFiFo>
 8007390:	2240      	movs	r2, #64	; 0x40
 8007392:	2100      	movs	r1, #0
 8007394:	4804      	ldr	r0, [pc, #16]	; (80073a8 <USBD_LL_Init+0x58>)
 8007396:	f7fa fa80 	bl	800189a <HAL_PCDEx_SetTxFiFo>
 800739a:	4803      	ldr	r0, [pc, #12]	; (80073a8 <USBD_LL_Init+0x58>)
 800739c:	2280      	movs	r2, #128	; 0x80
 800739e:	2101      	movs	r1, #1
 80073a0:	f7fa fa7b 	bl	800189a <HAL_PCDEx_SetTxFiFo>
 80073a4:	2000      	movs	r0, #0
 80073a6:	bd08      	pop	{r3, pc}
 80073a8:	2000523c 	.word	0x2000523c

080073ac <USBD_LL_Start>:
 80073ac:	b508      	push	{r3, lr}
 80073ae:	f8d0 02c4 	ldr.w	r0, [r0, #708]	; 0x2c4
 80073b2:	f7f9 feba 	bl	800112a <HAL_PCD_Start>
 80073b6:	2803      	cmp	r0, #3
 80073b8:	bf96      	itet	ls
 80073ba:	4b02      	ldrls	r3, [pc, #8]	; (80073c4 <USBD_LL_Start+0x18>)
 80073bc:	2003      	movhi	r0, #3
 80073be:	5c18      	ldrbls	r0, [r3, r0]
 80073c0:	bd08      	pop	{r3, pc}
 80073c2:	bf00      	nop
 80073c4:	08007aa0 	.word	0x08007aa0

080073c8 <USBD_LL_OpenEP>:
 80073c8:	b510      	push	{r4, lr}
 80073ca:	4614      	mov	r4, r2
 80073cc:	f8d0 02c4 	ldr.w	r0, [r0, #708]	; 0x2c4
 80073d0:	461a      	mov	r2, r3
 80073d2:	4623      	mov	r3, r4
 80073d4:	f7fa f94c 	bl	8001670 <HAL_PCD_EP_Open>
 80073d8:	2803      	cmp	r0, #3
 80073da:	bf96      	itet	ls
 80073dc:	4b01      	ldrls	r3, [pc, #4]	; (80073e4 <USBD_LL_OpenEP+0x1c>)
 80073de:	2003      	movhi	r0, #3
 80073e0:	5c18      	ldrbls	r0, [r3, r0]
 80073e2:	bd10      	pop	{r4, pc}
 80073e4:	08007aa0 	.word	0x08007aa0

080073e8 <USBD_LL_CloseEP>:
 80073e8:	b508      	push	{r3, lr}
 80073ea:	f8d0 02c4 	ldr.w	r0, [r0, #708]	; 0x2c4
 80073ee:	f7fa f977 	bl	80016e0 <HAL_PCD_EP_Close>
 80073f2:	2803      	cmp	r0, #3
 80073f4:	bf96      	itet	ls
 80073f6:	4b02      	ldrls	r3, [pc, #8]	; (8007400 <USBD_LL_CloseEP+0x18>)
 80073f8:	2003      	movhi	r0, #3
 80073fa:	5c18      	ldrbls	r0, [r3, r0]
 80073fc:	bd08      	pop	{r3, pc}
 80073fe:	bf00      	nop
 8007400:	08007aa0 	.word	0x08007aa0

08007404 <USBD_LL_StallEP>:
 8007404:	b508      	push	{r3, lr}
 8007406:	f8d0 02c4 	ldr.w	r0, [r0, #708]	; 0x2c4
 800740a:	f7fa f9d9 	bl	80017c0 <HAL_PCD_EP_SetStall>
 800740e:	2803      	cmp	r0, #3
 8007410:	bf96      	itet	ls
 8007412:	4b02      	ldrls	r3, [pc, #8]	; (800741c <USBD_LL_StallEP+0x18>)
 8007414:	2003      	movhi	r0, #3
 8007416:	5c18      	ldrbls	r0, [r3, r0]
 8007418:	bd08      	pop	{r3, pc}
 800741a:	bf00      	nop
 800741c:	08007aa0 	.word	0x08007aa0

08007420 <USBD_LL_ClearStallEP>:
 8007420:	b508      	push	{r3, lr}
 8007422:	f8d0 02c4 	ldr.w	r0, [r0, #708]	; 0x2c4
 8007426:	f7fa fa02 	bl	800182e <HAL_PCD_EP_ClrStall>
 800742a:	2803      	cmp	r0, #3
 800742c:	bf96      	itet	ls
 800742e:	4b02      	ldrls	r3, [pc, #8]	; (8007438 <USBD_LL_ClearStallEP+0x18>)
 8007430:	2003      	movhi	r0, #3
 8007432:	5c18      	ldrbls	r0, [r3, r0]
 8007434:	bd08      	pop	{r3, pc}
 8007436:	bf00      	nop
 8007438:	08007aa0 	.word	0x08007aa0

0800743c <USBD_LL_IsStallEP>:
 800743c:	f011 0f80 	tst.w	r1, #128	; 0x80
 8007440:	f8d0 32c4 	ldr.w	r3, [r0, #708]	; 0x2c4
 8007444:	f04f 021c 	mov.w	r2, #28
 8007448:	bf1b      	ittet	ne
 800744a:	f001 017f 	andne.w	r1, r1, #127	; 0x7f
 800744e:	fb02 3101 	mlane	r1, r2, r1, r3
 8007452:	fb02 3101 	mlaeq	r1, r2, r1, r3
 8007456:	f891 003e 	ldrbne.w	r0, [r1, #62]	; 0x3e
 800745a:	bf08      	it	eq
 800745c:	f891 01fe 	ldrbeq.w	r0, [r1, #510]	; 0x1fe
 8007460:	4770      	bx	lr
	...

08007464 <USBD_LL_SetUSBAddress>:
 8007464:	b508      	push	{r3, lr}
 8007466:	f8d0 02c4 	ldr.w	r0, [r0, #708]	; 0x2c4
 800746a:	f7fa f8ed 	bl	8001648 <HAL_PCD_SetAddress>
 800746e:	2803      	cmp	r0, #3
 8007470:	bf96      	itet	ls
 8007472:	4b02      	ldrls	r3, [pc, #8]	; (800747c <USBD_LL_SetUSBAddress+0x18>)
 8007474:	2003      	movhi	r0, #3
 8007476:	5c18      	ldrbls	r0, [r3, r0]
 8007478:	bd08      	pop	{r3, pc}
 800747a:	bf00      	nop
 800747c:	08007aa0 	.word	0x08007aa0

08007480 <USBD_LL_Transmit>:
 8007480:	b508      	push	{r3, lr}
 8007482:	f8d0 02c4 	ldr.w	r0, [r0, #708]	; 0x2c4
 8007486:	f7fa f980 	bl	800178a <HAL_PCD_EP_Transmit>
 800748a:	2803      	cmp	r0, #3
 800748c:	bf96      	itet	ls
 800748e:	4b02      	ldrls	r3, [pc, #8]	; (8007498 <USBD_LL_Transmit+0x18>)
 8007490:	2003      	movhi	r0, #3
 8007492:	5c18      	ldrbls	r0, [r3, r0]
 8007494:	bd08      	pop	{r3, pc}
 8007496:	bf00      	nop
 8007498:	08007aa0 	.word	0x08007aa0

0800749c <USBD_LL_PrepareReceive>:
 800749c:	b508      	push	{r3, lr}
 800749e:	f8d0 02c4 	ldr.w	r0, [r0, #708]	; 0x2c4
 80074a2:	f7fa f94c 	bl	800173e <HAL_PCD_EP_Receive>
 80074a6:	2803      	cmp	r0, #3
 80074a8:	bf96      	itet	ls
 80074aa:	4b02      	ldrls	r3, [pc, #8]	; (80074b4 <USBD_LL_PrepareReceive+0x18>)
 80074ac:	2003      	movhi	r0, #3
 80074ae:	5c18      	ldrbls	r0, [r3, r0]
 80074b0:	bd08      	pop	{r3, pc}
 80074b2:	bf00      	nop
 80074b4:	08007aa0 	.word	0x08007aa0

080074b8 <USBD_LL_GetRxDataSize>:
 80074b8:	f8d0 02c4 	ldr.w	r0, [r0, #708]	; 0x2c4
 80074bc:	f7fa b95d 	b.w	800177a <HAL_PCD_EP_GetRxCount>

080074c0 <USBD_static_malloc>:
 80074c0:	4800      	ldr	r0, [pc, #0]	; (80074c4 <USBD_static_malloc+0x4>)
 80074c2:	4770      	bx	lr
 80074c4:	20005644 	.word	0x20005644

080074c8 <USBD_static_free>:
 80074c8:	4770      	bx	lr
	...

080074cc <USBD_FS_DeviceDescriptor>:
 80074cc:	2312      	movs	r3, #18
 80074ce:	4801      	ldr	r0, [pc, #4]	; (80074d4 <USBD_FS_DeviceDescriptor+0x8>)
 80074d0:	800b      	strh	r3, [r1, #0]
 80074d2:	4770      	bx	lr
 80074d4:	20000158 	.word	0x20000158

080074d8 <USBD_FS_LangIDStrDescriptor>:
 80074d8:	2304      	movs	r3, #4
 80074da:	4801      	ldr	r0, [pc, #4]	; (80074e0 <USBD_FS_LangIDStrDescriptor+0x8>)
 80074dc:	800b      	strh	r3, [r1, #0]
 80074de:	4770      	bx	lr
 80074e0:	2000016c 	.word	0x2000016c

080074e4 <IntToUnicode>:
 80074e4:	2300      	movs	r3, #0
 80074e6:	b570      	push	{r4, r5, r6, lr}
 80074e8:	1c4d      	adds	r5, r1, #1
 80074ea:	461e      	mov	r6, r3
 80074ec:	0f04      	lsrs	r4, r0, #28
 80074ee:	f1b0 4f20 	cmp.w	r0, #2684354560	; 0xa0000000
 80074f2:	bf34      	ite	cc
 80074f4:	3430      	addcc	r4, #48	; 0x30
 80074f6:	3437      	addcs	r4, #55	; 0x37
 80074f8:	f801 4013 	strb.w	r4, [r1, r3, lsl #1]
 80074fc:	f805 6013 	strb.w	r6, [r5, r3, lsl #1]
 8007500:	3301      	adds	r3, #1
 8007502:	b2dc      	uxtb	r4, r3
 8007504:	42a2      	cmp	r2, r4
 8007506:	ea4f 1000 	mov.w	r0, r0, lsl #4
 800750a:	d8ef      	bhi.n	80074ec <IntToUnicode+0x8>
 800750c:	bd70      	pop	{r4, r5, r6, pc}
	...

08007510 <USBD_FS_SerialStrDescriptor>:
 8007510:	231a      	movs	r3, #26
 8007512:	b510      	push	{r4, lr}
 8007514:	800b      	strh	r3, [r1, #0]
 8007516:	4b0a      	ldr	r3, [pc, #40]	; (8007540 <USBD_FS_SerialStrDescriptor+0x30>)
 8007518:	f8d3 0590 	ldr.w	r0, [r3, #1424]	; 0x590
 800751c:	f8d3 2598 	ldr.w	r2, [r3, #1432]	; 0x598
 8007520:	1880      	adds	r0, r0, r2
 8007522:	d00a      	beq.n	800753a <USBD_FS_SerialStrDescriptor+0x2a>
 8007524:	f8d3 4594 	ldr.w	r4, [r3, #1428]	; 0x594
 8007528:	4906      	ldr	r1, [pc, #24]	; (8007544 <USBD_FS_SerialStrDescriptor+0x34>)
 800752a:	2208      	movs	r2, #8
 800752c:	f7ff ffda 	bl	80074e4 <IntToUnicode>
 8007530:	2204      	movs	r2, #4
 8007532:	3110      	adds	r1, #16
 8007534:	4620      	mov	r0, r4
 8007536:	f7ff ffd5 	bl	80074e4 <IntToUnicode>
 800753a:	4803      	ldr	r0, [pc, #12]	; (8007548 <USBD_FS_SerialStrDescriptor+0x38>)
 800753c:	bd10      	pop	{r4, pc}
 800753e:	bf00      	nop
 8007540:	1fff7000 	.word	0x1fff7000
 8007544:	20000172 	.word	0x20000172
 8007548:	20000170 	.word	0x20000170

0800754c <USBD_FS_ManufacturerStrDescriptor>:
 800754c:	b510      	push	{r4, lr}
 800754e:	4c04      	ldr	r4, [pc, #16]	; (8007560 <USBD_FS_ManufacturerStrDescriptor+0x14>)
 8007550:	4804      	ldr	r0, [pc, #16]	; (8007564 <USBD_FS_ManufacturerStrDescriptor+0x18>)
 8007552:	460a      	mov	r2, r1
 8007554:	4621      	mov	r1, r4
 8007556:	f7fc fdc1 	bl	80040dc <USBD_GetString>
 800755a:	4620      	mov	r0, r4
 800755c:	bd10      	pop	{r4, pc}
 800755e:	bf00      	nop
 8007560:	20005864 	.word	0x20005864
 8007564:	08007aa4 	.word	0x08007aa4

08007568 <USBD_FS_ProductStrDescriptor>:
 8007568:	b510      	push	{r4, lr}
 800756a:	4c04      	ldr	r4, [pc, #16]	; (800757c <USBD_FS_ProductStrDescriptor+0x14>)
 800756c:	4804      	ldr	r0, [pc, #16]	; (8007580 <USBD_FS_ProductStrDescriptor+0x18>)
 800756e:	460a      	mov	r2, r1
 8007570:	4621      	mov	r1, r4
 8007572:	f7fc fdb3 	bl	80040dc <USBD_GetString>
 8007576:	4620      	mov	r0, r4
 8007578:	bd10      	pop	{r4, pc}
 800757a:	bf00      	nop
 800757c:	20005864 	.word	0x20005864
 8007580:	08007aa8 	.word	0x08007aa8

08007584 <USBD_FS_ConfigStrDescriptor>:
 8007584:	b510      	push	{r4, lr}
 8007586:	4c04      	ldr	r4, [pc, #16]	; (8007598 <USBD_FS_ConfigStrDescriptor+0x14>)
 8007588:	4804      	ldr	r0, [pc, #16]	; (800759c <USBD_FS_ConfigStrDescriptor+0x18>)
 800758a:	460a      	mov	r2, r1
 800758c:	4621      	mov	r1, r4
 800758e:	f7fc fda5 	bl	80040dc <USBD_GetString>
 8007592:	4620      	mov	r0, r4
 8007594:	bd10      	pop	{r4, pc}
 8007596:	bf00      	nop
 8007598:	20005864 	.word	0x20005864
 800759c:	08007ab8 	.word	0x08007ab8

080075a0 <USBD_FS_InterfaceStrDescriptor>:
 80075a0:	b510      	push	{r4, lr}
 80075a2:	4c04      	ldr	r4, [pc, #16]	; (80075b4 <USBD_FS_InterfaceStrDescriptor+0x14>)
 80075a4:	4804      	ldr	r0, [pc, #16]	; (80075b8 <USBD_FS_InterfaceStrDescriptor+0x18>)
 80075a6:	460a      	mov	r2, r1
 80075a8:	4621      	mov	r1, r4
 80075aa:	f7fc fd97 	bl	80040dc <USBD_GetString>
 80075ae:	4620      	mov	r0, r4
 80075b0:	bd10      	pop	{r4, pc}
 80075b2:	bf00      	nop
 80075b4:	20005864 	.word	0x20005864
 80075b8:	08007ac3 	.word	0x08007ac3

080075bc <usbserialInit>:
 80075bc:	b507      	push	{r0, r1, r2, lr}
 80075be:	4b0f      	ldr	r3, [pc, #60]	; (80075fc <usbserialInit+0x40>)
 80075c0:	9300      	str	r3, [sp, #0]
 80075c2:	2200      	movs	r2, #0
 80075c4:	4b0e      	ldr	r3, [pc, #56]	; (8007600 <usbserialInit+0x44>)
 80075c6:	2101      	movs	r1, #1
 80075c8:	f44f 6000 	mov.w	r0, #2048	; 0x800
 80075cc:	f7fd fb90 	bl	8004cf0 <xStreamBufferGenericCreateStatic>
 80075d0:	4b0c      	ldr	r3, [pc, #48]	; (8007604 <usbserialInit+0x48>)
 80075d2:	6018      	str	r0, [r3, #0]
 80075d4:	4b0c      	ldr	r3, [pc, #48]	; (8007608 <usbserialInit+0x4c>)
 80075d6:	9300      	str	r3, [sp, #0]
 80075d8:	2200      	movs	r2, #0
 80075da:	2101      	movs	r1, #1
 80075dc:	4b0b      	ldr	r3, [pc, #44]	; (800760c <usbserialInit+0x50>)
 80075de:	f44f 6000 	mov.w	r0, #2048	; 0x800
 80075e2:	f7fd fb85 	bl	8004cf0 <xStreamBufferGenericCreateStatic>
 80075e6:	4b0a      	ldr	r3, [pc, #40]	; (8007610 <usbserialInit+0x54>)
 80075e8:	6018      	str	r0, [r3, #0]
 80075ea:	f7ff fd5d 	bl	80070a8 <MX_USB_DEVICE_Init>
 80075ee:	f44f 60fa 	mov.w	r0, #2000	; 0x7d0
 80075f2:	b003      	add	sp, #12
 80075f4:	f85d eb04 	ldr.w	lr, [sp], #4
 80075f8:	f7fc bed5 	b.w	80043a6 <osDelay>
 80075fc:	20006a98 	.word	0x20006a98
 8007600:	20006298 	.word	0x20006298
 8007604:	20006abc 	.word	0x20006abc
 8007608:	20006270 	.word	0x20006270
 800760c:	20005a70 	.word	0x20005a70
 8007610:	20006294 	.word	0x20006294

08007614 <usbserialQueue>:
 8007614:	b573      	push	{r0, r1, r4, r5, r6, lr}
 8007616:	4e0b      	ldr	r6, [pc, #44]	; (8007644 <usbserialQueue+0x30>)
 8007618:	ab01      	add	r3, sp, #4
 800761a:	4605      	mov	r5, r0
 800761c:	2400      	movs	r4, #0
 800761e:	6830      	ldr	r0, [r6, #0]
 8007620:	9401      	str	r4, [sp, #4]
 8007622:	f7fd fc4f 	bl	8004ec4 <xStreamBufferSendFromISR>
 8007626:	6830      	ldr	r0, [r6, #0]
 8007628:	f7fd fbb3 	bl	8004d92 <xStreamBufferSpacesAvailable>
 800762c:	283f      	cmp	r0, #63	; 0x3f
 800762e:	bf9f      	itttt	ls
 8007630:	4b05      	ldrls	r3, [pc, #20]	; (8007648 <usbserialQueue+0x34>)
 8007632:	2001      	movls	r0, #1
 8007634:	6018      	strls	r0, [r3, #0]
 8007636:	4b05      	ldrls	r3, [pc, #20]	; (800764c <usbserialQueue+0x38>)
 8007638:	bf8c      	ite	hi
 800763a:	4620      	movhi	r0, r4
 800763c:	601d      	strls	r5, [r3, #0]
 800763e:	b002      	add	sp, #8
 8007640:	bd70      	pop	{r4, r5, r6, pc}
 8007642:	bf00      	nop
 8007644:	20006294 	.word	0x20006294
 8007648:	20005a6c 	.word	0x20005a6c
 800764c:	20005a68 	.word	0x20005a68

08007650 <usbserialWriteData>:
 8007650:	460a      	mov	r2, r1
 8007652:	4601      	mov	r1, r0
 8007654:	4802      	ldr	r0, [pc, #8]	; (8007660 <usbserialWriteData+0x10>)
 8007656:	f04f 33ff 	mov.w	r3, #4294967295
 800765a:	6800      	ldr	r0, [r0, #0]
 800765c:	f7fd bbad 	b.w	8004dba <xStreamBufferSend>
 8007660:	20006abc 	.word	0x20006abc

08007664 <usbserialPrint>:
 8007664:	b510      	push	{r4, lr}
 8007666:	4604      	mov	r4, r0
 8007668:	f7f8 fdc2 	bl	80001f0 <strlen>
 800766c:	4601      	mov	r1, r0
 800766e:	4620      	mov	r0, r4
 8007670:	e8bd 4010 	ldmia.w	sp!, {r4, lr}
 8007674:	f7ff bfec 	b.w	8007650 <usbserialWriteData>

08007678 <usbserialTxWakeup>:
 8007678:	4b02      	ldr	r3, [pc, #8]	; (8007684 <usbserialTxWakeup+0xc>)
 800767a:	2101      	movs	r1, #1
 800767c:	6818      	ldr	r0, [r3, #0]
 800767e:	f7fc be0c 	b.w	800429a <osThreadFlagsSet>
 8007682:	bf00      	nop
 8007684:	20003f14 	.word	0x20003f14

08007688 <StartUsbTxTask>:
 8007688:	b530      	push	{r4, r5, lr}
 800768a:	b091      	sub	sp, #68	; 0x44
 800768c:	f7ff ff96 	bl	80075bc <usbserialInit>
 8007690:	4b0c      	ldr	r3, [pc, #48]	; (80076c4 <StartUsbTxTask+0x3c>)
 8007692:	4d0d      	ldr	r5, [pc, #52]	; (80076c8 <StartUsbTxTask+0x40>)
 8007694:	2201      	movs	r2, #1
 8007696:	601a      	str	r2, [r3, #0]
 8007698:	6828      	ldr	r0, [r5, #0]
 800769a:	2301      	movs	r3, #1
 800769c:	2240      	movs	r2, #64	; 0x40
 800769e:	4669      	mov	r1, sp
 80076a0:	f7fd fc5d 	bl	8004f5e <xStreamBufferReceive>
 80076a4:	2800      	cmp	r0, #0
 80076a6:	ddf7      	ble.n	8007698 <StartUsbTxTask+0x10>
 80076a8:	b284      	uxth	r4, r0
 80076aa:	4621      	mov	r1, r4
 80076ac:	4668      	mov	r0, sp
 80076ae:	f7ff fd6b 	bl	8007188 <CDC_Transmit_FS>
 80076b2:	2800      	cmp	r0, #0
 80076b4:	d0f0      	beq.n	8007698 <StartUsbTxTask+0x10>
 80076b6:	f04f 32ff 	mov.w	r2, #4294967295
 80076ba:	2100      	movs	r1, #0
 80076bc:	2001      	movs	r0, #1
 80076be:	f7fc fe26 	bl	800430e <osThreadFlagsWait>
 80076c2:	e7f2      	b.n	80076aa <StartUsbTxTask+0x22>
 80076c4:	20005a64 	.word	0x20005a64
 80076c8:	20006abc 	.word	0x20006abc

080076cc <Reset_Handler>:
 80076cc:	f8df d034 	ldr.w	sp, [pc, #52]	; 8007704 <LoopForever+0x2>
 80076d0:	f7ff fcc6 	bl	8007060 <SystemInit>
 80076d4:	2100      	movs	r1, #0
 80076d6:	e003      	b.n	80076e0 <LoopCopyDataInit>

080076d8 <CopyDataInit>:
 80076d8:	4b0b      	ldr	r3, [pc, #44]	; (8007708 <LoopForever+0x6>)
 80076da:	585b      	ldr	r3, [r3, r1]
 80076dc:	5043      	str	r3, [r0, r1]
 80076de:	3104      	adds	r1, #4

080076e0 <LoopCopyDataInit>:
 80076e0:	480a      	ldr	r0, [pc, #40]	; (800770c <LoopForever+0xa>)
 80076e2:	4b0b      	ldr	r3, [pc, #44]	; (8007710 <LoopForever+0xe>)
 80076e4:	1842      	adds	r2, r0, r1
 80076e6:	429a      	cmp	r2, r3
 80076e8:	d3f6      	bcc.n	80076d8 <CopyDataInit>
 80076ea:	4a0a      	ldr	r2, [pc, #40]	; (8007714 <LoopForever+0x12>)
 80076ec:	e002      	b.n	80076f4 <LoopFillZerobss>

080076ee <FillZerobss>:
 80076ee:	2300      	movs	r3, #0
 80076f0:	f842 3b04 	str.w	r3, [r2], #4

080076f4 <LoopFillZerobss>:
 80076f4:	4b08      	ldr	r3, [pc, #32]	; (8007718 <LoopForever+0x16>)
 80076f6:	429a      	cmp	r2, r3
 80076f8:	d3f9      	bcc.n	80076ee <FillZerobss>
 80076fa:	f000 f811 	bl	8007720 <__libc_init_array>
 80076fe:	f7ff f883 	bl	8006808 <main>

08007702 <LoopForever>:
 8007702:	e7fe      	b.n	8007702 <LoopForever>
 8007704:	20050000 	.word	0x20050000
 8007708:	08007b3c 	.word	0x08007b3c
 800770c:	20000000 	.word	0x20000000
 8007710:	200001f0 	.word	0x200001f0
 8007714:	200001f0 	.word	0x200001f0
 8007718:	20006ac8 	.word	0x20006ac8

0800771c <ADC1_2_IRQHandler>:
 800771c:	e7fe      	b.n	800771c <ADC1_2_IRQHandler>
	...

08007720 <__libc_init_array>:
 8007720:	b570      	push	{r4, r5, r6, lr}
 8007722:	4d0d      	ldr	r5, [pc, #52]	; (8007758 <__libc_init_array+0x38>)
 8007724:	4c0d      	ldr	r4, [pc, #52]	; (800775c <__libc_init_array+0x3c>)
 8007726:	1b64      	subs	r4, r4, r5
 8007728:	10a4      	asrs	r4, r4, #2
 800772a:	2600      	movs	r6, #0
 800772c:	42a6      	cmp	r6, r4
 800772e:	d109      	bne.n	8007744 <__libc_init_array+0x24>
 8007730:	4d0b      	ldr	r5, [pc, #44]	; (8007760 <__libc_init_array+0x40>)
 8007732:	4c0c      	ldr	r4, [pc, #48]	; (8007764 <__libc_init_array+0x44>)
 8007734:	f000 f8f2 	bl	800791c <_init>
 8007738:	1b64      	subs	r4, r4, r5
 800773a:	10a4      	asrs	r4, r4, #2
 800773c:	2600      	movs	r6, #0
 800773e:	42a6      	cmp	r6, r4
 8007740:	d105      	bne.n	800774e <__libc_init_array+0x2e>
 8007742:	bd70      	pop	{r4, r5, r6, pc}
 8007744:	f855 3b04 	ldr.w	r3, [r5], #4
 8007748:	4798      	blx	r3
 800774a:	3601      	adds	r6, #1
 800774c:	e7ee      	b.n	800772c <__libc_init_array+0xc>
 800774e:	f855 3b04 	ldr.w	r3, [r5], #4
 8007752:	4798      	blx	r3
 8007754:	3601      	adds	r6, #1
 8007756:	e7f2      	b.n	800773e <__libc_init_array+0x1e>
 8007758:	08007b34 	.word	0x08007b34
 800775c:	08007b34 	.word	0x08007b34
 8007760:	08007b34 	.word	0x08007b34
 8007764:	08007b38 	.word	0x08007b38

08007768 <__retarget_lock_acquire_recursive>:
 8007768:	4770      	bx	lr

0800776a <__retarget_lock_release_recursive>:
 800776a:	4770      	bx	lr

0800776c <memcpy>:
 800776c:	440a      	add	r2, r1
 800776e:	4291      	cmp	r1, r2
 8007770:	f100 33ff 	add.w	r3, r0, #4294967295
 8007774:	d100      	bne.n	8007778 <memcpy+0xc>
 8007776:	4770      	bx	lr
 8007778:	b510      	push	{r4, lr}
 800777a:	f811 4b01 	ldrb.w	r4, [r1], #1
 800777e:	f803 4f01 	strb.w	r4, [r3, #1]!
 8007782:	4291      	cmp	r1, r2
 8007784:	d1f9      	bne.n	800777a <memcpy+0xe>
 8007786:	bd10      	pop	{r4, pc}

08007788 <memset>:
 8007788:	4402      	add	r2, r0
 800778a:	4603      	mov	r3, r0
 800778c:	4293      	cmp	r3, r2
 800778e:	d100      	bne.n	8007792 <memset+0xa>
 8007790:	4770      	bx	lr
 8007792:	f803 1b01 	strb.w	r1, [r3], #1
 8007796:	e7f9      	b.n	800778c <memset+0x4>

08007798 <cleanup_glue>:
 8007798:	b538      	push	{r3, r4, r5, lr}
 800779a:	460c      	mov	r4, r1
 800779c:	6809      	ldr	r1, [r1, #0]
 800779e:	4605      	mov	r5, r0
 80077a0:	b109      	cbz	r1, 80077a6 <cleanup_glue+0xe>
 80077a2:	f7ff fff9 	bl	8007798 <cleanup_glue>
 80077a6:	4621      	mov	r1, r4
 80077a8:	4628      	mov	r0, r5
 80077aa:	e8bd 4038 	ldmia.w	sp!, {r3, r4, r5, lr}
 80077ae:	f000 b869 	b.w	8007884 <_free_r>
	...

080077b4 <_reclaim_reent>:
 80077b4:	4b2c      	ldr	r3, [pc, #176]	; (8007868 <_reclaim_reent+0xb4>)
 80077b6:	681b      	ldr	r3, [r3, #0]
 80077b8:	4283      	cmp	r3, r0
 80077ba:	b570      	push	{r4, r5, r6, lr}
 80077bc:	4604      	mov	r4, r0
 80077be:	d051      	beq.n	8007864 <_reclaim_reent+0xb0>
 80077c0:	6a43      	ldr	r3, [r0, #36]	; 0x24
 80077c2:	b143      	cbz	r3, 80077d6 <_reclaim_reent+0x22>
 80077c4:	68db      	ldr	r3, [r3, #12]
 80077c6:	2b00      	cmp	r3, #0
 80077c8:	d14a      	bne.n	8007860 <_reclaim_reent+0xac>
 80077ca:	6a63      	ldr	r3, [r4, #36]	; 0x24
 80077cc:	6819      	ldr	r1, [r3, #0]
 80077ce:	b111      	cbz	r1, 80077d6 <_reclaim_reent+0x22>
 80077d0:	4620      	mov	r0, r4
 80077d2:	f000 f857 	bl	8007884 <_free_r>
 80077d6:	6961      	ldr	r1, [r4, #20]
 80077d8:	b111      	cbz	r1, 80077e0 <_reclaim_reent+0x2c>
 80077da:	4620      	mov	r0, r4
 80077dc:	f000 f852 	bl	8007884 <_free_r>
 80077e0:	6a61      	ldr	r1, [r4, #36]	; 0x24
 80077e2:	b111      	cbz	r1, 80077ea <_reclaim_reent+0x36>
 80077e4:	4620      	mov	r0, r4
 80077e6:	f000 f84d 	bl	8007884 <_free_r>
 80077ea:	6ba1      	ldr	r1, [r4, #56]	; 0x38
 80077ec:	b111      	cbz	r1, 80077f4 <_reclaim_reent+0x40>
 80077ee:	4620      	mov	r0, r4
 80077f0:	f000 f848 	bl	8007884 <_free_r>
 80077f4:	6be1      	ldr	r1, [r4, #60]	; 0x3c
 80077f6:	b111      	cbz	r1, 80077fe <_reclaim_reent+0x4a>
 80077f8:	4620      	mov	r0, r4
 80077fa:	f000 f843 	bl	8007884 <_free_r>
 80077fe:	6c21      	ldr	r1, [r4, #64]	; 0x40
 8007800:	b111      	cbz	r1, 8007808 <_reclaim_reent+0x54>
 8007802:	4620      	mov	r0, r4
 8007804:	f000 f83e 	bl	8007884 <_free_r>
 8007808:	6de1      	ldr	r1, [r4, #92]	; 0x5c
 800780a:	b111      	cbz	r1, 8007812 <_reclaim_reent+0x5e>
 800780c:	4620      	mov	r0, r4
 800780e:	f000 f839 	bl	8007884 <_free_r>
 8007812:	6da1      	ldr	r1, [r4, #88]	; 0x58
 8007814:	b111      	cbz	r1, 800781c <_reclaim_reent+0x68>
 8007816:	4620      	mov	r0, r4
 8007818:	f000 f834 	bl	8007884 <_free_r>
 800781c:	6b61      	ldr	r1, [r4, #52]	; 0x34
 800781e:	b111      	cbz	r1, 8007826 <_reclaim_reent+0x72>
 8007820:	4620      	mov	r0, r4
 8007822:	f000 f82f 	bl	8007884 <_free_r>
 8007826:	69a3      	ldr	r3, [r4, #24]
 8007828:	b1e3      	cbz	r3, 8007864 <_reclaim_reent+0xb0>
 800782a:	6aa3      	ldr	r3, [r4, #40]	; 0x28
 800782c:	4620      	mov	r0, r4
 800782e:	4798      	blx	r3
 8007830:	6ca1      	ldr	r1, [r4, #72]	; 0x48
 8007832:	b1b9      	cbz	r1, 8007864 <_reclaim_reent+0xb0>
 8007834:	4620      	mov	r0, r4
 8007836:	e8bd 4070 	ldmia.w	sp!, {r4, r5, r6, lr}
 800783a:	f7ff bfad 	b.w	8007798 <cleanup_glue>
 800783e:	5949      	ldr	r1, [r1, r5]
 8007840:	b941      	cbnz	r1, 8007854 <_reclaim_reent+0xa0>
 8007842:	3504      	adds	r5, #4
 8007844:	6a63      	ldr	r3, [r4, #36]	; 0x24
 8007846:	2d80      	cmp	r5, #128	; 0x80
 8007848:	68d9      	ldr	r1, [r3, #12]
 800784a:	d1f8      	bne.n	800783e <_reclaim_reent+0x8a>
 800784c:	4620      	mov	r0, r4
 800784e:	f000 f819 	bl	8007884 <_free_r>
 8007852:	e7ba      	b.n	80077ca <_reclaim_reent+0x16>
 8007854:	680e      	ldr	r6, [r1, #0]
 8007856:	4620      	mov	r0, r4
 8007858:	f000 f814 	bl	8007884 <_free_r>
 800785c:	4631      	mov	r1, r6
 800785e:	e7ef      	b.n	8007840 <_reclaim_reent+0x8c>
 8007860:	2500      	movs	r5, #0
 8007862:	e7ef      	b.n	8007844 <_reclaim_reent+0x90>
 8007864:	bd70      	pop	{r4, r5, r6, pc}
 8007866:	bf00      	nop
 8007868:	2000018c 	.word	0x2000018c

0800786c <__malloc_lock>:
 800786c:	4801      	ldr	r0, [pc, #4]	; (8007874 <__malloc_lock+0x8>)
 800786e:	f7ff bf7b 	b.w	8007768 <__retarget_lock_acquire_recursive>
 8007872:	bf00      	nop
 8007874:	20006ac0 	.word	0x20006ac0

08007878 <__malloc_unlock>:
 8007878:	4801      	ldr	r0, [pc, #4]	; (8007880 <__malloc_unlock+0x8>)
 800787a:	f7ff bf76 	b.w	800776a <__retarget_lock_release_recursive>
 800787e:	bf00      	nop
 8007880:	20006ac0 	.word	0x20006ac0

08007884 <_free_r>:
 8007884:	b537      	push	{r0, r1, r2, r4, r5, lr}
 8007886:	2900      	cmp	r1, #0
 8007888:	d044      	beq.n	8007914 <_free_r+0x90>
 800788a:	f851 3c04 	ldr.w	r3, [r1, #-4]
 800788e:	9001      	str	r0, [sp, #4]
 8007890:	2b00      	cmp	r3, #0
 8007892:	f1a1 0404 	sub.w	r4, r1, #4
 8007896:	bfb8      	it	lt
 8007898:	18e4      	addlt	r4, r4, r3
 800789a:	f7ff ffe7 	bl	800786c <__malloc_lock>
 800789e:	4a1e      	ldr	r2, [pc, #120]	; (8007918 <_free_r+0x94>)
 80078a0:	9801      	ldr	r0, [sp, #4]
 80078a2:	6813      	ldr	r3, [r2, #0]
 80078a4:	b933      	cbnz	r3, 80078b4 <_free_r+0x30>
 80078a6:	6063      	str	r3, [r4, #4]
 80078a8:	6014      	str	r4, [r2, #0]
 80078aa:	b003      	add	sp, #12
 80078ac:	e8bd 4030 	ldmia.w	sp!, {r4, r5, lr}
 80078b0:	f7ff bfe2 	b.w	8007878 <__malloc_unlock>
 80078b4:	42a3      	cmp	r3, r4
 80078b6:	d908      	bls.n	80078ca <_free_r+0x46>
 80078b8:	6825      	ldr	r5, [r4, #0]
 80078ba:	1961      	adds	r1, r4, r5
 80078bc:	428b      	cmp	r3, r1
 80078be:	bf01      	itttt	eq
 80078c0:	6819      	ldreq	r1, [r3, #0]
 80078c2:	685b      	ldreq	r3, [r3, #4]
 80078c4:	1949      	addeq	r1, r1, r5
 80078c6:	6021      	streq	r1, [r4, #0]
 80078c8:	e7ed      	b.n	80078a6 <_free_r+0x22>
 80078ca:	461a      	mov	r2, r3
 80078cc:	685b      	ldr	r3, [r3, #4]
 80078ce:	b10b      	cbz	r3, 80078d4 <_free_r+0x50>
 80078d0:	42a3      	cmp	r3, r4
 80078d2:	d9fa      	bls.n	80078ca <_free_r+0x46>
 80078d4:	6811      	ldr	r1, [r2, #0]
 80078d6:	1855      	adds	r5, r2, r1
 80078d8:	42a5      	cmp	r5, r4
 80078da:	d10b      	bne.n	80078f4 <_free_r+0x70>
 80078dc:	6824      	ldr	r4, [r4, #0]
 80078de:	4421      	add	r1, r4
 80078e0:	1854      	adds	r4, r2, r1
 80078e2:	42a3      	cmp	r3, r4
 80078e4:	6011      	str	r1, [r2, #0]
 80078e6:	d1e0      	bne.n	80078aa <_free_r+0x26>
 80078e8:	681c      	ldr	r4, [r3, #0]
 80078ea:	685b      	ldr	r3, [r3, #4]
 80078ec:	6053      	str	r3, [r2, #4]
 80078ee:	4421      	add	r1, r4
 80078f0:	6011      	str	r1, [r2, #0]
 80078f2:	e7da      	b.n	80078aa <_free_r+0x26>
 80078f4:	d902      	bls.n	80078fc <_free_r+0x78>
 80078f6:	230c      	movs	r3, #12
 80078f8:	6003      	str	r3, [r0, #0]
 80078fa:	e7d6      	b.n	80078aa <_free_r+0x26>
 80078fc:	6825      	ldr	r5, [r4, #0]
 80078fe:	1961      	adds	r1, r4, r5
 8007900:	428b      	cmp	r3, r1
 8007902:	bf04      	itt	eq
 8007904:	6819      	ldreq	r1, [r3, #0]
 8007906:	685b      	ldreq	r3, [r3, #4]
 8007908:	6063      	str	r3, [r4, #4]
 800790a:	bf04      	itt	eq
 800790c:	1949      	addeq	r1, r1, r5
 800790e:	6021      	streq	r1, [r4, #0]
 8007910:	6054      	str	r4, [r2, #4]
 8007912:	e7ca      	b.n	80078aa <_free_r+0x26>
 8007914:	b003      	add	sp, #12
 8007916:	bd30      	pop	{r4, r5, pc}
 8007918:	20006ac4 	.word	0x20006ac4

0800791c <_init>:
 800791c:	b5f8      	push	{r3, r4, r5, r6, r7, lr}
 800791e:	bf00      	nop
 8007920:	bcf8      	pop	{r3, r4, r5, r6, r7}
 8007922:	bc08      	pop	{r3}
 8007924:	469e      	mov	lr, r3
 8007926:	4770      	bx	lr

08007928 <_fini>:
 8007928:	b5f8      	push	{r3, r4, r5, r6, r7, lr}
 800792a:	bf00      	nop
 800792c:	bcf8      	pop	{r3, r4, r5, r6, r7}
 800792e:	bc08      	pop	{r3}
 8007930:	469e      	mov	lr, r3
 8007932:	4770      	bx	lr
